; Listing generated by Microsoft (R) Optimizing Compiler Version 19.33.31629.0 

include listing.inc

INCLUDELIB LIBCMT
INCLUDELIB OLDNAMES

PUBLIC	c_DwmMaxQueuedBuffers
PUBLIC	c_DwmMaxMonitors
PUBLIC	c_DwmMaxAdapters
;	COMDAT c_DwmMaxAdapters
CONST	SEGMENT
c_DwmMaxAdapters DD 010H
CONST	ENDS
;	COMDAT c_DwmMaxMonitors
CONST	SEGMENT
c_DwmMaxMonitors DD 010H
CONST	ENDS
;	COMDAT c_DwmMaxQueuedBuffers
CONST	SEGMENT
c_DwmMaxQueuedBuffers DD 08H
CONST	ENDS
CONST	SEGMENT
$SG229776 DB	'inf', 00H
$SG229782 DB	'nan', 00H
$SG229779 DB	'nan(ind)', 00H
$SG210128 DB	00H
$SG210131 DB	00H
$SG210134 DB	00H
$SG229858 DB	'inf', 00H
$SG229783 DB	'nan(snan)', 00H
$SG56016 DB	00H
	ORG $+5
$SG229861 DB	'nan(ind)', 00H
	ORG $+3
$SG229864 DB	'nan', 00H
$SG229865 DB	'nan(snan)', 00H
	ORG $+2
$SG229898 DB	'inf', 00H
$SG229901 DB	'nan(ind)', 00H
	ORG $+3
$SG229904 DB	'nan', 00H
$SG229905 DB	'nan(snan)', 00H
	ORG $+2
$SG229939 DB	'inf', 00H
$SG229942 DB	'nan(ind)', 00H
	ORG $+3
$SG229945 DB	'nan', 00H
$SG229946 DB	'nan(snan)', 00H
	ORG $+2
$SG230009 DB	'inf', 00H
$SG230012 DB	'nan(ind)', 00H
	ORG $+3
$SG230015 DB	'nan', 00H
$SG230016 DB	'nan(snan)', 00H
	ORG $+2
$SG230083 DB	'inf', 00H
$SG230086 DB	'nan(ind)', 00H
	ORG $+3
$SG230089 DB	'nan', 00H
$SG230090 DB	'nan(snan)', 00H
	ORG $+2
$SG216409 DB	'0', 00H, 00H, 00H
$SG197804 DB	'NtDelayExecution', 00H
	ORG $+3
$SG216670 DB	' ms', 00H
$SG197805 DB	'ntdll.dll', 00H
	ORG $+2
$SG242469 DB	'nf', 00H
	ORG $+1
$SG197815 DB	'ZwSetTimerResolution', 00H
	ORG $+3
$SG197816 DB	'ntdll.dll', 00H
	ORG $+2
$SG242489 DB	'an', 00H
	ORG $+1
$SG216213 DB	'fan window error: failed to set window position', 00H
$SG216224 DB	'fan window error: failed to set window position', 00H
$SG216672 DB	'FPS: ', 00H
	ORG $+2
$SG216408 DB	'C', 00H, ':', 00H, '\', 00H, 'l', 00H, 'i', 00H, 'b', 00H
	DB	's', 00H, '\', 00H, 'f', 00H, 'a', 00H, 'n', 00H, '\', 00H, 's'
	DB	00H, 'r', 00H, 'c', 00H, '\', 00H, 'f', 00H, 'a', 00H, 'n', 00H
	DB	'\', 00H, 'w', 00H, 'i', 00H, 'n', 00H, 'd', 00H, 'o', 00H, 'w'
	DB	00H, '\', 00H, 'w', 00H, 'i', 00H, 'n', 00H, 'd', 00H, 'o', 00H
	DB	'w', 00H, '.', 00H, 'c', 00H, 'p', 00H, 'p', 00H, 00H, 00H
$SG242495 DB	'ind', 00H
$SG216671 DB	' frame time: ', 00H
	ORG $+2
$SG249543 DB	'0e+00', 00H
	ORG $+2
$SG249587 DB	'0e+00', 00H
	ORG $+2
$SG216985 DB	'failed to initialize window:', 00H
	ORG $+3
$SG216987 DB	'failed to register raw input:', 00H
	ORG $+2
$SG143551 DB	'failed to close file stream', 00H
$SG242639 DB	'nf', 00H
	ORG $+1
$SG143641 DB	'failed to open file:', 00H
	ORG $+3
$SG143651 DB	'failed to write from file stream', 00H
	ORG $+3
$SG242471 DB	'inity', 00H
	ORG $+2
$SG242659 DB	'an', 00H
	ORG $+1
$SG143661 DB	'failed to read from file stream', 00H
$SG209585 DB	'utf was not found from map index', 00H
	ORG $+3
$SG242641 DB	'inity', 00H
	ORG $+2
$SG242665 DB	'ind', 00H
$SG209588 DB	'utf was not found from map index', 00H
	ORG $+3
$SG242497 DB	'snan', 00H
	ORG $+3
$SG242667 DB	'snan', 00H
	ORG $+3
$SG242767 DB	'0p+0', 00H
	ORG $+3
$SG242817 DB	'0p+0', 00H
	ORG $+3
$SG56013 DB	'pause', 00H
	ORG $+2
$SG204674 DB	00H, 00H
	ORG $+2
$SG210123 DB	'font not found', 00H
	ORG $+1
$SG210125 DB	'font', 00H
	ORG $+3
$SG210126 DB	'# code index', 00H
	ORG $+3
$SG210129 DB	'# index width height offset_x offset_y advance', 00H
	ORG $+1
$SG210132 DB	'# index x y width height border', 00H
$SG145109 DB	'path does not exist ', 00H
	ORG $+3
$SG145120 DB	'path does not exist:', 00H
	ORG $+3
$SG145301 DB	'0123456789', 00H
	ORG $+5
$SG55993 DB	'fan warning: ', 00H
	ORG $+2
$SG56003 DB	'fan warning:', 00H
	ORG $+3
$SG56092 DB	'stacktrace not supported', 00H
	ORG $+7
$SG196443 DB	'0123456789ABCDEFGHIJKLMNOPQRSTUVWXYZabcdefghijklmnopqrst'
	DB	'uvwxyz', 00H
	ORG $+1
$SG204672 DB	'failed to open clipboard', 00H
	ORG $+7
$SG204676 DB	'copyboard text was nullptr', 00H
CONST	ENDS
PUBLIC	??2@YAPEAX_KPEAX@Z				; operator new
PUBLIC	fabsl
PUBLIC	frexpl
PUBLIC	?is_constant_evaluated@std@@YA_NXZ		; std::is_constant_evaluated
PUBLIC	?_Fnv1a_append_bytes@std@@YA_K_KQEBE_K@Z	; std::_Fnv1a_append_bytes
PUBLIC	__local_stdio_printf_options
PUBLIC	_vsprintf_s_l
PUBLIC	_vscprintf_l
PUBLIC	sprintf_s
PUBLIC	_scprintf
PUBLIC	?max@?$numeric_limits@_J@std@@SA_JXZ		; std::numeric_limits<__int64>::max
PUBLIC	??0exception@std@@QEAA@QEBD@Z			; std::exception::exception
PUBLIC	??0exception@std@@QEAA@QEBDH@Z			; std::exception::exception
PUBLIC	??0exception@std@@QEAA@AEBV01@@Z		; std::exception::exception
PUBLIC	??1exception@std@@UEAA@XZ			; std::exception::~exception
PUBLIC	?what@exception@std@@UEBAPEBDXZ			; std::exception::what
PUBLIC	??_Gexception@std@@UEAAPEAXI@Z			; std::exception::`scalar deleting destructor'
PUBLIC	??0bad_alloc@std@@AEAA@QEBD@Z			; std::bad_alloc::bad_alloc
PUBLIC	??1bad_alloc@std@@UEAA@XZ			; std::bad_alloc::~bad_alloc
PUBLIC	??0bad_alloc@std@@QEAA@AEBV01@@Z		; std::bad_alloc::bad_alloc
PUBLIC	??_Gbad_alloc@std@@UEAAPEAXI@Z			; std::bad_alloc::`scalar deleting destructor'
PUBLIC	??0bad_array_new_length@std@@QEAA@XZ		; std::bad_array_new_length::bad_array_new_length
PUBLIC	??1bad_array_new_length@std@@UEAA@XZ		; std::bad_array_new_length::~bad_array_new_length
PUBLIC	??0bad_array_new_length@std@@QEAA@AEBV01@@Z	; std::bad_array_new_length::bad_array_new_length
PUBLIC	??_Gbad_array_new_length@std@@UEAAPEAXI@Z	; std::bad_array_new_length::`scalar deleting destructor'
PUBLIC	?_Throw_bad_array_new_length@std@@YAXXZ		; std::_Throw_bad_array_new_length
PUBLIC	??0?$tuple@$$V@std@@QEAA@AEBV01@@Z		; std::tuple<>::tuple<>
PUBLIC	?_Allocate@_Default_allocate_traits@std@@SAPEAX_K@Z ; std::_Default_allocate_traits::_Allocate
PUBLIC	?_Adjust_manually_vector_aligned@std@@YAXAEAPEAXAEA_K@Z ; std::_Adjust_manually_vector_aligned
PUBLIC	?_Orphan_all@_Container_base0@std@@QEAAXXZ	; std::_Container_base0::_Orphan_all
PUBLIC	?_Swap_proxy_and_iterators@_Container_base0@std@@QEAAXAEAU12@@Z ; std::_Container_base0::_Swap_proxy_and_iterators
PUBLIC	?_Alloc_proxy@_Container_base0@std@@QEAAXAEBU_Fake_allocator@2@@Z ; std::_Container_base0::_Alloc_proxy
PUBLIC	?_Adopt@_Iterator_base0@std@@QEAAXPEBX@Z	; std::_Iterator_base0::_Adopt
PUBLIC	??0_Fake_proxy_ptr_impl@std@@QEAA@AEBU_Fake_allocator@1@AEBU_Container_base0@1@@Z ; std::_Fake_proxy_ptr_impl::_Fake_proxy_ptr_impl
PUBLIC	?_Release@_Fake_proxy_ptr_impl@std@@QEAAXXZ	; std::_Fake_proxy_ptr_impl::_Release
PUBLIC	?copy@?$_Char_traits@DH@std@@SAPEADQEADQEBD_K@Z	; std::_Char_traits<char,int>::copy
PUBLIC	?move@?$_Char_traits@DH@std@@SAPEADQEADQEBD_K@Z	; std::_Char_traits<char,int>::move
PUBLIC	?assign@?$_Char_traits@DH@std@@SAPEADQEAD_KD@Z	; std::_Char_traits<char,int>::assign
PUBLIC	?assign@?$_Char_traits@DH@std@@SAXAEADAEBD@Z	; std::_Char_traits<char,int>::assign
PUBLIC	?length@?$_Narrow_char_traits@DH@std@@SA_KQEBD@Z ; std::_Narrow_char_traits<char,int>::length
PUBLIC	?assign@?$_Narrow_char_traits@DH@std@@SAPEADQEAD_KD@Z ; std::_Narrow_char_traits<char,int>::assign
PUBLIC	?assign@?$_Narrow_char_traits@DH@std@@SAXAEADAEBD@Z ; std::_Narrow_char_traits<char,int>::assign
PUBLIC	?to_int_type@?$_Narrow_char_traits@DH@std@@SAHAEBD@Z ; std::_Narrow_char_traits<char,int>::to_int_type
PUBLIC	?eq_int_type@?$_Narrow_char_traits@DH@std@@SA_NAEBH0@Z ; std::_Narrow_char_traits<char,int>::eq_int_type
PUBLIC	?eof@?$_Narrow_char_traits@DH@std@@SAHXZ	; std::_Narrow_char_traits<char,int>::eof
PUBLIC	?_Xlen_string@std@@YAXXZ			; std::_Xlen_string
PUBLIC	??0?$allocator@D@std@@QEAA@XZ			; std::allocator<char>::allocator<char>
PUBLIC	?deallocate@?$allocator@D@std@@QEAAXQEAD_K@Z	; std::allocator<char>::deallocate
PUBLIC	?allocate@?$allocator@D@std@@QEAAPEAD_K@Z	; std::allocator<char>::allocate
PUBLIC	?max_size@?$_Default_allocator_traits@V?$allocator@D@std@@@std@@SA_KAEBV?$allocator@D@2@@Z ; std::_Default_allocator_traits<std::allocator<char> >::max_size
PUBLIC	?select_on_container_copy_construction@?$_Default_allocator_traits@V?$allocator@D@std@@@std@@SA?AV?$allocator@D@2@AEBV32@@Z ; std::_Default_allocator_traits<std::allocator<char> >::select_on_container_copy_construction
PUBLIC	??0?$_String_val@U?$_Simple_types@D@std@@@std@@QEAA@XZ ; std::_String_val<std::_Simple_types<char> >::_String_val<std::_Simple_types<char> >
PUBLIC	?_Myptr@?$_String_val@U?$_Simple_types@D@std@@@std@@QEAAPEADXZ ; std::_String_val<std::_Simple_types<char> >::_Myptr
PUBLIC	?_Myptr@?$_String_val@U?$_Simple_types@D@std@@@std@@QEBAPEBDXZ ; std::_String_val<std::_Simple_types<char> >::_Myptr
PUBLIC	?_Large_string_engaged@?$_String_val@U?$_Simple_types@D@std@@@std@@QEBA_NXZ ; std::_String_val<std::_Simple_types<char> >::_Large_string_engaged
PUBLIC	?_Check_offset@?$_String_val@U?$_Simple_types@D@std@@@std@@QEBAX_K@Z ; std::_String_val<std::_Simple_types<char> >::_Check_offset
PUBLIC	?_Xran@?$_String_val@U?$_Simple_types@D@std@@@std@@SAXXZ ; std::_String_val<std::_Simple_types<char> >::_Xran
PUBLIC	?_Clamp_suffix_size@?$_String_val@U?$_Simple_types@D@std@@@std@@QEBA_K_K0@Z ; std::_String_val<std::_Simple_types<char> >::_Clamp_suffix_size
PUBLIC	??0_Bxty@?$_String_val@U?$_Simple_types@D@std@@@std@@QEAA@XZ ; std::_String_val<std::_Simple_types<char> >::_Bxty::_Bxty
PUBLIC	??1_Bxty@?$_String_val@U?$_Simple_types@D@std@@@std@@QEAA@XZ ; std::_String_val<std::_Simple_types<char> >::_Bxty::~_Bxty
PUBLIC	??1?$_String_val@U?$_Simple_types@D@std@@@std@@QEAA@XZ ; std::_String_val<std::_Simple_types<char> >::~_String_val<std::_Simple_types<char> >
PUBLIC	??0?$basic_string@DU?$char_traits@D@std@@V?$allocator@D@2@@std@@QEAA@XZ ; std::basic_string<char,std::char_traits<char>,std::allocator<char> >::basic_string<char,std::char_traits<char>,std::allocator<char> >
PUBLIC	??0?$basic_string@DU?$char_traits@D@std@@V?$allocator@D@2@@std@@QEAA@AEBV01@@Z ; std::basic_string<char,std::char_traits<char>,std::allocator<char> >::basic_string<char,std::char_traits<char>,std::allocator<char> >
PUBLIC	??0?$basic_string@DU?$char_traits@D@std@@V?$allocator@D@2@@std@@QEAA@AEBV01@_K1AEBV?$allocator@D@1@@Z ; std::basic_string<char,std::char_traits<char>,std::allocator<char> >::basic_string<char,std::char_traits<char>,std::allocator<char> >
PUBLIC	??0?$basic_string@DU?$char_traits@D@std@@V?$allocator@D@2@@std@@QEAA@QEBD_K@Z ; std::basic_string<char,std::char_traits<char>,std::allocator<char> >::basic_string<char,std::char_traits<char>,std::allocator<char> >
PUBLIC	??0?$basic_string@DU?$char_traits@D@std@@V?$allocator@D@2@@std@@QEAA@QEBD@Z ; std::basic_string<char,std::char_traits<char>,std::allocator<char> >::basic_string<char,std::char_traits<char>,std::allocator<char> >
PUBLIC	??0?$basic_string@DU?$char_traits@D@std@@V?$allocator@D@2@@std@@QEAA@_KD@Z ; std::basic_string<char,std::char_traits<char>,std::allocator<char> >::basic_string<char,std::char_traits<char>,std::allocator<char> >
PUBLIC	??0?$basic_string@DU?$char_traits@D@std@@V?$allocator@D@2@@std@@QEAA@$$QEAV01@@Z ; std::basic_string<char,std::char_traits<char>,std::allocator<char> >::basic_string<char,std::char_traits<char>,std::allocator<char> >
PUBLIC	??0?$basic_string@DU?$char_traits@D@std@@V?$allocator@D@2@@std@@QEAA@U_String_constructor_concat_tag@1@AEAV01@1@Z ; std::basic_string<char,std::char_traits<char>,std::allocator<char> >::basic_string<char,std::char_traits<char>,std::allocator<char> >
PUBLIC	??4?$basic_string@DU?$char_traits@D@std@@V?$allocator@D@2@@std@@QEAAAEAV01@$$QEAV01@@Z ; std::basic_string<char,std::char_traits<char>,std::allocator<char> >::operator=
PUBLIC	?assign@?$basic_string@DU?$char_traits@D@std@@V?$allocator@D@2@@std@@QEAAAEAV12@$$QEAV12@@Z ; std::basic_string<char,std::char_traits<char>,std::allocator<char> >::assign
PUBLIC	?_Memcpy_val_from@?$basic_string@DU?$char_traits@D@std@@V?$allocator@D@2@@std@@AEAAXAEBV12@@Z ; std::basic_string<char,std::char_traits<char>,std::allocator<char> >::_Memcpy_val_from
PUBLIC	?_Take_contents@?$basic_string@DU?$char_traits@D@std@@V?$allocator@D@2@@std@@AEAAXAEAV12@@Z ; std::basic_string<char,std::char_traits<char>,std::allocator<char> >::_Take_contents
PUBLIC	??1?$basic_string@DU?$char_traits@D@std@@V?$allocator@D@2@@std@@QEAA@XZ ; std::basic_string<char,std::char_traits<char>,std::allocator<char> >::~basic_string<char,std::char_traits<char>,std::allocator<char> >
PUBLIC	??4?$basic_string@DU?$char_traits@D@std@@V?$allocator@D@2@@std@@QEAAAEAV01@AEBV01@@Z ; std::basic_string<char,std::char_traits<char>,std::allocator<char> >::operator=
PUBLIC	??Y?$basic_string@DU?$char_traits@D@std@@V?$allocator@D@2@@std@@QEAAAEAV01@AEBV01@@Z ; std::basic_string<char,std::char_traits<char>,std::allocator<char> >::operator+=
PUBLIC	?append@?$basic_string@DU?$char_traits@D@std@@V?$allocator@D@2@@std@@QEAAAEAV12@AEBV12@@Z ; std::basic_string<char,std::char_traits<char>,std::allocator<char> >::append
PUBLIC	?append@?$basic_string@DU?$char_traits@D@std@@V?$allocator@D@2@@std@@QEAAAEAV12@QEBD_K@Z ; std::basic_string<char,std::char_traits<char>,std::allocator<char> >::append
PUBLIC	?append@?$basic_string@DU?$char_traits@D@std@@V?$allocator@D@2@@std@@QEAAAEAV12@QEBD@Z ; std::basic_string<char,std::char_traits<char>,std::allocator<char> >::append
PUBLIC	?append@?$basic_string@DU?$char_traits@D@std@@V?$allocator@D@2@@std@@QEAAAEAV12@_KD@Z ; std::basic_string<char,std::char_traits<char>,std::allocator<char> >::append
PUBLIC	?assign@?$basic_string@DU?$char_traits@D@std@@V?$allocator@D@2@@std@@QEAAAEAV12@QEBD_K@Z ; std::basic_string<char,std::char_traits<char>,std::allocator<char> >::assign
PUBLIC	?insert@?$basic_string@DU?$char_traits@D@std@@V?$allocator@D@2@@std@@QEAAAEAV12@_KQEBD0@Z ; std::basic_string<char,std::char_traits<char>,std::allocator<char> >::insert
PUBLIC	?insert@?$basic_string@DU?$char_traits@D@std@@V?$allocator@D@2@@std@@QEAAAEAV12@_KQEBD@Z ; std::basic_string<char,std::char_traits<char>,std::allocator<char> >::insert
PUBLIC	?insert@?$basic_string@DU?$char_traits@D@std@@V?$allocator@D@2@@std@@QEAAAEAV12@_K0D@Z ; std::basic_string<char,std::char_traits<char>,std::allocator<char> >::insert
PUBLIC	??A?$basic_string@DU?$char_traits@D@std@@V?$allocator@D@2@@std@@QEAAAEAD_K@Z ; std::basic_string<char,std::char_traits<char>,std::allocator<char> >::operator[]
PUBLIC	??A?$basic_string@DU?$char_traits@D@std@@V?$allocator@D@2@@std@@QEBAAEBD_K@Z ; std::basic_string<char,std::char_traits<char>,std::allocator<char> >::operator[]
PUBLIC	?c_str@?$basic_string@DU?$char_traits@D@std@@V?$allocator@D@2@@std@@QEBAPEBDXZ ; std::basic_string<char,std::char_traits<char>,std::allocator<char> >::c_str
PUBLIC	?data@?$basic_string@DU?$char_traits@D@std@@V?$allocator@D@2@@std@@QEBAPEBDXZ ; std::basic_string<char,std::char_traits<char>,std::allocator<char> >::data
PUBLIC	?size@?$basic_string@DU?$char_traits@D@std@@V?$allocator@D@2@@std@@QEBA_KXZ ; std::basic_string<char,std::char_traits<char>,std::allocator<char> >::size
PUBLIC	?max_size@?$basic_string@DU?$char_traits@D@std@@V?$allocator@D@2@@std@@QEBA_KXZ ; std::basic_string<char,std::char_traits<char>,std::allocator<char> >::max_size
PUBLIC	?resize@?$basic_string@DU?$char_traits@D@std@@V?$allocator@D@2@@std@@QEAAX_KD@Z ; std::basic_string<char,std::char_traits<char>,std::allocator<char> >::resize
PUBLIC	?empty@?$basic_string@DU?$char_traits@D@std@@V?$allocator@D@2@@std@@QEBA_NXZ ; std::basic_string<char,std::char_traits<char>,std::allocator<char> >::empty
PUBLIC	?substr@?$basic_string@DU?$char_traits@D@std@@V?$allocator@D@2@@std@@QEBA?AV12@_K0@Z ; std::basic_string<char,std::char_traits<char>,std::allocator<char> >::substr
PUBLIC	?get_allocator@?$basic_string@DU?$char_traits@D@std@@V?$allocator@D@2@@std@@QEBA?AV?$allocator@D@2@XZ ; std::basic_string<char,std::char_traits<char>,std::allocator<char> >::get_allocator
PUBLIC	?_Calculate_growth@?$basic_string@DU?$char_traits@D@std@@V?$allocator@D@2@@std@@CA_K_K00@Z ; std::basic_string<char,std::char_traits<char>,std::allocator<char> >::_Calculate_growth
PUBLIC	?_Calculate_growth@?$basic_string@DU?$char_traits@D@std@@V?$allocator@D@2@@std@@AEBA_K_K@Z ; std::basic_string<char,std::char_traits<char>,std::allocator<char> >::_Calculate_growth
PUBLIC	?_Eos@?$basic_string@DU?$char_traits@D@std@@V?$allocator@D@2@@std@@AEAAX_K@Z ; std::basic_string<char,std::char_traits<char>,std::allocator<char> >::_Eos
PUBLIC	?_Tidy_init@?$basic_string@DU?$char_traits@D@std@@V?$allocator@D@2@@std@@AEAAXXZ ; std::basic_string<char,std::char_traits<char>,std::allocator<char> >::_Tidy_init
PUBLIC	?_Tidy_deallocate@?$basic_string@DU?$char_traits@D@std@@V?$allocator@D@2@@std@@AEAAXXZ ; std::basic_string<char,std::char_traits<char>,std::allocator<char> >::_Tidy_deallocate
PUBLIC	?_Swap_proxy_and_iterators@?$basic_string@DU?$char_traits@D@std@@V?$allocator@D@2@@std@@AEAAXAEAV12@@Z ; std::basic_string<char,std::char_traits<char>,std::allocator<char> >::_Swap_proxy_and_iterators
PUBLIC	?_Getal@?$basic_string@DU?$char_traits@D@std@@V?$allocator@D@2@@std@@AEAAAEAV?$allocator@D@2@XZ ; std::basic_string<char,std::char_traits<char>,std::allocator<char> >::_Getal
PUBLIC	?_Getal@?$basic_string@DU?$char_traits@D@std@@V?$allocator@D@2@@std@@AEBAAEBV?$allocator@D@2@XZ ; std::basic_string<char,std::char_traits<char>,std::allocator<char> >::_Getal
PUBLIC	?_Get_first@?$_Compressed_pair@V?$allocator@D@std@@V?$_String_val@U?$_Simple_types@D@std@@@2@$00@std@@QEAAAEAV?$allocator@D@2@XZ ; std::_Compressed_pair<std::allocator<char>,std::_String_val<std::_Simple_types<char> >,1>::_Get_first
PUBLIC	?_Get_first@?$_Compressed_pair@V?$allocator@D@std@@V?$_String_val@U?$_Simple_types@D@std@@@2@$00@std@@QEBAAEBV?$allocator@D@2@XZ ; std::_Compressed_pair<std::allocator<char>,std::_String_val<std::_Simple_types<char> >,1>::_Get_first
PUBLIC	??1?$_Compressed_pair@V?$allocator@D@std@@V?$_String_val@U?$_Simple_types@D@std@@@2@$00@std@@QEAA@XZ ; std::_Compressed_pair<std::allocator<char>,std::_String_val<std::_Simple_types<char> >,1>::~_Compressed_pair<std::allocator<char>,std::_String_val<std::_Simple_types<char> >,1>
PUBLIC	??_G?$basic_string@DU?$char_traits@D@std@@V?$allocator@D@2@@std@@QEAAPEAXI@Z ; std::basic_string<char,std::char_traits<char>,std::allocator<char> >::`scalar deleting destructor'
PUBLIC	??0runtime_error@std@@QEAA@AEBV?$basic_string@DU?$char_traits@D@std@@V?$allocator@D@2@@1@@Z ; std::runtime_error::runtime_error
PUBLIC	??0runtime_error@std@@QEAA@PEBD@Z		; std::runtime_error::runtime_error
PUBLIC	??1runtime_error@std@@UEAA@XZ			; std::runtime_error::~runtime_error
PUBLIC	??0runtime_error@std@@QEAA@AEBV01@@Z		; std::runtime_error::runtime_error
PUBLIC	??_Gruntime_error@std@@UEAAPEAXI@Z		; std::runtime_error::`scalar deleting destructor'
PUBLIC	?make_error_code@std@@YA?AVerror_code@1@W4io_errc@1@@Z ; std::make_error_code
PUBLIC	?iostream_category@std@@YAAEBVerror_category@1@XZ ; std::iostream_category
PUBLIC	??1error_category@std@@UEAA@XZ			; std::error_category::~error_category
PUBLIC	?default_error_condition@error_category@std@@UEBA?AVerror_condition@2@H@Z ; std::error_category::default_error_condition
PUBLIC	?equivalent@error_category@std@@UEBA_NHAEBVerror_condition@2@@Z ; std::error_category::equivalent
PUBLIC	?equivalent@error_category@std@@UEBA_NAEBVerror_code@2@H@Z ; std::error_category::equivalent
PUBLIC	??8error_category@std@@QEBA_NAEBV01@@Z		; std::error_category::operator==
PUBLIC	??0error_code@std@@QEAA@HAEBVerror_category@1@@Z ; std::error_code::error_code
PUBLIC	?value@error_code@std@@QEBAHXZ			; std::error_code::value
PUBLIC	?category@error_code@std@@QEBAAEBVerror_category@2@XZ ; std::error_code::category
PUBLIC	?message@error_code@std@@QEBA?AV?$basic_string@DU?$char_traits@D@std@@V?$allocator@D@2@@2@XZ ; std::error_code::message
PUBLIC	??0error_condition@std@@QEAA@HAEBVerror_category@1@@Z ; std::error_condition::error_condition
PUBLIC	?value@error_condition@std@@QEBAHXZ		; std::error_condition::value
PUBLIC	?category@error_condition@std@@QEBAAEBVerror_category@2@XZ ; std::error_condition::category
PUBLIC	??8std@@YA_NAEBVerror_condition@0@0@Z		; std::operator==
PUBLIC	?_Makestr@_System_error@std@@CA?AV?$basic_string@DU?$char_traits@D@std@@V?$allocator@D@2@@2@Verror_code@2@V32@@Z ; std::_System_error::_Makestr
PUBLIC	??0_System_error@std@@IEAA@Verror_code@1@AEBV?$basic_string@DU?$char_traits@D@std@@V?$allocator@D@2@@1@@Z ; std::_System_error::_System_error
PUBLIC	??1_System_error@std@@UEAA@XZ			; std::_System_error::~_System_error
PUBLIC	??0_System_error@std@@QEAA@AEBV01@@Z		; std::_System_error::_System_error
PUBLIC	??_G_System_error@std@@UEAAPEAXI@Z		; std::_System_error::`scalar deleting destructor'
PUBLIC	??0system_error@std@@QEAA@Verror_code@1@PEBD@Z	; std::system_error::system_error
PUBLIC	??1system_error@std@@UEAA@XZ			; std::system_error::~system_error
PUBLIC	??0system_error@std@@QEAA@AEBV01@@Z		; std::system_error::system_error
PUBLIC	??_Gsystem_error@std@@UEAAPEAXI@Z		; std::system_error::`scalar deleting destructor'
PUBLIC	?name@_Iostream_error_category2@std@@UEBAPEBDXZ	; std::_Iostream_error_category2::name
PUBLIC	?message@_Iostream_error_category2@std@@UEBA?AV?$basic_string@DU?$char_traits@D@std@@V?$allocator@D@2@@2@H@Z ; std::_Iostream_error_category2::message
PUBLIC	??1_Iostream_error_category2@std@@UEAA@XZ	; std::_Iostream_error_category2::~_Iostream_error_category2
PUBLIC	??_G_Iostream_error_category2@std@@UEAAPEAXI@Z	; std::_Iostream_error_category2::`scalar deleting destructor'
PUBLIC	??$_Immortalize_memcpy_image@V_Iostream_error_category2@std@@@std@@YAAEBV_Iostream_error_category2@0@XZ ; std::_Immortalize_memcpy_image<std::_Iostream_error_category2>
PUBLIC	??0bad_cast@std@@QEAA@XZ			; std::bad_cast::bad_cast
PUBLIC	??1bad_cast@std@@UEAA@XZ			; std::bad_cast::~bad_cast
PUBLIC	??0bad_cast@std@@QEAA@AEBV01@@Z			; std::bad_cast::bad_cast
PUBLIC	??_Gbad_cast@std@@UEAAPEAXI@Z			; std::bad_cast::`scalar deleting destructor'
PUBLIC	?_Throw_bad_cast@std@@YAXXZ			; std::_Throw_bad_cast
PUBLIC	??1_Facet_base@std@@UEAA@XZ			; std::_Facet_base::~_Facet_base
PUBLIC	??0_Facet_base@std@@QEAA@XZ			; std::_Facet_base::_Facet_base
PUBLIC	??_G_Facet_base@std@@UEAAPEAXI@Z		; std::_Facet_base::`scalar deleting destructor'
PUBLIC	??0_Locinfo@std@@QEAA@PEBD@Z			; std::_Locinfo::_Locinfo
PUBLIC	??1_Locinfo@std@@QEAA@XZ			; std::_Locinfo::~_Locinfo
PUBLIC	?_Getctype@_Locinfo@std@@QEBA?AU_Ctypevec@@XZ	; std::_Locinfo::_Getctype
PUBLIC	?_Getcvt@_Locinfo@std@@QEBA?AU_Cvtvec@@XZ	; std::_Locinfo::_Getcvt
PUBLIC	?_Getlconv@_Locinfo@std@@QEBAPEBUlconv@@XZ	; std::_Locinfo::_Getlconv
PUBLIC	?_Getfalse@_Locinfo@std@@QEBAPEBDXZ		; std::_Locinfo::_Getfalse
PUBLIC	?_Gettrue@_Locinfo@std@@QEBAPEBDXZ		; std::_Locinfo::_Gettrue
PUBLIC	??0?$_Yarn@D@std@@QEAA@XZ			; std::_Yarn<char>::_Yarn<char>
PUBLIC	??1?$_Yarn@D@std@@QEAA@XZ			; std::_Yarn<char>::~_Yarn<char>
PUBLIC	?c_str@?$_Yarn@D@std@@QEBAPEBDXZ		; std::_Yarn<char>::c_str
PUBLIC	?_Tidy@?$_Yarn@D@std@@AEAAXXZ			; std::_Yarn<char>::_Tidy
PUBLIC	??0?$_Yarn@_W@std@@QEAA@XZ			; std::_Yarn<wchar_t>::_Yarn<wchar_t>
PUBLIC	??1?$_Yarn@_W@std@@QEAA@XZ			; std::_Yarn<wchar_t>::~_Yarn<wchar_t>
PUBLIC	?_Tidy@?$_Yarn@_W@std@@AEAAXXZ			; std::_Yarn<wchar_t>::_Tidy
PUBLIC	??0id@locale@std@@QEAA@_K@Z			; std::locale::id::id
PUBLIC	??Bid@locale@std@@QEAA_KXZ			; std::locale::id::operator unsigned __int64
PUBLIC	?_Incref@facet@locale@std@@UEAAXXZ		; std::locale::facet::_Incref
PUBLIC	?_Decref@facet@locale@std@@UEAAPEAV_Facet_base@3@XZ ; std::locale::facet::_Decref
PUBLIC	??0facet@locale@std@@IEAA@_K@Z			; std::locale::facet::facet
PUBLIC	??1facet@locale@std@@MEAA@XZ			; std::locale::facet::~facet
PUBLIC	??_Gfacet@locale@std@@MEAAPEAXI@Z		; std::locale::facet::`scalar deleting destructor'
PUBLIC	??0locale@std@@QEAA@AEBV01@@Z			; std::locale::locale
PUBLIC	??1locale@std@@QEAA@XZ				; std::locale::~locale
PUBLIC	?c_str@locale@std@@QEBAPEBDXZ			; std::locale::c_str
PUBLIC	?_Getfacet@locale@std@@QEBAPEBVfacet@12@_K@Z	; std::locale::_Getfacet
PUBLIC	??$_Adl_verify_range@PEBDPEBD@std@@YAXAEBQEBD0@Z ; std::_Adl_verify_range<char const *,char const *>
PUBLIC	??$_Adl_verify_range@PEADPEAD@std@@YAXAEBQEAD0@Z ; std::_Adl_verify_range<char *,char *>
PUBLIC	??0ctype_base@std@@QEAA@_K@Z			; std::ctype_base::ctype_base
PUBLIC	??1ctype_base@std@@UEAA@XZ			; std::ctype_base::~ctype_base
PUBLIC	??_Gctype_base@std@@UEAAPEAXI@Z			; std::ctype_base::`scalar deleting destructor'
PUBLIC	?widen@?$ctype@D@std@@QEBAPEBDPEBD0PEAD@Z	; std::ctype<char>::widen
PUBLIC	??0?$ctype@D@std@@QEAA@AEBV_Locinfo@1@_K@Z	; std::ctype<char>::ctype<char>
PUBLIC	?_Getcat@?$ctype@D@std@@SA_KPEAPEBVfacet@locale@2@PEBV42@@Z ; std::ctype<char>::_Getcat
PUBLIC	??1?$ctype@D@std@@MEAA@XZ			; std::ctype<char>::~ctype<char>
PUBLIC	?_Init@?$ctype@D@std@@IEAAXAEBV_Locinfo@2@@Z	; std::ctype<char>::_Init
PUBLIC	?_Tidy@?$ctype@D@std@@IEAAXXZ			; std::ctype<char>::_Tidy
PUBLIC	?do_tolower@?$ctype@D@std@@MEBADD@Z		; std::ctype<char>::do_tolower
PUBLIC	?do_tolower@?$ctype@D@std@@MEBAPEBDPEADPEBD@Z	; std::ctype<char>::do_tolower
PUBLIC	?do_toupper@?$ctype@D@std@@MEBADD@Z		; std::ctype<char>::do_toupper
PUBLIC	?do_toupper@?$ctype@D@std@@MEBAPEBDPEADPEBD@Z	; std::ctype<char>::do_toupper
PUBLIC	?do_widen@?$ctype@D@std@@MEBADD@Z		; std::ctype<char>::do_widen
PUBLIC	?do_widen@?$ctype@D@std@@MEBAPEBDPEBD0PEAD@Z	; std::ctype<char>::do_widen
PUBLIC	?do_narrow@?$ctype@D@std@@MEBADDD@Z		; std::ctype<char>::do_narrow
PUBLIC	?do_narrow@?$ctype@D@std@@MEBAPEBDPEBD0DPEAD@Z	; std::ctype<char>::do_narrow
PUBLIC	??_G?$ctype@D@std@@MEAAPEAXI@Z			; std::ctype<char>::`scalar deleting destructor'
PUBLIC	??$use_facet@V?$ctype@D@std@@@std@@YAAEBV?$ctype@D@0@AEBVlocale@0@@Z ; std::use_facet<std::ctype<char> >
PUBLIC	??$_Adl_verify_range@PEADPEBD@std@@YAXAEBQEADAEBQEBD@Z ; std::_Adl_verify_range<char *,char const *>
PUBLIC	??0failure@ios_base@std@@QEAA@PEBDAEBVerror_code@2@@Z ; std::ios_base::failure::failure
PUBLIC	??1failure@ios_base@std@@UEAA@XZ		; std::ios_base::failure::~failure
PUBLIC	??0failure@ios_base@std@@QEAA@AEBV012@@Z	; std::ios_base::failure::failure
PUBLIC	??_Gfailure@ios_base@std@@UEAAPEAXI@Z		; std::ios_base::failure::`scalar deleting destructor'
PUBLIC	?clear@ios_base@std@@QEAAXH_N@Z			; std::ios_base::clear
PUBLIC	?rdstate@ios_base@std@@QEBAHXZ			; std::ios_base::rdstate
PUBLIC	?good@ios_base@std@@QEBA_NXZ			; std::ios_base::good
PUBLIC	?flags@ios_base@std@@QEBAHXZ			; std::ios_base::flags
PUBLIC	?precision@ios_base@std@@QEBA_JXZ		; std::ios_base::precision
PUBLIC	?width@ios_base@std@@QEBA_JXZ			; std::ios_base::width
PUBLIC	?width@ios_base@std@@QEAA_J_J@Z			; std::ios_base::width
PUBLIC	?getloc@ios_base@std@@QEBA?AVlocale@2@XZ	; std::ios_base::getloc
PUBLIC	?to_string@std@@YA?AV?$basic_string@DU?$char_traits@D@std@@V?$allocator@D@2@@1@H@Z ; std::to_string
PUBLIC	??$_Integral_to_string@DH@std@@YA?AV?$basic_string@DU?$char_traits@D@std@@V?$allocator@D@2@@0@H@Z ; std::_Integral_to_string<char,int>
PUBLIC	?to_string@std@@YA?AV?$basic_string@DU?$char_traits@D@std@@V?$allocator@D@2@@1@K@Z ; std::to_string
PUBLIC	??$_UIntegral_to_string@DK@std@@YA?AV?$basic_string@DU?$char_traits@D@std@@V?$allocator@D@2@@0@K@Z ; std::_UIntegral_to_string<char,unsigned long>
PUBLIC	?to_string@std@@YA?AV?$basic_string@DU?$char_traits@D@std@@V?$allocator@D@2@@1@_K@Z ; std::to_string
PUBLIC	??$_UIntegral_to_string@D_K@std@@YA?AV?$basic_string@DU?$char_traits@D@std@@V?$allocator@D@2@@0@_K@Z ; std::_UIntegral_to_string<char,unsigned __int64>
PUBLIC	?to_string@std@@YA?AV?$basic_string@DU?$char_traits@D@std@@V?$allocator@D@2@@1@N@Z ; std::to_string
PUBLIC	?_Floor_of_log_2@std@@YAK_K@Z			; std::_Floor_of_log_2
PUBLIC	?_Ceiling_of_log_2@std@@YAK_K@Z			; std::_Ceiling_of_log_2
PUBLIC	??$print@V?$basic_string@DU?$char_traits@D@std@@V?$allocator@D@2@@std@@@fan@@YAXAEBV?$basic_string@DU?$char_traits@D@std@@V?$allocator@D@2@@std@@@Z ; fan::print<std::basic_string<char,std::char_traits<char>,std::allocator<char> > >
PUBLIC	WinMain
PUBLIC	??$max@_K@std@@YAAEB_KAEB_K0@Z			; std::max<unsigned __int64>
PUBLIC	??$forward@_N@std@@YA$$QEA_NAEA_N@Z		; std::forward<bool>
PUBLIC	??$move@AEAV?$basic_string@DU?$char_traits@D@std@@V?$allocator@D@2@@std@@@std@@YA$$QEAV?$basic_string@DU?$char_traits@D@std@@V?$allocator@D@2@@0@AEAV10@@Z ; std::move<std::basic_string<char,std::char_traits<char>,std::allocator<char> > &>
PUBLIC	??$?HDU?$char_traits@D@std@@V?$allocator@D@1@@std@@YA?AV?$basic_string@DU?$char_traits@D@std@@V?$allocator@D@2@@0@$$QEAV10@QEBD@Z ; std::operator+<char,std::char_traits<char>,std::allocator<char> >
PUBLIC	??$?HDU?$char_traits@D@std@@V?$allocator@D@1@@std@@YA?AV?$basic_string@DU?$char_traits@D@std@@V?$allocator@D@2@@0@$$QEAV10@0@Z ; std::operator+<char,std::char_traits<char>,std::allocator<char> >
PUBLIC	?clear@?$basic_ios@DU?$char_traits@D@std@@@std@@QEAAXH_N@Z ; std::basic_ios<char,std::char_traits<char> >::clear
PUBLIC	?setstate@?$basic_ios@DU?$char_traits@D@std@@@std@@QEAAXH_N@Z ; std::basic_ios<char,std::char_traits<char> >::setstate
PUBLIC	?tie@?$basic_ios@DU?$char_traits@D@std@@@std@@QEBAPEAV?$basic_ostream@DU?$char_traits@D@std@@@2@XZ ; std::basic_ios<char,std::char_traits<char> >::tie
PUBLIC	?rdbuf@?$basic_ios@DU?$char_traits@D@std@@@std@@QEBAPEAV?$basic_streambuf@DU?$char_traits@D@std@@@2@XZ ; std::basic_ios<char,std::char_traits<char> >::rdbuf
PUBLIC	?fill@?$basic_ios@DU?$char_traits@D@std@@@std@@QEBADXZ ; std::basic_ios<char,std::char_traits<char> >::fill
PUBLIC	?pubsync@?$basic_streambuf@DU?$char_traits@D@std@@@std@@QEAAHXZ ; std::basic_streambuf<char,std::char_traits<char> >::pubsync
PUBLIC	?sputc@?$basic_streambuf@DU?$char_traits@D@std@@@std@@QEAAHD@Z ; std::basic_streambuf<char,std::char_traits<char> >::sputc
PUBLIC	?sputn@?$basic_streambuf@DU?$char_traits@D@std@@@std@@QEAA_JPEBD_J@Z ; std::basic_streambuf<char,std::char_traits<char> >::sputn
PUBLIC	?_Pninc@?$basic_streambuf@DU?$char_traits@D@std@@@std@@IEAAPEADXZ ; std::basic_streambuf<char,std::char_traits<char> >::_Pninc
PUBLIC	?_Pnavail@?$basic_streambuf@DU?$char_traits@D@std@@@std@@IEBA_JXZ ; std::basic_streambuf<char,std::char_traits<char> >::_Pnavail
PUBLIC	?_Osfx@?$basic_ostream@DU?$char_traits@D@std@@@std@@QEAAXXZ ; std::basic_ostream<char,std::char_traits<char> >::_Osfx
PUBLIC	??6?$basic_ostream@DU?$char_traits@D@std@@@std@@QEAAAEAV01@K@Z ; std::basic_ostream<char,std::char_traits<char> >::operator<<
PUBLIC	?flush@?$basic_ostream@DU?$char_traits@D@std@@@std@@QEAAAEAV12@XZ ; std::basic_ostream<char,std::char_traits<char> >::flush
PUBLIC	??$?6DU?$char_traits@D@std@@V?$allocator@D@1@@std@@YAAEAV?$basic_ostream@DU?$char_traits@D@std@@@0@AEAV10@AEBV?$basic_string@DU?$char_traits@D@std@@V?$allocator@D@2@@0@@Z ; std::operator<<<char,std::char_traits<char>,std::allocator<char> >
PUBLIC	??$?HDU?$char_traits@D@std@@V?$allocator@D@1@@std@@YA?AV?$basic_string@DU?$char_traits@D@std@@V?$allocator@D@2@@0@QEBD$$QEAV10@@Z ; std::operator+<char,std::char_traits<char>,std::allocator<char> >
PUBLIC	??0?$_vec2@H@fan@@QEAA@H@Z			; fan::_vec2<int>::_vec2<int>
PUBLIC	??0?$_vec2@H@fan@@QEAA@HH@Z			; fan::_vec2<int>::_vec2<int>
PUBLIC	??8?$_vec2@H@fan@@QEBA_NH@Z			; fan::_vec2<int>::operator==
PUBLIC	??1any@std@@QEAA@XZ				; std::any::~any
PUBLIC	?reset@any@std@@QEAAXXZ				; std::any::reset
PUBLIC	?_Rep@any@std@@AEBA?AW4_Any_representation@2@XZ	; std::any::_Rep
PUBLIC	??R?$_Conditionally_enabled_hash@G$00@std@@QEBA_KAEBG@Z ; std::_Conditionally_enabled_hash<unsigned short,1>::operator()
PUBLIC	?_Do_hash@?$hash@G@std@@SA_KAEBG@Z		; std::hash<unsigned short>::_Do_hash
PUBLIC	??0?$_Uhash_compare@GU?$hash@G@std@@U?$equal_to@G@2@@std@@QEAA@XZ ; std::_Uhash_compare<unsigned short,std::hash<unsigned short>,std::equal_to<unsigned short> >::_Uhash_compare<unsigned short,std::hash<unsigned short>,std::equal_to<unsigned short> >
PUBLIC	?_Get_max_bucket_size@?$_Uhash_compare@GU?$hash@G@std@@U?$equal_to@G@2@@std@@QEAAAEAMXZ ; std::_Uhash_compare<unsigned short,std::hash<unsigned short>,std::equal_to<unsigned short> >::_Get_max_bucket_size
PUBLIC	?_Get_max_bucket_size@?$_Uhash_compare@GU?$hash@G@std@@U?$equal_to@G@2@@std@@QEBAAEBMXZ ; std::_Uhash_compare<unsigned short,std::hash<unsigned short>,std::equal_to<unsigned short> >::_Get_max_bucket_size
PUBLIC	??R?$equal_to@G@std@@QEBA_NAEBG0@Z		; std::equal_to<unsigned short>::operator()
PUBLIC	?_Get_first@?$_Compressed_pair@U?$equal_to@G@std@@M$00@std@@QEBAAEBU?$equal_to@G@2@XZ ; std::_Compressed_pair<std::equal_to<unsigned short>,float,1>::_Get_first
PUBLIC	?_Get_first@?$_Compressed_pair@U?$hash@G@std@@V?$_Compressed_pair@U?$equal_to@G@std@@M$00@2@$00@std@@QEBAAEBU?$hash@G@2@XZ ; std::_Compressed_pair<std::hash<unsigned short>,std::_Compressed_pair<std::equal_to<unsigned short>,float,1>,1>::_Get_first
PUBLIC	??0?$allocator@U?$pair@$$CBG_N@std@@@std@@QEAA@XZ ; std::allocator<std::pair<unsigned short const ,bool> >::allocator<std::pair<unsigned short const ,bool> >
PUBLIC	??0?$_Umap_traits@G_NV?$_Uhash_compare@GU?$hash@G@std@@U?$equal_to@G@2@@std@@V?$allocator@U?$pair@$$CBG_N@std@@@2@$0A@@std@@QEAA@AEBV?$_Uhash_compare@GU?$hash@G@std@@U?$equal_to@G@2@@1@@Z ; std::_Umap_traits<unsigned short,bool,std::_Uhash_compare<unsigned short,std::hash<unsigned short>,std::equal_to<unsigned short> >,std::allocator<std::pair<unsigned short const ,bool> >,0>::_Umap_traits<unsigned short,bool,std::_Uhash_compare<unsigned short,std::hash<unsigned short>,std::equal_to<unsigned short> >,std::allocator<std::pair<unsigned short const ,bool> >,0>
PUBLIC	?deallocate@?$allocator@U?$_List_node@U?$pair@$$CBG_N@std@@PEAX@std@@@std@@QEAAXQEAU?$_List_node@U?$pair@$$CBG_N@std@@PEAX@2@_K@Z ; std::allocator<std::_List_node<std::pair<unsigned short const ,bool>,void *> >::deallocate
PUBLIC	?allocate@?$allocator@U?$_List_node@U?$pair@$$CBG_N@std@@PEAX@std@@@std@@QEAAPEAU?$_List_node@U?$pair@$$CBG_N@std@@PEAX@2@_K@Z ; std::allocator<std::_List_node<std::pair<unsigned short const ,bool>,void *> >::allocate
PUBLIC	?deallocate@?$_Default_allocator_traits@V?$allocator@U?$_List_node@U?$pair@$$CBG_N@std@@PEAX@std@@@std@@@std@@SAXAEAV?$allocator@U?$_List_node@U?$pair@$$CBG_N@std@@PEAX@std@@@2@QEAU?$_List_node@U?$pair@$$CBG_N@std@@PEAX@2@_K@Z ; std::_Default_allocator_traits<std::allocator<std::_List_node<std::pair<unsigned short const ,bool>,void *> > >::deallocate
PUBLIC	?max_size@?$_Default_allocator_traits@V?$allocator@U?$_List_node@U?$pair@$$CBG_N@std@@PEAX@std@@@std@@@std@@SA_KAEBV?$allocator@U?$_List_node@U?$pair@$$CBG_N@std@@PEAX@std@@@2@@Z ; std::_Default_allocator_traits<std::allocator<std::_List_node<std::pair<unsigned short const ,bool>,void *> > >::max_size
PUBLIC	??0?$list@U?$pair@$$CBG_N@std@@V?$allocator@U?$pair@$$CBG_N@std@@@2@@std@@QEAA@AEBV?$allocator@U?$pair@$$CBG_N@std@@@1@@Z ; std::list<std::pair<unsigned short const ,bool>,std::allocator<std::pair<unsigned short const ,bool> > >::list<std::pair<unsigned short const ,bool>,std::allocator<std::pair<unsigned short const ,bool> > >
PUBLIC	??1?$list@U?$pair@$$CBG_N@std@@V?$allocator@U?$pair@$$CBG_N@std@@@2@@std@@QEAA@XZ ; std::list<std::pair<unsigned short const ,bool>,std::allocator<std::pair<unsigned short const ,bool> > >::~list<std::pair<unsigned short const ,bool>,std::allocator<std::pair<unsigned short const ,bool> > >
PUBLIC	?_Unchecked_begin@?$list@U?$pair@$$CBG_N@std@@V?$allocator@U?$pair@$$CBG_N@std@@@2@@std@@QEAA?AV?$_List_unchecked_iterator@V?$_List_val@U?$_List_simple_types@U?$pair@$$CBG_N@std@@@std@@@std@@@2@XZ ; std::list<std::pair<unsigned short const ,bool>,std::allocator<std::pair<unsigned short const ,bool> > >::_Unchecked_begin
PUBLIC	?_Unchecked_end@?$list@U?$pair@$$CBG_N@std@@V?$allocator@U?$pair@$$CBG_N@std@@@2@@std@@QEAA?AV?$_List_unchecked_iterator@V?$_List_val@U?$_List_simple_types@U?$pair@$$CBG_N@std@@@std@@@std@@@2@XZ ; std::list<std::pair<unsigned short const ,bool>,std::allocator<std::pair<unsigned short const ,bool> > >::_Unchecked_end
PUBLIC	?max_size@?$list@U?$pair@$$CBG_N@std@@V?$allocator@U?$pair@$$CBG_N@std@@@2@@std@@QEBA_KXZ ; std::list<std::pair<unsigned short const ,bool>,std::allocator<std::pair<unsigned short const ,bool> > >::max_size
PUBLIC	?clear@?$list@U?$pair@$$CBG_N@std@@V?$allocator@U?$pair@$$CBG_N@std@@@2@@std@@QEAAXXZ ; std::list<std::pair<unsigned short const ,bool>,std::allocator<std::pair<unsigned short const ,bool> > >::clear
PUBLIC	?_Tidy@?$list@U?$pair@$$CBG_N@std@@V?$allocator@U?$pair@$$CBG_N@std@@@2@@std@@AEAAXXZ ; std::list<std::pair<unsigned short const ,bool>,std::allocator<std::pair<unsigned short const ,bool> > >::_Tidy
PUBLIC	?_Alloc_sentinel_and_proxy@?$list@U?$pair@$$CBG_N@std@@V?$allocator@U?$pair@$$CBG_N@std@@@2@@std@@AEAAXXZ ; std::list<std::pair<unsigned short const ,bool>,std::allocator<std::pair<unsigned short const ,bool> > >::_Alloc_sentinel_and_proxy
PUBLIC	?_Getal@?$list@U?$pair@$$CBG_N@std@@V?$allocator@U?$pair@$$CBG_N@std@@@2@@std@@AEAAAEAV?$allocator@U?$_List_node@U?$pair@$$CBG_N@std@@PEAX@std@@@2@XZ ; std::list<std::pair<unsigned short const ,bool>,std::allocator<std::pair<unsigned short const ,bool> > >::_Getal
PUBLIC	?_Getal@?$list@U?$pair@$$CBG_N@std@@V?$allocator@U?$pair@$$CBG_N@std@@@2@@std@@AEBAAEBV?$allocator@U?$_List_node@U?$pair@$$CBG_N@std@@PEAX@std@@@2@XZ ; std::list<std::pair<unsigned short const ,bool>,std::allocator<std::pair<unsigned short const ,bool> > >::_Getal
PUBLIC	??0?$_List_val@U?$_List_simple_types@U?$pair@$$CBG_N@std@@@std@@@std@@QEAA@XZ ; std::_List_val<std::_List_simple_types<std::pair<unsigned short const ,bool> > >::_List_val<std::_List_simple_types<std::pair<unsigned short const ,bool> > >
PUBLIC	?_Orphan_non_end@?$_List_val@U?$_List_simple_types@U?$pair@$$CBG_N@std@@@std@@@std@@QEAAXXZ ; std::_List_val<std::_List_simple_types<std::pair<unsigned short const ,bool> > >::_Orphan_non_end
PUBLIC	?_Unchecked_splice@?$_List_val@U?$_List_simple_types@U?$pair@$$CBG_N@std@@@std@@@std@@SAPEAU?$_List_node@U?$pair@$$CBG_N@std@@PEAX@2@QEAU32@00@Z ; std::_List_val<std::_List_simple_types<std::pair<unsigned short const ,bool> > >::_Unchecked_splice
PUBLIC	?_Get_first@?$_Compressed_pair@V?$allocator@U?$_List_node@U?$pair@$$CBG_N@std@@PEAX@std@@@std@@V?$_List_val@U?$_List_simple_types@U?$pair@$$CBG_N@std@@@std@@@2@$00@std@@QEAAAEAV?$allocator@U?$_List_node@U?$pair@$$CBG_N@std@@PEAX@std@@@2@XZ ; std::_Compressed_pair<std::allocator<std::_List_node<std::pair<unsigned short const ,bool>,void *> >,std::_List_val<std::_List_simple_types<std::pair<unsigned short const ,bool> > >,1>::_Get_first
PUBLIC	?_Get_first@?$_Compressed_pair@V?$allocator@U?$_List_node@U?$pair@$$CBG_N@std@@PEAX@std@@@std@@V?$_List_val@U?$_List_simple_types@U?$pair@$$CBG_N@std@@@std@@@2@$00@std@@QEBAAEBV?$allocator@U?$_List_node@U?$pair@$$CBG_N@std@@PEAX@std@@@2@XZ ; std::_Compressed_pair<std::allocator<std::_List_node<std::pair<unsigned short const ,bool>,void *> >,std::_List_val<std::_List_simple_types<std::pair<unsigned short const ,bool> > >,1>::_Get_first
PUBLIC	??0?$_Hash@V?$_Umap_traits@G_NV?$_Uhash_compare@GU?$hash@G@std@@U?$equal_to@G@2@@std@@V?$allocator@U?$pair@$$CBG_N@std@@@2@$0A@@std@@@std@@IEAA@AEBV?$_Uhash_compare@GU?$hash@G@std@@U?$equal_to@G@2@@1@AEBV?$allocator@U?$pair@$$CBG_N@std@@@1@@Z ; std::_Hash<std::_Umap_traits<unsigned short,bool,std::_Uhash_compare<unsigned short,std::hash<unsigned short>,std::equal_to<unsigned short> >,std::allocator<std::pair<unsigned short const ,bool> >,0> >::_Hash<std::_Umap_traits<unsigned short,bool,std::_Uhash_compare<unsigned short,std::hash<unsigned short>,std::equal_to<unsigned short> >,std::allocator<std::pair<unsigned short const ,bool> >,0> >
PUBLIC	?_Unchecked_begin@?$_Hash@V?$_Umap_traits@G_NV?$_Uhash_compare@GU?$hash@G@std@@U?$equal_to@G@2@@std@@V?$allocator@U?$pair@$$CBG_N@std@@@2@$0A@@std@@@std@@QEAA?AV?$_List_unchecked_iterator@V?$_List_val@U?$_List_simple_types@U?$pair@$$CBG_N@std@@@std@@@std@@@2@XZ ; std::_Hash<std::_Umap_traits<unsigned short,bool,std::_Uhash_compare<unsigned short,std::hash<unsigned short>,std::equal_to<unsigned short> >,std::allocator<std::pair<unsigned short const ,bool> >,0> >::_Unchecked_begin
PUBLIC	?_Unchecked_end@?$_Hash@V?$_Umap_traits@G_NV?$_Uhash_compare@GU?$hash@G@std@@U?$equal_to@G@2@@std@@V?$allocator@U?$pair@$$CBG_N@std@@@2@$0A@@std@@@std@@QEAA?AV?$_List_unchecked_iterator@V?$_List_val@U?$_List_simple_types@U?$pair@$$CBG_N@std@@@std@@@std@@@2@XZ ; std::_Hash<std::_Umap_traits<unsigned short,bool,std::_Uhash_compare<unsigned short,std::hash<unsigned short>,std::equal_to<unsigned short> >,std::allocator<std::pair<unsigned short const ,bool> >,0> >::_Unchecked_end
PUBLIC	?bucket_count@?$_Hash@V?$_Umap_traits@G_NV?$_Uhash_compare@GU?$hash@G@std@@U?$equal_to@G@2@@std@@V?$allocator@U?$pair@$$CBG_N@std@@@2@$0A@@std@@@std@@QEBA_KXZ ; std::_Hash<std::_Umap_traits<unsigned short,bool,std::_Uhash_compare<unsigned short,std::hash<unsigned short>,std::equal_to<unsigned short> >,std::allocator<std::pair<unsigned short const ,bool> >,0> >::bucket_count
PUBLIC	?bucket@?$_Hash@V?$_Umap_traits@G_NV?$_Uhash_compare@GU?$hash@G@std@@U?$equal_to@G@2@@std@@V?$allocator@U?$pair@$$CBG_N@std@@@2@$0A@@std@@@std@@QEBA_KAEBG@Z ; std::_Hash<std::_Umap_traits<unsigned short,bool,std::_Uhash_compare<unsigned short,std::hash<unsigned short>,std::equal_to<unsigned short> >,std::allocator<std::pair<unsigned short const ,bool> >,0> >::bucket
PUBLIC	?max_load_factor@?$_Hash@V?$_Umap_traits@G_NV?$_Uhash_compare@GU?$hash@G@std@@U?$equal_to@G@2@@std@@V?$allocator@U?$pair@$$CBG_N@std@@@2@$0A@@std@@@std@@QEBAMXZ ; std::_Hash<std::_Umap_traits<unsigned short,bool,std::_Uhash_compare<unsigned short,std::hash<unsigned short>,std::equal_to<unsigned short> >,std::allocator<std::pair<unsigned short const ,bool> >,0> >::max_load_factor
PUBLIC	?_Unchecked_erase@?$_Hash@V?$_Umap_traits@G_NV?$_Uhash_compare@GU?$hash@G@std@@U?$equal_to@G@2@@std@@V?$allocator@U?$pair@$$CBG_N@std@@@2@$0A@@std@@@std@@AEAAPEAU?$_List_node@U?$pair@$$CBG_N@std@@PEAX@2@PEAU32@QEAU32@@Z ; std::_Hash<std::_Umap_traits<unsigned short,bool,std::_Uhash_compare<unsigned short,std::hash<unsigned short>,std::equal_to<unsigned short> >,std::allocator<std::pair<unsigned short const ,bool> >,0> >::_Unchecked_erase
PUBLIC	?clear@?$_Hash@V?$_Umap_traits@G_NV?$_Uhash_compare@GU?$hash@G@std@@U?$equal_to@G@2@@std@@V?$allocator@U?$pair@$$CBG_N@std@@@2@$0A@@std@@@std@@QEAAXXZ ; std::_Hash<std::_Umap_traits<unsigned short,bool,std::_Uhash_compare<unsigned short,std::hash<unsigned short>,std::equal_to<unsigned short> >,std::allocator<std::pair<unsigned short const ,bool> >,0> >::clear
PUBLIC	?_Insert_new_node_before@?$_Hash@V?$_Umap_traits@G_NV?$_Uhash_compare@GU?$hash@G@std@@U?$equal_to@G@2@@std@@V?$allocator@U?$pair@$$CBG_N@std@@@2@$0A@@std@@@std@@IEAAPEAU?$_List_node@U?$pair@$$CBG_N@std@@PEAX@2@_KQEAU32@1@Z ; std::_Hash<std::_Umap_traits<unsigned short,bool,std::_Uhash_compare<unsigned short,std::hash<unsigned short>,std::equal_to<unsigned short> >,std::allocator<std::pair<unsigned short const ,bool> >,0> >::_Insert_new_node_before
PUBLIC	?_Check_max_size@?$_Hash@V?$_Umap_traits@G_NV?$_Uhash_compare@GU?$hash@G@std@@U?$equal_to@G@2@@std@@V?$allocator@U?$pair@$$CBG_N@std@@@2@$0A@@std@@@std@@IEBAXXZ ; std::_Hash<std::_Umap_traits<unsigned short,bool,std::_Uhash_compare<unsigned short,std::hash<unsigned short>,std::equal_to<unsigned short> >,std::allocator<std::pair<unsigned short const ,bool> >,0> >::_Check_max_size
PUBLIC	?_Check_rehash_required_1@?$_Hash@V?$_Umap_traits@G_NV?$_Uhash_compare@GU?$hash@G@std@@U?$equal_to@G@2@@std@@V?$allocator@U?$pair@$$CBG_N@std@@@2@$0A@@std@@@std@@IEBA_NXZ ; std::_Hash<std::_Umap_traits<unsigned short,bool,std::_Uhash_compare<unsigned short,std::hash<unsigned short>,std::equal_to<unsigned short> >,std::allocator<std::pair<unsigned short const ,bool> >,0> >::_Check_rehash_required_1
PUBLIC	?_Rehash_for_1@?$_Hash@V?$_Umap_traits@G_NV?$_Uhash_compare@GU?$hash@G@std@@U?$equal_to@G@2@@std@@V?$allocator@U?$pair@$$CBG_N@std@@@2@$0A@@std@@@std@@IEAAXXZ ; std::_Hash<std::_Umap_traits<unsigned short,bool,std::_Uhash_compare<unsigned short,std::hash<unsigned short>,std::equal_to<unsigned short> >,std::allocator<std::pair<unsigned short const ,bool> >,0> >::_Rehash_for_1
PUBLIC	?_Min_load_factor_buckets@?$_Hash@V?$_Umap_traits@G_NV?$_Uhash_compare@GU?$hash@G@std@@U?$equal_to@G@2@@std@@V?$allocator@U?$pair@$$CBG_N@std@@@2@$0A@@std@@@std@@IEBA_K_K@Z ; std::_Hash<std::_Umap_traits<unsigned short,bool,std::_Uhash_compare<unsigned short,std::hash<unsigned short>,std::equal_to<unsigned short> >,std::allocator<std::pair<unsigned short const ,bool> >,0> >::_Min_load_factor_buckets
PUBLIC	?_Desired_grow_bucket_count@?$_Hash@V?$_Umap_traits@G_NV?$_Uhash_compare@GU?$hash@G@std@@U?$equal_to@G@2@@std@@V?$allocator@U?$pair@$$CBG_N@std@@@2@$0A@@std@@@std@@IEBA_K_K@Z ; std::_Hash<std::_Umap_traits<unsigned short,bool,std::_Uhash_compare<unsigned short,std::hash<unsigned short>,std::equal_to<unsigned short> >,std::allocator<std::pair<unsigned short const ,bool> >,0> >::_Desired_grow_bucket_count
PUBLIC	?_Forced_rehash@?$_Hash@V?$_Umap_traits@G_NV?$_Uhash_compare@GU?$hash@G@std@@U?$equal_to@G@2@@std@@V?$allocator@U?$pair@$$CBG_N@std@@@2@$0A@@std@@@std@@IEAAX_K@Z ; std::_Hash<std::_Umap_traits<unsigned short,bool,std::_Uhash_compare<unsigned short,std::hash<unsigned short>,std::equal_to<unsigned short> >,std::allocator<std::pair<unsigned short const ,bool> >,0> >::_Forced_rehash
PUBLIC	?_Max_bucket_size@?$_Hash@V?$_Umap_traits@G_NV?$_Uhash_compare@GU?$hash@G@std@@U?$equal_to@G@2@@std@@V?$allocator@U?$pair@$$CBG_N@std@@@2@$0A@@std@@@std@@IEAAAEAMXZ ; std::_Hash<std::_Umap_traits<unsigned short,bool,std::_Uhash_compare<unsigned short,std::hash<unsigned short>,std::equal_to<unsigned short> >,std::allocator<std::pair<unsigned short const ,bool> >,0> >::_Max_bucket_size
PUBLIC	?_Max_bucket_size@?$_Hash@V?$_Umap_traits@G_NV?$_Uhash_compare@GU?$hash@G@std@@U?$equal_to@G@2@@std@@V?$allocator@U?$pair@$$CBG_N@std@@@2@$0A@@std@@@std@@IEBAAEBMXZ ; std::_Hash<std::_Umap_traits<unsigned short,bool,std::_Uhash_compare<unsigned short,std::hash<unsigned short>,std::equal_to<unsigned short> >,std::allocator<std::pair<unsigned short const ,bool> >,0> >::_Max_bucket_size
PUBLIC	?deallocate@?$allocator@V?$_List_unchecked_iterator@V?$_List_val@U?$_List_simple_types@U?$pair@$$CBG_N@std@@@std@@@std@@@std@@@std@@QEAAXQEAV?$_List_unchecked_iterator@V?$_List_val@U?$_List_simple_types@U?$pair@$$CBG_N@std@@@std@@@std@@@2@_K@Z ; std::allocator<std::_List_unchecked_iterator<std::_List_val<std::_List_simple_types<std::pair<unsigned short const ,bool> > > > >::deallocate
PUBLIC	?allocate@?$allocator@V?$_List_unchecked_iterator@V?$_List_val@U?$_List_simple_types@U?$pair@$$CBG_N@std@@@std@@@std@@@std@@@std@@QEAAPEAV?$_List_unchecked_iterator@V?$_List_val@U?$_List_simple_types@U?$pair@$$CBG_N@std@@@std@@@std@@@2@_K@Z ; std::allocator<std::_List_unchecked_iterator<std::_List_val<std::_List_simple_types<std::pair<unsigned short const ,bool> > > > >::allocate
PUBLIC	?max_size@?$_Default_allocator_traits@V?$allocator@V?$_List_unchecked_iterator@V?$_List_val@U?$_List_simple_types@U?$pair@$$CBG_N@std@@@std@@@std@@@std@@@std@@@std@@SA_KAEBV?$allocator@V?$_List_unchecked_iterator@V?$_List_val@U?$_List_simple_types@U?$pair@$$CBG_N@std@@@std@@@std@@@std@@@2@@Z ; std::_Default_allocator_traits<std::allocator<std::_List_unchecked_iterator<std::_List_val<std::_List_simple_types<std::pair<unsigned short const ,bool> > > > > >::max_size
PUBLIC	?size@?$_Hash_vec@V?$allocator@V?$_List_unchecked_iterator@V?$_List_val@U?$_List_simple_types@U?$pair@$$CBG_N@std@@@std@@@std@@@std@@@std@@@std@@QEBA_KXZ ; std::_Hash_vec<std::allocator<std::_List_unchecked_iterator<std::_List_val<std::_List_simple_types<std::pair<unsigned short const ,bool> > > > > >::size
PUBLIC	?max_size@?$_Hash_vec@V?$allocator@V?$_List_unchecked_iterator@V?$_List_val@U?$_List_simple_types@U?$pair@$$CBG_N@std@@@std@@@std@@@std@@@std@@@std@@QEBA_KXZ ; std::_Hash_vec<std::allocator<std::_List_unchecked_iterator<std::_List_val<std::_List_simple_types<std::pair<unsigned short const ,bool> > > > > >::max_size
PUBLIC	?_Assign_grow@?$_Hash_vec@V?$allocator@V?$_List_unchecked_iterator@V?$_List_val@U?$_List_simple_types@U?$pair@$$CBG_N@std@@@std@@@std@@@std@@@std@@@std@@QEAAX_KV?$_List_unchecked_iterator@V?$_List_val@U?$_List_simple_types@U?$pair@$$CBG_N@std@@@std@@@std@@@2@@Z ; std::_Hash_vec<std::allocator<std::_List_unchecked_iterator<std::_List_val<std::_List_simple_types<std::pair<unsigned short const ,bool> > > > > >::_Assign_grow
PUBLIC	?_Tidy@?$_Hash_vec@V?$allocator@V?$_List_unchecked_iterator@V?$_List_val@U?$_List_simple_types@U?$pair@$$CBG_N@std@@@std@@@std@@@std@@@std@@@std@@QEAAXXZ ; std::_Hash_vec<std::allocator<std::_List_unchecked_iterator<std::_List_val<std::_List_simple_types<std::pair<unsigned short const ,bool> > > > > >::_Tidy
PUBLIC	??1?$_Hash_vec@V?$allocator@V?$_List_unchecked_iterator@V?$_List_val@U?$_List_simple_types@U?$pair@$$CBG_N@std@@@std@@@std@@@std@@@std@@@std@@QEAA@XZ ; std::_Hash_vec<std::allocator<std::_List_unchecked_iterator<std::_List_val<std::_List_simple_types<std::pair<unsigned short const ,bool> > > > > >::~_Hash_vec<std::allocator<std::_List_unchecked_iterator<std::_List_val<std::_List_simple_types<std::pair<unsigned short const ,bool> > > > > >
PUBLIC	??0?$_Vector_val@U?$_Simple_types@V?$_List_unchecked_iterator@V?$_List_val@U?$_List_simple_types@U?$pair@$$CBG_N@std@@@std@@@std@@@std@@@std@@@std@@QEAA@XZ ; std::_Vector_val<std::_Simple_types<std::_List_unchecked_iterator<std::_List_val<std::_List_simple_types<std::pair<unsigned short const ,bool> > > > > >::_Vector_val<std::_Simple_types<std::_List_unchecked_iterator<std::_List_val<std::_List_simple_types<std::pair<unsigned short const ,bool> > > > > >
PUBLIC	?_Get_first@?$_Compressed_pair@V?$allocator@V?$_List_unchecked_iterator@V?$_List_val@U?$_List_simple_types@U?$pair@$$CBG_N@std@@@std@@@std@@@std@@@std@@V?$_Vector_val@U?$_Simple_types@V?$_List_unchecked_iterator@V?$_List_val@U?$_List_simple_types@U?$pair@$$CBG_N@std@@@std@@@std@@@std@@@std@@@2@$00@std@@QEAAAEAV?$allocator@V?$_List_unchecked_iterator@V?$_List_val@U?$_List_simple_types@U?$pair@$$CBG_N@std@@@std@@@std@@@std@@@2@XZ ; std::_Compressed_pair<std::allocator<std::_List_unchecked_iterator<std::_List_val<std::_List_simple_types<std::pair<unsigned short const ,bool> > > > >,std::_Vector_val<std::_Simple_types<std::_List_unchecked_iterator<std::_List_val<std::_List_simple_types<std::pair<unsigned short const ,bool> > > > > >,1>::_Get_first
PUBLIC	?_Get_first@?$_Compressed_pair@V?$allocator@V?$_List_unchecked_iterator@V?$_List_val@U?$_List_simple_types@U?$pair@$$CBG_N@std@@@std@@@std@@@std@@@std@@V?$_Vector_val@U?$_Simple_types@V?$_List_unchecked_iterator@V?$_List_val@U?$_List_simple_types@U?$pair@$$CBG_N@std@@@std@@@std@@@std@@@std@@@2@$00@std@@QEBAAEBV?$allocator@V?$_List_unchecked_iterator@V?$_List_val@U?$_List_simple_types@U?$pair@$$CBG_N@std@@@std@@@std@@@std@@@2@XZ ; std::_Compressed_pair<std::allocator<std::_List_unchecked_iterator<std::_List_val<std::_List_simple_types<std::pair<unsigned short const ,bool> > > > >,std::_Vector_val<std::_Simple_types<std::_List_unchecked_iterator<std::_List_val<std::_List_simple_types<std::pair<unsigned short const ,bool> > > > > >,1>::_Get_first
PUBLIC	??1?$_Hash@V?$_Umap_traits@G_NV?$_Uhash_compare@GU?$hash@G@std@@U?$equal_to@G@2@@std@@V?$allocator@U?$pair@$$CBG_N@std@@@2@$0A@@std@@@std@@QEAA@XZ ; std::_Hash<std::_Umap_traits<unsigned short,bool,std::_Uhash_compare<unsigned short,std::hash<unsigned short>,std::equal_to<unsigned short> >,std::allocator<std::pair<unsigned short const ,bool> >,0> >::~_Hash<std::_Umap_traits<unsigned short,bool,std::_Uhash_compare<unsigned short,std::hash<unsigned short>,std::equal_to<unsigned short> >,std::allocator<std::pair<unsigned short const ,bool> >,0> >
PUBLIC	??0?$unordered_map@G_NU?$hash@G@std@@U?$equal_to@G@2@V?$allocator@U?$pair@$$CBG_N@std@@@2@@std@@QEAA@XZ ; std::unordered_map<unsigned short,bool,std::hash<unsigned short>,std::equal_to<unsigned short>,std::allocator<std::pair<unsigned short const ,bool> > >::unordered_map<unsigned short,bool,std::hash<unsigned short>,std::equal_to<unsigned short>,std::allocator<std::pair<unsigned short const ,bool> > >
PUBLIC	??A?$unordered_map@G_NU?$hash@G@std@@U?$equal_to@G@2@V?$allocator@U?$pair@$$CBG_N@std@@@2@@std@@QEAAAEA_N$$QEAG@Z ; std::unordered_map<unsigned short,bool,std::hash<unsigned short>,std::equal_to<unsigned short>,std::allocator<std::pair<unsigned short const ,bool> > >::operator[]
PUBLIC	??A?$unordered_map@G_NU?$hash@G@std@@U?$equal_to@G@2@V?$allocator@U?$pair@$$CBG_N@std@@@2@@std@@QEAAAEA_NAEBG@Z ; std::unordered_map<unsigned short,bool,std::hash<unsigned short>,std::equal_to<unsigned short>,std::allocator<std::pair<unsigned short const ,bool> > >::operator[]
PUBLIC	??1?$unordered_map@G_NU?$hash@G@std@@U?$equal_to@G@2@V?$allocator@U?$pair@$$CBG_N@std@@@2@@std@@QEAA@XZ ; std::unordered_map<unsigned short,bool,std::hash<unsigned short>,std::equal_to<unsigned short>,std::allocator<std::pair<unsigned short const ,bool> > >::~unordered_map<unsigned short,bool,std::hash<unsigned short>,std::equal_to<unsigned short>,std::allocator<std::pair<unsigned short const ,bool> > >
PUBLIC	?keyboard_callback@input@sys@fan@@CA_JH_K_J@Z	; fan::sys::input::keyboard_callback
PUBLIC	?mouse_callback@input@sys@fan@@CA_JH_K_J@Z	; fan::sys::input::mouse_callback
PUBLIC	??0?$_Func_class@XGW4key_state@fan@@_NVany@std@@@std@@QEAA@XZ ; std::_Func_class<void,unsigned short,enum fan::key_state,bool,std::any>::_Func_class<void,unsigned short,enum fan::key_state,bool,std::any>
PUBLIC	??R?$_Func_class@XGW4key_state@fan@@_NVany@std@@@std@@QEBAXGW4key_state@fan@@_NVany@1@@Z ; std::_Func_class<void,unsigned short,enum fan::key_state,bool,std::any>::operator()
PUBLIC	??1?$_Func_class@XGW4key_state@fan@@_NVany@std@@@std@@QEAA@XZ ; std::_Func_class<void,unsigned short,enum fan::key_state,bool,std::any>::~_Func_class<void,unsigned short,enum fan::key_state,bool,std::any>
PUBLIC	?_Empty@?$_Func_class@XGW4key_state@fan@@_NVany@std@@@std@@IEBA_NXZ ; std::_Func_class<void,unsigned short,enum fan::key_state,bool,std::any>::_Empty
PUBLIC	?_Tidy@?$_Func_class@XGW4key_state@fan@@_NVany@std@@@std@@IEAAXXZ ; std::_Func_class<void,unsigned short,enum fan::key_state,bool,std::any>::_Tidy
PUBLIC	?_Local@?$_Func_class@XGW4key_state@fan@@_NVany@std@@@std@@AEBA_NXZ ; std::_Func_class<void,unsigned short,enum fan::key_state,bool,std::any>::_Local
PUBLIC	?_Getimpl@?$_Func_class@XGW4key_state@fan@@_NVany@std@@@std@@AEBAPEAV?$_Func_base@XGW4key_state@fan@@_NVany@std@@@2@XZ ; std::_Func_class<void,unsigned short,enum fan::key_state,bool,std::any>::_Getimpl
PUBLIC	?_Set@?$_Func_class@XGW4key_state@fan@@_NVany@std@@@std@@AEAAXPEAV?$_Func_base@XGW4key_state@fan@@_NVany@std@@@2@@Z ; std::_Func_class<void,unsigned short,enum fan::key_state,bool,std::any>::_Set
PUBLIC	??0?$function@$$A6AXGW4key_state@fan@@_NVany@std@@@Z@std@@QEAA@XZ ; std::function<void __cdecl(unsigned short,enum fan::key_state,bool,std::any)>::function<void __cdecl(unsigned short,enum fan::key_state,bool,std::any)>
PUBLIC	??B?$function@$$A6AXGW4key_state@fan@@_NVany@std@@@Z@std@@QEBA_NXZ ; std::function<void __cdecl(unsigned short,enum fan::key_state,bool,std::any)>::operator bool
PUBLIC	??1?$function@$$A6AXGW4key_state@fan@@_NVany@std@@@Z@std@@QEAA@XZ ; std::function<void __cdecl(unsigned short,enum fan::key_state,bool,std::any)>::~function<void __cdecl(unsigned short,enum fan::key_state,bool,std::any)>
PUBLIC	??0?$_Func_class@XAEBV?$_vec2@H@fan@@@std@@QEAA@XZ ; std::_Func_class<void,fan::_vec2<int> const &>::_Func_class<void,fan::_vec2<int> const &>
PUBLIC	??R?$_Func_class@XAEBV?$_vec2@H@fan@@@std@@QEBAXAEBV?$_vec2@H@fan@@@Z ; std::_Func_class<void,fan::_vec2<int> const &>::operator()
PUBLIC	??1?$_Func_class@XAEBV?$_vec2@H@fan@@@std@@QEAA@XZ ; std::_Func_class<void,fan::_vec2<int> const &>::~_Func_class<void,fan::_vec2<int> const &>
PUBLIC	?_Empty@?$_Func_class@XAEBV?$_vec2@H@fan@@@std@@IEBA_NXZ ; std::_Func_class<void,fan::_vec2<int> const &>::_Empty
PUBLIC	?_Tidy@?$_Func_class@XAEBV?$_vec2@H@fan@@@std@@IEAAXXZ ; std::_Func_class<void,fan::_vec2<int> const &>::_Tidy
PUBLIC	?_Local@?$_Func_class@XAEBV?$_vec2@H@fan@@@std@@AEBA_NXZ ; std::_Func_class<void,fan::_vec2<int> const &>::_Local
PUBLIC	?_Getimpl@?$_Func_class@XAEBV?$_vec2@H@fan@@@std@@AEBAPEAV?$_Func_base@XAEBV?$_vec2@H@fan@@@2@XZ ; std::_Func_class<void,fan::_vec2<int> const &>::_Getimpl
PUBLIC	?_Set@?$_Func_class@XAEBV?$_vec2@H@fan@@@std@@AEAAXPEAV?$_Func_base@XAEBV?$_vec2@H@fan@@@2@@Z ; std::_Func_class<void,fan::_vec2<int> const &>::_Set
PUBLIC	??0?$function@$$A6AXAEBV?$_vec2@H@fan@@@Z@std@@QEAA@XZ ; std::function<void __cdecl(fan::_vec2<int> const &)>::function<void __cdecl(fan::_vec2<int> const &)>
PUBLIC	??B?$function@$$A6AXAEBV?$_vec2@H@fan@@@Z@std@@QEBA_NXZ ; std::function<void __cdecl(fan::_vec2<int> const &)>::operator bool
PUBLIC	??1?$function@$$A6AXAEBV?$_vec2@H@fan@@@Z@std@@QEAA@XZ ; std::function<void __cdecl(fan::_vec2<int> const &)>::~function<void __cdecl(fan::_vec2<int> const &)>
PUBLIC	??$?0H$0A@@any@std@@QEAA@$$QEAH@Z		; std::any::any<int,0>
PUBLIC	??R<lambda_1>@?1??mouse_callback@input@sys@fan@@CA_JH_K_J@Z@QEBA@G@Z ; `fan::sys::input::mouse_callback'::`2'::<lambda_1>::operator()
PUBLIC	??$?0V?$_vec2@H@fan@@$0A@@any@std@@QEAA@$$QEAV?$_vec2@H@fan@@@Z ; std::any::any<fan::_vec2<int>,0>
PUBLIC	??$?6U?$char_traits@D@std@@@std@@YAAEAV?$basic_ostream@DU?$char_traits@D@std@@@0@AEAV10@PEBD@Z ; std::operator<<<std::char_traits<char> >
PUBLIC	??$?6U?$char_traits@D@std@@@std@@YAAEAV?$basic_ostream@DU?$char_traits@D@std@@@0@AEAV10@D@Z ; std::operator<<<std::char_traits<char> >
PUBLIC	??0random_device@std@@QEAA@XZ			; std::random_device::random_device
PUBLIC	??Rrandom_device@std@@QEAAIXZ			; std::random_device::operator()
PUBLIC	??0?$mersenne_twister@_K$0EA@$0BDI@$0JM@$0BP@$0?EKPNJAKFFGJJOGBH@$0BN@$0BB@$0HBNGHPPPONKGAAAA@$0CF@$0?IBBCAAAAAAAAA@$0CL@@std@@QEAA@_K00@Z ; std::mersenne_twister<unsigned __int64,64,312,156,31,-5403634167711393303,29,17,8202884508482404352,37,-2270628950310912,43>::mersenne_twister<unsigned __int64,64,312,156,31,-5403634167711393303,29,17,8202884508482404352,37,-2270628950310912,43>
PUBLIC	?seed@?$mersenne_twister@_K$0EA@$0BDI@$0JM@$0BP@$0?EKPNJAKFFGJJOGBH@$0BN@$0BB@$0HBNGHPPPONKGAAAA@$0CF@$0?IBBCAAAAAAAAA@$0CL@@std@@QEAAX_K0@Z ; std::mersenne_twister<unsigned __int64,64,312,156,31,-5403634167711393303,29,17,8202884508482404352,37,-2270628950310912,43>::seed
PUBLIC	??R?$mersenne_twister@_K$0EA@$0BDI@$0JM@$0BP@$0?EKPNJAKFFGJJOGBH@$0BN@$0BB@$0HBNGHPPPONKGAAAA@$0CF@$0?IBBCAAAAAAAAA@$0CL@@std@@QEAA_KXZ ; std::mersenne_twister<unsigned __int64,64,312,156,31,-5403634167711393303,29,17,8202884508482404352,37,-2270628950310912,43>::operator()
PUBLIC	?_Refill_lower@?$mersenne_twister@_K$0EA@$0BDI@$0JM@$0BP@$0?EKPNJAKFFGJJOGBH@$0BN@$0BB@$0HBNGHPPPONKGAAAA@$0CF@$0?IBBCAAAAAAAAA@$0CL@@std@@IEAAXXZ ; std::mersenne_twister<unsigned __int64,64,312,156,31,-5403634167711393303,29,17,8202884508482404352,37,-2270628950310912,43>::_Refill_lower
PUBLIC	?_Refill_upper@?$mersenne_twister@_K$0EA@$0BDI@$0JM@$0BP@$0?EKPNJAKFFGJJOGBH@$0BN@$0BB@$0HBNGHPPPONKGAAAA@$0CF@$0?IBBCAAAAAAAAA@$0CL@@std@@IEAAXXZ ; std::mersenne_twister<unsigned __int64,64,312,156,31,-5403634167711393303,29,17,8202884508482404352,37,-2270628950310912,43>::_Refill_upper
PUBLIC	??0?$mersenne_twister_engine@_K$0EA@$0BDI@$0JM@$0BP@$0?EKPNJAKFFGJJOGBH@$0BN@$0FFFFFFFFFFFFFFFF@$0BB@$0HBNGHPPPONKGAAAA@$0CF@$0?IBBCAAAAAAAAA@$0CL@$0FIFBPECNEMJFHPCN@@std@@QEAA@_K@Z ; std::mersenne_twister_engine<unsigned __int64,64,312,156,31,-5403634167711393303,29,6148914691236517205,17,8202884508482404352,37,-2270628950310912,43,6364136223846793005>::mersenne_twister_engine<unsigned __int64,64,312,156,31,-5403634167711393303,29,6148914691236517205,17,8202884508482404352,37,-2270628950310912,43,6364136223846793005>
PUBLIC	?min@?$mersenne_twister_engine@_K$0EA@$0BDI@$0JM@$0BP@$0?EKPNJAKFFGJJOGBH@$0BN@$0FFFFFFFFFFFFFFFF@$0BB@$0HBNGHPPPONKGAAAA@$0CF@$0?IBBCAAAAAAAAA@$0CL@$0FIFBPECNEMJFHPCN@@std@@SA_KXZ ; std::mersenne_twister_engine<unsigned __int64,64,312,156,31,-5403634167711393303,29,6148914691236517205,17,8202884508482404352,37,-2270628950310912,43,6364136223846793005>::min
PUBLIC	?max@?$mersenne_twister_engine@_K$0EA@$0BDI@$0JM@$0BP@$0?EKPNJAKFFGJJOGBH@$0BN@$0FFFFFFFFFFFFFFFF@$0BB@$0HBNGHPPPONKGAAAA@$0CF@$0?IBBCAAAAAAAAA@$0CL@$0FIFBPECNEMJFHPCN@@std@@SA_KXZ ; std::mersenne_twister_engine<unsigned __int64,64,312,156,31,-5403634167711393303,29,6148914691236517205,17,8202884508482404352,37,-2270628950310912,43,6364136223846793005>::max
PUBLIC	?value_i64@random@fan@@YA_J_J0@Z		; fan::random::value_i64
PUBLIC	??0?$uniform_int@_J@std@@QEAA@_J0@Z		; std::uniform_int<__int64>::uniform_int<__int64>
PUBLIC	?_Adjust@?$uniform_int@_J@std@@CA_K_K@Z		; std::uniform_int<__int64>::_Adjust
PUBLIC	??0param_type@?$uniform_int@_J@std@@QEAA@_J0@Z	; std::uniform_int<__int64>::param_type::param_type
PUBLIC	?_Init@param_type@?$uniform_int@_J@std@@QEAAX_J0@Z ; std::uniform_int<__int64>::param_type::_Init
PUBLIC	??0?$uniform_int_distribution@_J@std@@QEAA@_J0@Z ; std::uniform_int_distribution<__int64>::uniform_int_distribution<__int64>
PUBLIC	??$?RV?$mersenne_twister_engine@_K$0EA@$0BDI@$0JM@$0BP@$0?EKPNJAKFFGJJOGBH@$0BN@$0FFFFFFFFFFFFFFFF@$0BB@$0HBNGHPPPONKGAAAA@$0CF@$0?IBBCAAAAAAAAA@$0CL@$0FIFBPECNEMJFHPCN@@std@@@?$uniform_int@_J@std@@QEAA_JAEAV?$mersenne_twister_engine@_K$0EA@$0BDI@$0JM@$0BP@$0?EKPNJAKFFGJJOGBH@$0BN@$0FFFFFFFFFFFFFFFF@$0BB@$0HBNGHPPPONKGAAAA@$0CF@$0?IBBCAAAAAAAAA@$0CL@$0FIFBPECNEMJFHPCN@@1@@Z ; std::uniform_int<__int64>::operator()<std::mersenne_twister_engine<unsigned __int64,64,312,156,31,-5403634167711393303,29,6148914691236517205,17,8202884508482404352,37,-2270628950310912,43,6364136223846793005> >
PUBLIC	?count@clock@time@fan@@QEBA_KXZ			; fan::time::clock::count
PUBLIC	?now@clock@time@fan@@SA_KXZ			; fan::time::clock::now
PUBLIC	?start@clock@time@fan@@QEAAXXZ			; fan::time::clock::start
PUBLIC	?restart@clock@time@fan@@QEAAXXZ		; fan::time::clock::restart
PUBLIC	?finished@clock@time@fan@@QEBA_NXZ		; fan::time::clock::finished
PUBLIC	?elapsed@clock@time@fan@@SA_K_K@Z		; fan::time::clock::elapsed
PUBLIC	??0?$base_time_unit@$0A@@time@fan@@QEAA@_K@Z	; fan::time::base_time_unit<0>::base_time_unit<0>
PUBLIC	?get_screen_resolution@fan@@YA?AV?$_vec2@H@1@XZ	; fan::get_screen_resolution
PUBLIC	?set_screen_resolution@fan@@YAXAEBV?$_vec2@H@1@@Z ; fan::set_screen_resolution
PUBLIC	?reset_screen_resolution@fan@@YAXXZ		; fan::reset_screen_resolution
PUBLIC	?get_screen_refresh_rate@fan@@YA_KXZ		; fan::get_screen_refresh_rate
PUBLIC	?open@?$bll_t@Uwindow_id_storage_t@fan@@I@@QEAAXXZ ; bll_t<fan::window_id_storage_t,unsigned int>::open
PUBLIC	??A?$bll_t@Uwindow_id_storage_t@fan@@I@@QEAAAEAUwindow_id_storage_t@fan@@I@Z ; bll_t<fan::window_id_storage_t,unsigned int>::operator[]
PUBLIC	?new_node_empty@?$bll_t@Uwindow_id_storage_t@fan@@I@@QEAAIXZ ; bll_t<fan::window_id_storage_t,unsigned int>::new_node_empty
PUBLIC	?new_node_last_empty@?$bll_t@Uwindow_id_storage_t@fan@@I@@QEAAIXZ ; bll_t<fan::window_id_storage_t,unsigned int>::new_node_last_empty
PUBLIC	?new_node_last_alloc@?$bll_t@Uwindow_id_storage_t@fan@@I@@QEAAIXZ ; bll_t<fan::window_id_storage_t,unsigned int>::new_node_last_alloc
PUBLIC	?new_node_last@?$bll_t@Uwindow_id_storage_t@fan@@I@@QEAAIXZ ; bll_t<fan::window_id_storage_t,unsigned int>::new_node_last
PUBLIC	?push_back@?$bll_t@Uwindow_id_storage_t@fan@@I@@QEAAIAEBUwindow_id_storage_t@fan@@@Z ; bll_t<fan::window_id_storage_t,unsigned int>::push_back
PUBLIC	?unlink@?$bll_t@Uwindow_id_storage_t@fan@@I@@QEAAXI@Z ; bll_t<fan::window_id_storage_t,unsigned int>::unlink
PUBLIC	?erase@?$bll_t@Uwindow_id_storage_t@fan@@I@@QEAAXI@Z ; bll_t<fan::window_id_storage_t,unsigned int>::erase
PUBLIC	?new_node_alloc@?$bll_t@Uwindow_id_storage_t@fan@@I@@QEAAIXZ ; bll_t<fan::window_id_storage_t,unsigned int>::new_node_alloc
PUBLIC	?begin@?$bll_t@Uwindow_id_storage_t@fan@@I@@QEAA?BIXZ ; bll_t<fan::window_id_storage_t,unsigned int>::begin
PUBLIC	?end@?$bll_t@Uwindow_id_storage_t@fan@@I@@QEAA?BIXZ ; bll_t<fan::window_id_storage_t,unsigned int>::end
PUBLIC	?next@?$bll_t@Uwindow_id_storage_t@fan@@I@@QEAAII@Z ; bll_t<fan::window_id_storage_t,unsigned int>::next
PUBLIC	?get_node_by_reference@?$bll_t@Uwindow_id_storage_t@fan@@I@@QEAAPEAUnode_t@1@I@Z ; bll_t<fan::window_id_storage_t,unsigned int>::get_node_by_reference
PUBLIC	?open@?$hector_t@Unode_t@?$bll_t@Uwindow_id_storage_t@fan@@I@@@fan@@QEAAXXZ ; fan::hector_t<bll_t<fan::window_id_storage_t,unsigned int>::node_t>::open
PUBLIC	?push_back@?$hector_t@Unode_t@?$bll_t@Uwindow_id_storage_t@fan@@I@@@fan@@QEAA_KAEBUnode_t@?$bll_t@Uwindow_id_storage_t@fan@@I@@@Z ; fan::hector_t<bll_t<fan::window_id_storage_t,unsigned int>::node_t>::push_back
PUBLIC	?handle_buffer@?$hector_t@Unode_t@?$bll_t@Uwindow_id_storage_t@fan@@I@@@fan@@QEAAXXZ ; fan::hector_t<bll_t<fan::window_id_storage_t,unsigned int>::node_t>::handle_buffer
PUBLIC	?resize@?$hector_t@Unode_t@?$bll_t@Uwindow_id_storage_t@fan@@I@@@fan@@QEAA_K_K@Z ; fan::hector_t<bll_t<fan::window_id_storage_t,unsigned int>::node_t>::resize
PUBLIC	??A?$hector_t@Unode_t@?$bll_t@Uwindow_id_storage_t@fan@@I@@@fan@@QEAAAEAUnode_t@?$bll_t@Uwindow_id_storage_t@fan@@I@@_K@Z ; fan::hector_t<bll_t<fan::window_id_storage_t,unsigned int>::node_t>::operator[]
PUBLIC	?size@?$hector_t@Unode_t@?$bll_t@Uwindow_id_storage_t@fan@@I@@@fan@@QEBA_KXZ ; fan::hector_t<bll_t<fan::window_id_storage_t,unsigned int>::node_t>::size
PUBLIC	?resize_buffer@?$hector_t@Unode_t@?$bll_t@Uwindow_id_storage_t@fan@@I@@@fan@@SAPEAUnode_t@?$bll_t@Uwindow_id_storage_t@fan@@I@@PEAX_K@Z ; fan::hector_t<bll_t<fan::window_id_storage_t,unsigned int>::node_t>::resize_buffer
PUBLIC	?get_buffer_size@?$hector_t@Unode_t@?$bll_t@Uwindow_id_storage_t@fan@@I@@@fan@@QEAA_KXZ ; fan::hector_t<bll_t<fan::window_id_storage_t,unsigned int>::node_t>::get_buffer_size
PUBLIC	?get_window_by_id@fan@@YAPEAUwindow_t@1@PEAUHWND__@@@Z ; fan::get_window_by_id
PUBLIC	?set_window_by_id@fan@@YAXPEAUHWND__@@PEAUwindow_t@1@@Z ; fan::set_window_by_id
PUBLIC	?erase_window_id@fan@@YAXPEAUHWND__@@@Z		; fan::erase_window_id
PUBLIC	??0?$_Func_class@XPEAUwindow_t@fan@@@std@@QEAA@XZ ; std::_Func_class<void,fan::window_t *>::_Func_class<void,fan::window_t *>
PUBLIC	??R?$_Func_class@XPEAUwindow_t@fan@@@std@@QEBAXPEAUwindow_t@fan@@@Z ; std::_Func_class<void,fan::window_t *>::operator()
PUBLIC	??1?$_Func_class@XPEAUwindow_t@fan@@@std@@QEAA@XZ ; std::_Func_class<void,fan::window_t *>::~_Func_class<void,fan::window_t *>
PUBLIC	?_Empty@?$_Func_class@XPEAUwindow_t@fan@@@std@@IEBA_NXZ ; std::_Func_class<void,fan::window_t *>::_Empty
PUBLIC	?_Reset_copy@?$_Func_class@XPEAUwindow_t@fan@@@std@@IEAAXAEBV12@@Z ; std::_Func_class<void,fan::window_t *>::_Reset_copy
PUBLIC	?_Reset_move@?$_Func_class@XPEAUwindow_t@fan@@@std@@IEAAX$$QEAV12@@Z ; std::_Func_class<void,fan::window_t *>::_Reset_move
PUBLIC	?_Tidy@?$_Func_class@XPEAUwindow_t@fan@@@std@@IEAAXXZ ; std::_Func_class<void,fan::window_t *>::_Tidy
PUBLIC	?_Swap@?$_Func_class@XPEAUwindow_t@fan@@@std@@IEAAXAEAV12@@Z ; std::_Func_class<void,fan::window_t *>::_Swap
PUBLIC	?_Local@?$_Func_class@XPEAUwindow_t@fan@@@std@@AEBA_NXZ ; std::_Func_class<void,fan::window_t *>::_Local
PUBLIC	?_Getimpl@?$_Func_class@XPEAUwindow_t@fan@@@std@@AEBAPEAV?$_Func_base@XPEAUwindow_t@fan@@@2@XZ ; std::_Func_class<void,fan::window_t *>::_Getimpl
PUBLIC	?_Set@?$_Func_class@XPEAUwindow_t@fan@@@std@@AEAAXPEAV?$_Func_base@XPEAUwindow_t@fan@@@2@@Z ; std::_Func_class<void,fan::window_t *>::_Set
PUBLIC	??0?$function@$$A6AXPEAUwindow_t@fan@@@Z@std@@QEAA@XZ ; std::function<void __cdecl(fan::window_t *)>::function<void __cdecl(fan::window_t *)>
PUBLIC	??0?$function@$$A6AXPEAUwindow_t@fan@@@Z@std@@QEAA@AEBV01@@Z ; std::function<void __cdecl(fan::window_t *)>::function<void __cdecl(fan::window_t *)>
PUBLIC	??4?$function@$$A6AXPEAUwindow_t@fan@@@Z@std@@QEAAAEAV01@AEBV01@@Z ; std::function<void __cdecl(fan::window_t *)>::operator=
PUBLIC	?swap@?$function@$$A6AXPEAUwindow_t@fan@@@Z@std@@QEAAXAEAV12@@Z ; std::function<void __cdecl(fan::window_t *)>::swap
PUBLIC	??1?$function@$$A6AXPEAUwindow_t@fan@@@Z@std@@QEAA@XZ ; std::function<void __cdecl(fan::window_t *)>::~function<void __cdecl(fan::window_t *)>
PUBLIC	??0?$_Func_class@XPEAUwindow_t@fan@@G@std@@QEAA@XZ ; std::_Func_class<void,fan::window_t *,unsigned short>::_Func_class<void,fan::window_t *,unsigned short>
PUBLIC	??R?$_Func_class@XPEAUwindow_t@fan@@G@std@@QEBAXPEAUwindow_t@fan@@G@Z ; std::_Func_class<void,fan::window_t *,unsigned short>::operator()
PUBLIC	??1?$_Func_class@XPEAUwindow_t@fan@@G@std@@QEAA@XZ ; std::_Func_class<void,fan::window_t *,unsigned short>::~_Func_class<void,fan::window_t *,unsigned short>
PUBLIC	?_Empty@?$_Func_class@XPEAUwindow_t@fan@@G@std@@IEBA_NXZ ; std::_Func_class<void,fan::window_t *,unsigned short>::_Empty
PUBLIC	?_Reset_copy@?$_Func_class@XPEAUwindow_t@fan@@G@std@@IEAAXAEBV12@@Z ; std::_Func_class<void,fan::window_t *,unsigned short>::_Reset_copy
PUBLIC	?_Reset_move@?$_Func_class@XPEAUwindow_t@fan@@G@std@@IEAAX$$QEAV12@@Z ; std::_Func_class<void,fan::window_t *,unsigned short>::_Reset_move
PUBLIC	?_Tidy@?$_Func_class@XPEAUwindow_t@fan@@G@std@@IEAAXXZ ; std::_Func_class<void,fan::window_t *,unsigned short>::_Tidy
PUBLIC	?_Local@?$_Func_class@XPEAUwindow_t@fan@@G@std@@AEBA_NXZ ; std::_Func_class<void,fan::window_t *,unsigned short>::_Local
PUBLIC	?_Getimpl@?$_Func_class@XPEAUwindow_t@fan@@G@std@@AEBAPEAV?$_Func_base@XPEAUwindow_t@fan@@G@2@XZ ; std::_Func_class<void,fan::window_t *,unsigned short>::_Getimpl
PUBLIC	?_Set@?$_Func_class@XPEAUwindow_t@fan@@G@std@@AEAAXPEAV?$_Func_base@XPEAUwindow_t@fan@@G@2@@Z ; std::_Func_class<void,fan::window_t *,unsigned short>::_Set
PUBLIC	??0?$function@$$A6AXPEAUwindow_t@fan@@G@Z@std@@QEAA@XZ ; std::function<void __cdecl(fan::window_t *,unsigned short)>::function<void __cdecl(fan::window_t *,unsigned short)>
PUBLIC	??0?$function@$$A6AXPEAUwindow_t@fan@@G@Z@std@@QEAA@AEBV01@@Z ; std::function<void __cdecl(fan::window_t *,unsigned short)>::function<void __cdecl(fan::window_t *,unsigned short)>
PUBLIC	??4?$function@$$A6AXPEAUwindow_t@fan@@G@Z@std@@QEAAAEAV01@$$QEAV01@@Z ; std::function<void __cdecl(fan::window_t *,unsigned short)>::operator=
PUBLIC	??B?$function@$$A6AXPEAUwindow_t@fan@@G@Z@std@@QEBA_NXZ ; std::function<void __cdecl(fan::window_t *,unsigned short)>::operator bool
PUBLIC	??1?$function@$$A6AXPEAUwindow_t@fan@@G@Z@std@@QEAA@XZ ; std::function<void __cdecl(fan::window_t *,unsigned short)>::~function<void __cdecl(fan::window_t *,unsigned short)>
PUBLIC	??0key_callback_store_t@window_t@fan@@QEAA@XZ	; fan::window_t::key_callback_store_t::key_callback_store_t
PUBLIC	??1key_callback_store_t@window_t@fan@@QEAA@XZ	; fan::window_t::key_callback_store_t::~key_callback_store_t
PUBLIC	??4key_callback_store_t@window_t@fan@@QEAAAEAU012@$$QEAU012@@Z ; fan::window_t::key_callback_store_t::operator=
PUBLIC	?open@window_t@fan@@QEAAXAEBV?$_vec2@H@2@AEBV?$basic_string@DU?$char_traits@D@std@@V?$allocator@D@2@@std@@_K@Z ; fan::window_t::open
PUBLIC	?close@window_t@fan@@QEAAXXZ			; fan::window_t::close
PUBLIC	?get_name@window_t@fan@@QEBA?AV?$basic_string@DU?$char_traits@D@std@@V?$allocator@D@2@@std@@XZ ; fan::window_t::get_name
PUBLIC	?set_name@window_t@fan@@QEAAXAEBV?$basic_string@DU?$char_traits@D@std@@V?$allocator@D@2@@std@@@Z ; fan::window_t::set_name
PUBLIC	?calculate_delta_time@window_t@fan@@QEAAXXZ	; fan::window_t::calculate_delta_time
PUBLIC	?get_delta_time@window_t@fan@@QEBANXZ		; fan::window_t::get_delta_time
PUBLIC	?get_mouse_position@window_t@fan@@QEBA?AV?$_vec2@H@2@XZ ; fan::window_t::get_mouse_position
PUBLIC	?get_previous_mouse_position@window_t@fan@@QEBA?AV?$_vec2@H@2@XZ ; fan::window_t::get_previous_mouse_position
PUBLIC	?get_size@window_t@fan@@QEBA?AV?$_vec2@H@2@XZ	; fan::window_t::get_size
PUBLIC	?get_previous_size@window_t@fan@@QEBA?AV?$_vec2@H@2@XZ ; fan::window_t::get_previous_size
PUBLIC	?set_size@window_t@fan@@QEAAXAEBV?$_vec2@H@2@@Z	; fan::window_t::set_size
PUBLIC	?get_position@window_t@fan@@QEBA?AV?$_vec2@H@2@XZ ; fan::window_t::get_position
PUBLIC	?set_position@window_t@fan@@QEAAXAEBV?$_vec2@H@2@@Z ; fan::window_t::set_position
PUBLIC	?get_max_fps@window_t@fan@@QEBA_KXZ		; fan::window_t::get_max_fps
PUBLIC	?set_max_fps@window_t@fan@@QEAAX_K@Z		; fan::window_t::set_max_fps
PUBLIC	?set_full_screen@window_t@fan@@QEAAXAEBV?$_vec2@H@2@@Z ; fan::window_t::set_full_screen
PUBLIC	?set_windowed_full_screen@window_t@fan@@QEAAXAEBV?$_vec2@H@2@@Z ; fan::window_t::set_windowed_full_screen
PUBLIC	?set_windowed@window_t@fan@@QEAAXAEBV?$_vec2@H@2@@Z ; fan::window_t::set_windowed
PUBLIC	?set_resolution@window_t@fan@@QEBAXAEBV?$_vec2@H@2@AEBW4mode@12@@Z ; fan::window_t::set_resolution
PUBLIC	?get_size_mode@window_t@fan@@QEBA?AW4mode@12@XZ	; fan::window_t::get_size_mode
PUBLIC	?set_size_mode@window_t@fan@@QEAAXAEBW4mode@12@@Z ; fan::window_t::set_size_mode
PUBLIC	??8buttons_callback_NodeReference_t@window_t@fan@@QEAA_NU012@@Z ; fan::window_t::buttons_callback_NodeReference_t::operator==
PUBLIC	??9buttons_callback_NodeReference_t@window_t@fan@@QEAA_NU012@@Z ; fan::window_t::buttons_callback_NodeReference_t::operator!=
PUBLIC	?Next@buttons_callback_NodeReference_t@window_t@fan@@QEAA?AU123@PEAUbuttons_callback_t@23@@Z ; fan::window_t::buttons_callback_NodeReference_t::Next
PUBLIC	??0?$_Func_class@XPEAUwindow_t@fan@@GW4key_state@2@@std@@QEAA@XZ ; std::_Func_class<void,fan::window_t *,unsigned short,enum fan::key_state>::_Func_class<void,fan::window_t *,unsigned short,enum fan::key_state>
PUBLIC	??R?$_Func_class@XPEAUwindow_t@fan@@GW4key_state@2@@std@@QEBAXPEAUwindow_t@fan@@GW4key_state@3@@Z ; std::_Func_class<void,fan::window_t *,unsigned short,enum fan::key_state>::operator()
PUBLIC	??1?$_Func_class@XPEAUwindow_t@fan@@GW4key_state@2@@std@@QEAA@XZ ; std::_Func_class<void,fan::window_t *,unsigned short,enum fan::key_state>::~_Func_class<void,fan::window_t *,unsigned short,enum fan::key_state>
PUBLIC	?_Empty@?$_Func_class@XPEAUwindow_t@fan@@GW4key_state@2@@std@@IEBA_NXZ ; std::_Func_class<void,fan::window_t *,unsigned short,enum fan::key_state>::_Empty
PUBLIC	?_Reset_copy@?$_Func_class@XPEAUwindow_t@fan@@GW4key_state@2@@std@@IEAAXAEBV12@@Z ; std::_Func_class<void,fan::window_t *,unsigned short,enum fan::key_state>::_Reset_copy
PUBLIC	?_Reset_move@?$_Func_class@XPEAUwindow_t@fan@@GW4key_state@2@@std@@IEAAX$$QEAV12@@Z ; std::_Func_class<void,fan::window_t *,unsigned short,enum fan::key_state>::_Reset_move
PUBLIC	?_Tidy@?$_Func_class@XPEAUwindow_t@fan@@GW4key_state@2@@std@@IEAAXXZ ; std::_Func_class<void,fan::window_t *,unsigned short,enum fan::key_state>::_Tidy
PUBLIC	?_Swap@?$_Func_class@XPEAUwindow_t@fan@@GW4key_state@2@@std@@IEAAXAEAV12@@Z ; std::_Func_class<void,fan::window_t *,unsigned short,enum fan::key_state>::_Swap
PUBLIC	?_Local@?$_Func_class@XPEAUwindow_t@fan@@GW4key_state@2@@std@@AEBA_NXZ ; std::_Func_class<void,fan::window_t *,unsigned short,enum fan::key_state>::_Local
PUBLIC	?_Getimpl@?$_Func_class@XPEAUwindow_t@fan@@GW4key_state@2@@std@@AEBAPEAV?$_Func_base@XPEAUwindow_t@fan@@GW4key_state@2@@2@XZ ; std::_Func_class<void,fan::window_t *,unsigned short,enum fan::key_state>::_Getimpl
PUBLIC	?_Set@?$_Func_class@XPEAUwindow_t@fan@@GW4key_state@2@@std@@AEAAXPEAV?$_Func_base@XPEAUwindow_t@fan@@GW4key_state@2@@2@@Z ; std::_Func_class<void,fan::window_t *,unsigned short,enum fan::key_state>::_Set
PUBLIC	??0?$function@$$A6AXPEAUwindow_t@fan@@GW4key_state@2@@Z@std@@QEAA@XZ ; std::function<void __cdecl(fan::window_t *,unsigned short,enum fan::key_state)>::function<void __cdecl(fan::window_t *,unsigned short,enum fan::key_state)>
PUBLIC	??0?$function@$$A6AXPEAUwindow_t@fan@@GW4key_state@2@@Z@std@@QEAA@AEBV01@@Z ; std::function<void __cdecl(fan::window_t *,unsigned short,enum fan::key_state)>::function<void __cdecl(fan::window_t *,unsigned short,enum fan::key_state)>
PUBLIC	??4?$function@$$A6AXPEAUwindow_t@fan@@GW4key_state@2@@Z@std@@QEAAAEAV01@AEBV01@@Z ; std::function<void __cdecl(fan::window_t *,unsigned short,enum fan::key_state)>::operator=
PUBLIC	?swap@?$function@$$A6AXPEAUwindow_t@fan@@GW4key_state@2@@Z@std@@QEAAXAEAV12@@Z ; std::function<void __cdecl(fan::window_t *,unsigned short,enum fan::key_state)>::swap
PUBLIC	??1?$function@$$A6AXPEAUwindow_t@fan@@GW4key_state@2@@Z@std@@QEAA@XZ ; std::function<void __cdecl(fan::window_t *,unsigned short,enum fan::key_state)>::~function<void __cdecl(fan::window_t *,unsigned short,enum fan::key_state)>
PUBLIC	??0buttons_callback_NodeData_t@window_t@fan@@QEAA@XZ ; fan::window_t::buttons_callback_NodeData_t::buttons_callback_NodeData_t
PUBLIC	??1buttons_callback_NodeData_t@window_t@fan@@QEAA@XZ ; fan::window_t::buttons_callback_NodeData_t::~buttons_callback_NodeData_t
PUBLIC	??_Gbuttons_callback_NodeData_t@window_t@fan@@QEAAPEAXI@Z ; fan::window_t::buttons_callback_NodeData_t::`scalar deleting destructor'
PUBLIC	?buttons_callback__NodeList_GetNodeSize@window_t@fan@@SAIPEAUbuttons_callback__NodeList_t@12@@Z ; fan::window_t::buttons_callback__NodeList_GetNodeSize
PUBLIC	?buttons_callback__NodeList_GetNode@window_t@fan@@SAPEAUbuttons_callback_Node_t@12@PEAUbuttons_callback__NodeList_t@12@I@Z ; fan::window_t::buttons_callback__NodeList_GetNode
PUBLIC	?buttons_callback__NodeList_GetBufferAmount@window_t@fan@@SAIPEAUbuttons_callback__NodeList_t@12@@Z ; fan::window_t::buttons_callback__NodeList_GetBufferAmount
PUBLIC	?buttons_callback__NodeList_Close@window_t@fan@@SAXPEAUbuttons_callback__NodeList_t@12@@Z ; fan::window_t::buttons_callback__NodeList_Close
PUBLIC	?buttons_callback__NodeList_Open@window_t@fan@@SAXPEAUbuttons_callback__NodeList_t@12@@Z ; fan::window_t::buttons_callback__NodeList_Open
PUBLIC	?buttons_callback__NodeList__AllocateBufferFromCurrent@window_t@fan@@SAXPEAUbuttons_callback__NodeList_t@12@@Z ; fan::window_t::buttons_callback__NodeList__AllocateBufferFromCurrent
PUBLIC	?buttons_callback__NodeList_AddEmpty@window_t@fan@@SAXPEAUbuttons_callback__NodeList_t@12@I@Z ; fan::window_t::buttons_callback__NodeList_AddEmpty
PUBLIC	?_GetNodeByReference@buttons_callback_t@window_t@fan@@QEAAPEAUbuttons_callback_Node_t@23@Ubuttons_callback_NodeReference_t@23@@Z ; fan::window_t::buttons_callback_t::_GetNodeByReference
PUBLIC	?_GetNRTHOfNode@buttons_callback_t@window_t@fan@@QEAAPEAUbuttons_callback_NodeReference_t@23@U423@I@Z ; fan::window_t::buttons_callback_t::_GetNRTHOfNode
PUBLIC	?GetNodeByReference@buttons_callback_t@window_t@fan@@QEAAPEAUbuttons_callback_Node_t@23@Ubuttons_callback_NodeReference_t@23@@Z ; fan::window_t::buttons_callback_t::GetNodeByReference
PUBLIC	?_Node_Construct@buttons_callback_t@window_t@fan@@QEAAXUbuttons_callback_NodeReference_t@23@@Z ; fan::window_t::buttons_callback_t::_Node_Construct
PUBLIC	?_Node_Destruct@buttons_callback_t@window_t@fan@@QEAAXUbuttons_callback_NodeReference_t@23@@Z ; fan::window_t::buttons_callback_t::_Node_Destruct
PUBLIC	?_NewNode_empty_NoConstruct@buttons_callback_t@window_t@fan@@QEAA?AUbuttons_callback_NodeReference_t@23@XZ ; fan::window_t::buttons_callback_t::_NewNode_empty_NoConstruct
PUBLIC	?NewNode_empty@buttons_callback_t@window_t@fan@@QEAA?AUbuttons_callback_NodeReference_t@23@XZ ; fan::window_t::buttons_callback_t::NewNode_empty
PUBLIC	?_NewNode_alloc_NoConstruct@buttons_callback_t@window_t@fan@@QEAA?AUbuttons_callback_NodeReference_t@23@XZ ; fan::window_t::buttons_callback_t::_NewNode_alloc_NoConstruct
PUBLIC	?NewNode_alloc@buttons_callback_t@window_t@fan@@QEAA?AUbuttons_callback_NodeReference_t@23@XZ ; fan::window_t::buttons_callback_t::NewNode_alloc
PUBLIC	?NewNodeLast_empty@buttons_callback_t@window_t@fan@@QEAA?AUbuttons_callback_NodeReference_t@23@XZ ; fan::window_t::buttons_callback_t::NewNodeLast_empty
PUBLIC	?NewNodeLast_alloc@buttons_callback_t@window_t@fan@@QEAA?AUbuttons_callback_NodeReference_t@23@XZ ; fan::window_t::buttons_callback_t::NewNodeLast_alloc
PUBLIC	?NewNodeLast@buttons_callback_t@window_t@fan@@QEAA?AUbuttons_callback_NodeReference_t@23@XZ ; fan::window_t::buttons_callback_t::NewNodeLast
PUBLIC	?_AfterInitNodes@buttons_callback_t@window_t@fan@@QEAAXXZ ; fan::window_t::buttons_callback_t::_AfterInitNodes
PUBLIC	?open@buttons_callback_t@window_t@fan@@QEAAXXZ	; fan::window_t::buttons_callback_t::open
PUBLIC	?close@buttons_callback_t@window_t@fan@@QEAAXXZ	; fan::window_t::buttons_callback_t::close
PUBLIC	?Unlink@buttons_callback_t@window_t@fan@@QEAAXUbuttons_callback_NodeReference_t@23@@Z ; fan::window_t::buttons_callback_t::Unlink
PUBLIC	?Recycle@buttons_callback_t@window_t@fan@@QEAAXUbuttons_callback_NodeReference_t@23@@Z ; fan::window_t::buttons_callback_t::Recycle
PUBLIC	?GetNodeFirst@buttons_callback_t@window_t@fan@@QEAA?AUbuttons_callback_NodeReference_t@23@XZ ; fan::window_t::buttons_callback_t::GetNodeFirst
PUBLIC	?StartSafeNext@buttons_callback_t@window_t@fan@@QEAAXUbuttons_callback_NodeReference_t@23@@Z ; fan::window_t::buttons_callback_t::StartSafeNext
PUBLIC	?EndSafeNext@buttons_callback_t@window_t@fan@@QEAA?AUbuttons_callback_NodeReference_t@23@XZ ; fan::window_t::buttons_callback_t::EndSafeNext
PUBLIC	??Abuttons_callback_t@window_t@fan@@QEAAAEAUbuttons_callback_NodeData_t@12@Ubuttons_callback_NodeReference_t@12@@Z ; fan::window_t::buttons_callback_t::operator[]
PUBLIC	?buttons_callback__NodeReference_Next@window_t@fan@@SA?AUbuttons_callback_NodeReference_t@12@PEAU312@PEAUbuttons_callback_t@12@@Z ; fan::window_t::buttons_callback__NodeReference_Next
PUBLIC	??8keys_callback_NodeReference_t@window_t@fan@@QEAA_NU012@@Z ; fan::window_t::keys_callback_NodeReference_t::operator==
PUBLIC	??9keys_callback_NodeReference_t@window_t@fan@@QEAA_NU012@@Z ; fan::window_t::keys_callback_NodeReference_t::operator!=
PUBLIC	??0keys_callback_NodeData_t@window_t@fan@@QEAA@XZ ; fan::window_t::keys_callback_NodeData_t::keys_callback_NodeData_t
PUBLIC	??1keys_callback_NodeData_t@window_t@fan@@QEAA@XZ ; fan::window_t::keys_callback_NodeData_t::~keys_callback_NodeData_t
PUBLIC	??_Gkeys_callback_NodeData_t@window_t@fan@@QEAAPEAXI@Z ; fan::window_t::keys_callback_NodeData_t::`scalar deleting destructor'
PUBLIC	?keys_callback__NodeList_GetNodeSize@window_t@fan@@SAIPEAUkeys_callback__NodeList_t@12@@Z ; fan::window_t::keys_callback__NodeList_GetNodeSize
PUBLIC	?keys_callback__NodeList_GetNode@window_t@fan@@SAPEAUkeys_callback_Node_t@12@PEAUkeys_callback__NodeList_t@12@I@Z ; fan::window_t::keys_callback__NodeList_GetNode
PUBLIC	?keys_callback__NodeList_GetBufferAmount@window_t@fan@@SAIPEAUkeys_callback__NodeList_t@12@@Z ; fan::window_t::keys_callback__NodeList_GetBufferAmount
PUBLIC	?keys_callback__NodeList_Close@window_t@fan@@SAXPEAUkeys_callback__NodeList_t@12@@Z ; fan::window_t::keys_callback__NodeList_Close
PUBLIC	?keys_callback__NodeList_Open@window_t@fan@@SAXPEAUkeys_callback__NodeList_t@12@@Z ; fan::window_t::keys_callback__NodeList_Open
PUBLIC	?keys_callback__NodeList__AllocateBufferFromCurrent@window_t@fan@@SAXPEAUkeys_callback__NodeList_t@12@@Z ; fan::window_t::keys_callback__NodeList__AllocateBufferFromCurrent
PUBLIC	?keys_callback__NodeList_AddEmpty@window_t@fan@@SAXPEAUkeys_callback__NodeList_t@12@I@Z ; fan::window_t::keys_callback__NodeList_AddEmpty
PUBLIC	?_GetNodeByReference@keys_callback_t@window_t@fan@@QEAAPEAUkeys_callback_Node_t@23@Ukeys_callback_NodeReference_t@23@@Z ; fan::window_t::keys_callback_t::_GetNodeByReference
PUBLIC	?_GetNRTHOfNode@keys_callback_t@window_t@fan@@QEAAPEAUkeys_callback_NodeReference_t@23@U423@I@Z ; fan::window_t::keys_callback_t::_GetNRTHOfNode
PUBLIC	?GetNodeByReference@keys_callback_t@window_t@fan@@QEAAPEAUkeys_callback_Node_t@23@Ukeys_callback_NodeReference_t@23@@Z ; fan::window_t::keys_callback_t::GetNodeByReference
PUBLIC	?_Node_Construct@keys_callback_t@window_t@fan@@QEAAXUkeys_callback_NodeReference_t@23@@Z ; fan::window_t::keys_callback_t::_Node_Construct
PUBLIC	?_Node_Destruct@keys_callback_t@window_t@fan@@QEAAXUkeys_callback_NodeReference_t@23@@Z ; fan::window_t::keys_callback_t::_Node_Destruct
PUBLIC	?_NewNode_empty_NoConstruct@keys_callback_t@window_t@fan@@QEAA?AUkeys_callback_NodeReference_t@23@XZ ; fan::window_t::keys_callback_t::_NewNode_empty_NoConstruct
PUBLIC	?NewNode_empty@keys_callback_t@window_t@fan@@QEAA?AUkeys_callback_NodeReference_t@23@XZ ; fan::window_t::keys_callback_t::NewNode_empty
PUBLIC	?_NewNode_alloc_NoConstruct@keys_callback_t@window_t@fan@@QEAA?AUkeys_callback_NodeReference_t@23@XZ ; fan::window_t::keys_callback_t::_NewNode_alloc_NoConstruct
PUBLIC	?NewNode_alloc@keys_callback_t@window_t@fan@@QEAA?AUkeys_callback_NodeReference_t@23@XZ ; fan::window_t::keys_callback_t::NewNode_alloc
PUBLIC	?NewNodeLast_empty@keys_callback_t@window_t@fan@@QEAA?AUkeys_callback_NodeReference_t@23@XZ ; fan::window_t::keys_callback_t::NewNodeLast_empty
PUBLIC	?NewNodeLast_alloc@keys_callback_t@window_t@fan@@QEAA?AUkeys_callback_NodeReference_t@23@XZ ; fan::window_t::keys_callback_t::NewNodeLast_alloc
PUBLIC	?NewNodeLast@keys_callback_t@window_t@fan@@QEAA?AUkeys_callback_NodeReference_t@23@XZ ; fan::window_t::keys_callback_t::NewNodeLast
PUBLIC	?_AfterInitNodes@keys_callback_t@window_t@fan@@QEAAXXZ ; fan::window_t::keys_callback_t::_AfterInitNodes
PUBLIC	?open@keys_callback_t@window_t@fan@@QEAAXXZ	; fan::window_t::keys_callback_t::open
PUBLIC	?close@keys_callback_t@window_t@fan@@QEAAXXZ	; fan::window_t::keys_callback_t::close
PUBLIC	?Unlink@keys_callback_t@window_t@fan@@QEAAXUkeys_callback_NodeReference_t@23@@Z ; fan::window_t::keys_callback_t::Unlink
PUBLIC	?Recycle@keys_callback_t@window_t@fan@@QEAAXUkeys_callback_NodeReference_t@23@@Z ; fan::window_t::keys_callback_t::Recycle
PUBLIC	?GetNodeFirst@keys_callback_t@window_t@fan@@QEAA?AUkeys_callback_NodeReference_t@23@XZ ; fan::window_t::keys_callback_t::GetNodeFirst
PUBLIC	?StartSafeNext@keys_callback_t@window_t@fan@@QEAAXUkeys_callback_NodeReference_t@23@@Z ; fan::window_t::keys_callback_t::StartSafeNext
PUBLIC	?EndSafeNext@keys_callback_t@window_t@fan@@QEAA?AUkeys_callback_NodeReference_t@23@XZ ; fan::window_t::keys_callback_t::EndSafeNext
PUBLIC	??Akeys_callback_t@window_t@fan@@QEAAAEAUkeys_callback_NodeData_t@12@Ukeys_callback_NodeReference_t@12@@Z ; fan::window_t::keys_callback_t::operator[]
PUBLIC	??8key_callback_NodeReference_t@window_t@fan@@QEAA_NU012@@Z ; fan::window_t::key_callback_NodeReference_t::operator==
PUBLIC	??9key_callback_NodeReference_t@window_t@fan@@QEAA_NU012@@Z ; fan::window_t::key_callback_NodeReference_t::operator!=
PUBLIC	??0key_callback_NodeData_t@window_t@fan@@QEAA@XZ ; fan::window_t::key_callback_NodeData_t::key_callback_NodeData_t
PUBLIC	??1key_callback_NodeData_t@window_t@fan@@QEAA@XZ ; fan::window_t::key_callback_NodeData_t::~key_callback_NodeData_t
PUBLIC	??_Gkey_callback_NodeData_t@window_t@fan@@QEAAPEAXI@Z ; fan::window_t::key_callback_NodeData_t::`scalar deleting destructor'
PUBLIC	?key_callback__NodeList_GetNodeSize@window_t@fan@@SAIPEAUkey_callback__NodeList_t@12@@Z ; fan::window_t::key_callback__NodeList_GetNodeSize
PUBLIC	?key_callback__NodeList_GetNode@window_t@fan@@SAPEAUkey_callback_Node_t@12@PEAUkey_callback__NodeList_t@12@I@Z ; fan::window_t::key_callback__NodeList_GetNode
PUBLIC	?key_callback__NodeList_GetBufferAmount@window_t@fan@@SAIPEAUkey_callback__NodeList_t@12@@Z ; fan::window_t::key_callback__NodeList_GetBufferAmount
PUBLIC	?key_callback__NodeList_Close@window_t@fan@@SAXPEAUkey_callback__NodeList_t@12@@Z ; fan::window_t::key_callback__NodeList_Close
PUBLIC	?key_callback__NodeList_Open@window_t@fan@@SAXPEAUkey_callback__NodeList_t@12@@Z ; fan::window_t::key_callback__NodeList_Open
PUBLIC	?key_callback__NodeList__AllocateBufferFromCurrent@window_t@fan@@SAXPEAUkey_callback__NodeList_t@12@@Z ; fan::window_t::key_callback__NodeList__AllocateBufferFromCurrent
PUBLIC	?key_callback__NodeList_AddEmpty@window_t@fan@@SAXPEAUkey_callback__NodeList_t@12@I@Z ; fan::window_t::key_callback__NodeList_AddEmpty
PUBLIC	?_GetNodeByReference@key_callback_t@window_t@fan@@QEAAPEAUkey_callback_Node_t@23@Ukey_callback_NodeReference_t@23@@Z ; fan::window_t::key_callback_t::_GetNodeByReference
PUBLIC	?_GetNRTHOfNode@key_callback_t@window_t@fan@@QEAAPEAUkey_callback_NodeReference_t@23@U423@I@Z ; fan::window_t::key_callback_t::_GetNRTHOfNode
PUBLIC	?GetNodeByReference@key_callback_t@window_t@fan@@QEAAPEAUkey_callback_Node_t@23@Ukey_callback_NodeReference_t@23@@Z ; fan::window_t::key_callback_t::GetNodeByReference
PUBLIC	?_Node_Construct@key_callback_t@window_t@fan@@QEAAXUkey_callback_NodeReference_t@23@@Z ; fan::window_t::key_callback_t::_Node_Construct
PUBLIC	?_Node_Destruct@key_callback_t@window_t@fan@@QEAAXUkey_callback_NodeReference_t@23@@Z ; fan::window_t::key_callback_t::_Node_Destruct
PUBLIC	?_NewNode_empty_NoConstruct@key_callback_t@window_t@fan@@QEAA?AUkey_callback_NodeReference_t@23@XZ ; fan::window_t::key_callback_t::_NewNode_empty_NoConstruct
PUBLIC	?NewNode_empty@key_callback_t@window_t@fan@@QEAA?AUkey_callback_NodeReference_t@23@XZ ; fan::window_t::key_callback_t::NewNode_empty
PUBLIC	?_NewNode_alloc_NoConstruct@key_callback_t@window_t@fan@@QEAA?AUkey_callback_NodeReference_t@23@XZ ; fan::window_t::key_callback_t::_NewNode_alloc_NoConstruct
PUBLIC	?NewNode_alloc@key_callback_t@window_t@fan@@QEAA?AUkey_callback_NodeReference_t@23@XZ ; fan::window_t::key_callback_t::NewNode_alloc
PUBLIC	?NewNodeLast_empty@key_callback_t@window_t@fan@@QEAA?AUkey_callback_NodeReference_t@23@XZ ; fan::window_t::key_callback_t::NewNodeLast_empty
PUBLIC	?NewNodeLast_alloc@key_callback_t@window_t@fan@@QEAA?AUkey_callback_NodeReference_t@23@XZ ; fan::window_t::key_callback_t::NewNodeLast_alloc
PUBLIC	?NewNodeLast@key_callback_t@window_t@fan@@QEAA?AUkey_callback_NodeReference_t@23@XZ ; fan::window_t::key_callback_t::NewNodeLast
PUBLIC	?_AfterInitNodes@key_callback_t@window_t@fan@@QEAAXXZ ; fan::window_t::key_callback_t::_AfterInitNodes
PUBLIC	?open@key_callback_t@window_t@fan@@QEAAXXZ	; fan::window_t::key_callback_t::open
PUBLIC	?close@key_callback_t@window_t@fan@@QEAAXXZ	; fan::window_t::key_callback_t::close
PUBLIC	?Unlink@key_callback_t@window_t@fan@@QEAAXUkey_callback_NodeReference_t@23@@Z ; fan::window_t::key_callback_t::Unlink
PUBLIC	?Recycle@key_callback_t@window_t@fan@@QEAAXUkey_callback_NodeReference_t@23@@Z ; fan::window_t::key_callback_t::Recycle
PUBLIC	?GetNodeFirst@key_callback_t@window_t@fan@@QEAA?AUkey_callback_NodeReference_t@23@XZ ; fan::window_t::key_callback_t::GetNodeFirst
PUBLIC	?StartSafeNext@key_callback_t@window_t@fan@@QEAAXUkey_callback_NodeReference_t@23@@Z ; fan::window_t::key_callback_t::StartSafeNext
PUBLIC	?EndSafeNext@key_callback_t@window_t@fan@@QEAA?AUkey_callback_NodeReference_t@23@XZ ; fan::window_t::key_callback_t::EndSafeNext
PUBLIC	??Akey_callback_t@window_t@fan@@QEAAAEAUkey_callback_NodeData_t@12@Ukey_callback_NodeReference_t@12@@Z ; fan::window_t::key_callback_t::operator[]
PUBLIC	?key_combo_callback__NodeList_GetNodeSize@window_t@fan@@SAIPEAUkey_combo_callback__NodeList_t@12@@Z ; fan::window_t::key_combo_callback__NodeList_GetNodeSize
PUBLIC	?key_combo_callback__NodeList_GetNode@window_t@fan@@SAPEAUkey_combo_callback_Node_t@12@PEAUkey_combo_callback__NodeList_t@12@I@Z ; fan::window_t::key_combo_callback__NodeList_GetNode
PUBLIC	?key_combo_callback__NodeList_GetBufferAmount@window_t@fan@@SAIPEAUkey_combo_callback__NodeList_t@12@@Z ; fan::window_t::key_combo_callback__NodeList_GetBufferAmount
PUBLIC	?key_combo_callback__NodeList_Close@window_t@fan@@SAXPEAUkey_combo_callback__NodeList_t@12@@Z ; fan::window_t::key_combo_callback__NodeList_Close
PUBLIC	?key_combo_callback__NodeList_Open@window_t@fan@@SAXPEAUkey_combo_callback__NodeList_t@12@@Z ; fan::window_t::key_combo_callback__NodeList_Open
PUBLIC	?key_combo_callback__NodeList__AllocateBufferFromCurrent@window_t@fan@@SAXPEAUkey_combo_callback__NodeList_t@12@@Z ; fan::window_t::key_combo_callback__NodeList__AllocateBufferFromCurrent
PUBLIC	?key_combo_callback__NodeList_AddEmpty@window_t@fan@@SAXPEAUkey_combo_callback__NodeList_t@12@I@Z ; fan::window_t::key_combo_callback__NodeList_AddEmpty
PUBLIC	?_GetNodeByReference@key_combo_callback_t@window_t@fan@@QEAAPEAUkey_combo_callback_Node_t@23@Ukey_combo_callback_NodeReference_t@23@@Z ; fan::window_t::key_combo_callback_t::_GetNodeByReference
PUBLIC	?_AfterInitNodes@key_combo_callback_t@window_t@fan@@QEAAXXZ ; fan::window_t::key_combo_callback_t::_AfterInitNodes
PUBLIC	?open@key_combo_callback_t@window_t@fan@@QEAAXXZ ; fan::window_t::key_combo_callback_t::open
PUBLIC	?close@key_combo_callback_t@window_t@fan@@QEAAXXZ ; fan::window_t::key_combo_callback_t::close
PUBLIC	??8text_callback_NodeReference_t@window_t@fan@@QEAA_NU012@@Z ; fan::window_t::text_callback_NodeReference_t::operator==
PUBLIC	??0?$_Func_class@XPEAUwindow_t@fan@@I@std@@QEAA@XZ ; std::_Func_class<void,fan::window_t *,unsigned int>::_Func_class<void,fan::window_t *,unsigned int>
PUBLIC	??1?$_Func_class@XPEAUwindow_t@fan@@I@std@@QEAA@XZ ; std::_Func_class<void,fan::window_t *,unsigned int>::~_Func_class<void,fan::window_t *,unsigned int>
PUBLIC	?_Empty@?$_Func_class@XPEAUwindow_t@fan@@I@std@@IEBA_NXZ ; std::_Func_class<void,fan::window_t *,unsigned int>::_Empty
PUBLIC	?_Reset_copy@?$_Func_class@XPEAUwindow_t@fan@@I@std@@IEAAXAEBV12@@Z ; std::_Func_class<void,fan::window_t *,unsigned int>::_Reset_copy
PUBLIC	?_Reset_move@?$_Func_class@XPEAUwindow_t@fan@@I@std@@IEAAX$$QEAV12@@Z ; std::_Func_class<void,fan::window_t *,unsigned int>::_Reset_move
PUBLIC	?_Tidy@?$_Func_class@XPEAUwindow_t@fan@@I@std@@IEAAXXZ ; std::_Func_class<void,fan::window_t *,unsigned int>::_Tidy
PUBLIC	?_Swap@?$_Func_class@XPEAUwindow_t@fan@@I@std@@IEAAXAEAV12@@Z ; std::_Func_class<void,fan::window_t *,unsigned int>::_Swap
PUBLIC	?_Local@?$_Func_class@XPEAUwindow_t@fan@@I@std@@AEBA_NXZ ; std::_Func_class<void,fan::window_t *,unsigned int>::_Local
PUBLIC	?_Getimpl@?$_Func_class@XPEAUwindow_t@fan@@I@std@@AEBAPEAV?$_Func_base@XPEAUwindow_t@fan@@I@2@XZ ; std::_Func_class<void,fan::window_t *,unsigned int>::_Getimpl
PUBLIC	?_Set@?$_Func_class@XPEAUwindow_t@fan@@I@std@@AEAAXPEAV?$_Func_base@XPEAUwindow_t@fan@@I@2@@Z ; std::_Func_class<void,fan::window_t *,unsigned int>::_Set
PUBLIC	??0?$function@$$A6AXPEAUwindow_t@fan@@I@Z@std@@QEAA@XZ ; std::function<void __cdecl(fan::window_t *,unsigned int)>::function<void __cdecl(fan::window_t *,unsigned int)>
PUBLIC	??0?$function@$$A6AXPEAUwindow_t@fan@@I@Z@std@@QEAA@AEBV01@@Z ; std::function<void __cdecl(fan::window_t *,unsigned int)>::function<void __cdecl(fan::window_t *,unsigned int)>
PUBLIC	??4?$function@$$A6AXPEAUwindow_t@fan@@I@Z@std@@QEAAAEAV01@AEBV01@@Z ; std::function<void __cdecl(fan::window_t *,unsigned int)>::operator=
PUBLIC	?swap@?$function@$$A6AXPEAUwindow_t@fan@@I@Z@std@@QEAAXAEAV12@@Z ; std::function<void __cdecl(fan::window_t *,unsigned int)>::swap
PUBLIC	??1?$function@$$A6AXPEAUwindow_t@fan@@I@Z@std@@QEAA@XZ ; std::function<void __cdecl(fan::window_t *,unsigned int)>::~function<void __cdecl(fan::window_t *,unsigned int)>
PUBLIC	??0text_callback_NodeData_t@window_t@fan@@QEAA@XZ ; fan::window_t::text_callback_NodeData_t::text_callback_NodeData_t
PUBLIC	??1text_callback_NodeData_t@window_t@fan@@QEAA@XZ ; fan::window_t::text_callback_NodeData_t::~text_callback_NodeData_t
PUBLIC	??_Gtext_callback_NodeData_t@window_t@fan@@QEAAPEAXI@Z ; fan::window_t::text_callback_NodeData_t::`scalar deleting destructor'
PUBLIC	?text_callback__NodeList_GetNodeSize@window_t@fan@@SAIPEAUtext_callback__NodeList_t@12@@Z ; fan::window_t::text_callback__NodeList_GetNodeSize
PUBLIC	?text_callback__NodeList_GetNode@window_t@fan@@SAPEAUtext_callback_Node_t@12@PEAUtext_callback__NodeList_t@12@I@Z ; fan::window_t::text_callback__NodeList_GetNode
PUBLIC	?text_callback__NodeList_GetBufferAmount@window_t@fan@@SAIPEAUtext_callback__NodeList_t@12@@Z ; fan::window_t::text_callback__NodeList_GetBufferAmount
PUBLIC	?text_callback__NodeList_Close@window_t@fan@@SAXPEAUtext_callback__NodeList_t@12@@Z ; fan::window_t::text_callback__NodeList_Close
PUBLIC	?text_callback__NodeList_Open@window_t@fan@@SAXPEAUtext_callback__NodeList_t@12@@Z ; fan::window_t::text_callback__NodeList_Open
PUBLIC	?text_callback__NodeList__AllocateBufferFromCurrent@window_t@fan@@SAXPEAUtext_callback__NodeList_t@12@@Z ; fan::window_t::text_callback__NodeList__AllocateBufferFromCurrent
PUBLIC	?text_callback__NodeList_AddEmpty@window_t@fan@@SAXPEAUtext_callback__NodeList_t@12@I@Z ; fan::window_t::text_callback__NodeList_AddEmpty
PUBLIC	?_GetNodeByReference@text_callback_t@window_t@fan@@QEAAPEAUtext_callback_Node_t@23@Utext_callback_NodeReference_t@23@@Z ; fan::window_t::text_callback_t::_GetNodeByReference
PUBLIC	?_GetNRTHOfNode@text_callback_t@window_t@fan@@QEAAPEAUtext_callback_NodeReference_t@23@U423@I@Z ; fan::window_t::text_callback_t::_GetNRTHOfNode
PUBLIC	?GetNodeByReference@text_callback_t@window_t@fan@@QEAAPEAUtext_callback_Node_t@23@Utext_callback_NodeReference_t@23@@Z ; fan::window_t::text_callback_t::GetNodeByReference
PUBLIC	?_Node_Construct@text_callback_t@window_t@fan@@QEAAXUtext_callback_NodeReference_t@23@@Z ; fan::window_t::text_callback_t::_Node_Construct
PUBLIC	?_Node_Destruct@text_callback_t@window_t@fan@@QEAAXUtext_callback_NodeReference_t@23@@Z ; fan::window_t::text_callback_t::_Node_Destruct
PUBLIC	?_NewNode_empty_NoConstruct@text_callback_t@window_t@fan@@QEAA?AUtext_callback_NodeReference_t@23@XZ ; fan::window_t::text_callback_t::_NewNode_empty_NoConstruct
PUBLIC	?NewNode_empty@text_callback_t@window_t@fan@@QEAA?AUtext_callback_NodeReference_t@23@XZ ; fan::window_t::text_callback_t::NewNode_empty
PUBLIC	?_NewNode_alloc_NoConstruct@text_callback_t@window_t@fan@@QEAA?AUtext_callback_NodeReference_t@23@XZ ; fan::window_t::text_callback_t::_NewNode_alloc_NoConstruct
PUBLIC	?NewNode_alloc@text_callback_t@window_t@fan@@QEAA?AUtext_callback_NodeReference_t@23@XZ ; fan::window_t::text_callback_t::NewNode_alloc
PUBLIC	?NewNodeLast_empty@text_callback_t@window_t@fan@@QEAA?AUtext_callback_NodeReference_t@23@XZ ; fan::window_t::text_callback_t::NewNodeLast_empty
PUBLIC	?NewNodeLast_alloc@text_callback_t@window_t@fan@@QEAA?AUtext_callback_NodeReference_t@23@XZ ; fan::window_t::text_callback_t::NewNodeLast_alloc
PUBLIC	?NewNodeLast@text_callback_t@window_t@fan@@QEAA?AUtext_callback_NodeReference_t@23@XZ ; fan::window_t::text_callback_t::NewNodeLast
PUBLIC	?_AfterInitNodes@text_callback_t@window_t@fan@@QEAAXXZ ; fan::window_t::text_callback_t::_AfterInitNodes
PUBLIC	?open@text_callback_t@window_t@fan@@QEAAXXZ	; fan::window_t::text_callback_t::open
PUBLIC	?close@text_callback_t@window_t@fan@@QEAAXXZ	; fan::window_t::text_callback_t::close
PUBLIC	?Unlink@text_callback_t@window_t@fan@@QEAAXUtext_callback_NodeReference_t@23@@Z ; fan::window_t::text_callback_t::Unlink
PUBLIC	?Recycle@text_callback_t@window_t@fan@@QEAAXUtext_callback_NodeReference_t@23@@Z ; fan::window_t::text_callback_t::Recycle
PUBLIC	??Atext_callback_t@window_t@fan@@QEAAAEAUtext_callback_NodeData_t@12@Utext_callback_NodeReference_t@12@@Z ; fan::window_t::text_callback_t::operator[]
PUBLIC	??8move_callback_NodeReference_t@window_t@fan@@QEAA_NU012@@Z ; fan::window_t::move_callback_NodeReference_t::operator==
PUBLIC	??9move_callback_NodeReference_t@window_t@fan@@QEAA_NU012@@Z ; fan::window_t::move_callback_NodeReference_t::operator!=
PUBLIC	?Next@move_callback_NodeReference_t@window_t@fan@@QEAA?AU123@PEAUmove_callback_t@23@@Z ; fan::window_t::move_callback_NodeReference_t::Next
PUBLIC	??0move_callback_NodeData_t@window_t@fan@@QEAA@XZ ; fan::window_t::move_callback_NodeData_t::move_callback_NodeData_t
PUBLIC	??1move_callback_NodeData_t@window_t@fan@@QEAA@XZ ; fan::window_t::move_callback_NodeData_t::~move_callback_NodeData_t
PUBLIC	??_Gmove_callback_NodeData_t@window_t@fan@@QEAAPEAXI@Z ; fan::window_t::move_callback_NodeData_t::`scalar deleting destructor'
PUBLIC	?move_callback__NodeList_GetNodeSize@window_t@fan@@SAIPEAUmove_callback__NodeList_t@12@@Z ; fan::window_t::move_callback__NodeList_GetNodeSize
PUBLIC	?move_callback__NodeList_GetNode@window_t@fan@@SAPEAUmove_callback_Node_t@12@PEAUmove_callback__NodeList_t@12@I@Z ; fan::window_t::move_callback__NodeList_GetNode
PUBLIC	?move_callback__NodeList_GetBufferAmount@window_t@fan@@SAIPEAUmove_callback__NodeList_t@12@@Z ; fan::window_t::move_callback__NodeList_GetBufferAmount
PUBLIC	?move_callback__NodeList_Close@window_t@fan@@SAXPEAUmove_callback__NodeList_t@12@@Z ; fan::window_t::move_callback__NodeList_Close
PUBLIC	?move_callback__NodeList_Open@window_t@fan@@SAXPEAUmove_callback__NodeList_t@12@@Z ; fan::window_t::move_callback__NodeList_Open
PUBLIC	?move_callback__NodeList__AllocateBufferFromCurrent@window_t@fan@@SAXPEAUmove_callback__NodeList_t@12@@Z ; fan::window_t::move_callback__NodeList__AllocateBufferFromCurrent
PUBLIC	?move_callback__NodeList_AddEmpty@window_t@fan@@SAXPEAUmove_callback__NodeList_t@12@I@Z ; fan::window_t::move_callback__NodeList_AddEmpty
PUBLIC	?_GetNodeByReference@move_callback_t@window_t@fan@@QEAAPEAUmove_callback_Node_t@23@Umove_callback_NodeReference_t@23@@Z ; fan::window_t::move_callback_t::_GetNodeByReference
PUBLIC	?_GetNRTHOfNode@move_callback_t@window_t@fan@@QEAAPEAUmove_callback_NodeReference_t@23@U423@I@Z ; fan::window_t::move_callback_t::_GetNRTHOfNode
PUBLIC	?GetNodeByReference@move_callback_t@window_t@fan@@QEAAPEAUmove_callback_Node_t@23@Umove_callback_NodeReference_t@23@@Z ; fan::window_t::move_callback_t::GetNodeByReference
PUBLIC	?_Node_Construct@move_callback_t@window_t@fan@@QEAAXUmove_callback_NodeReference_t@23@@Z ; fan::window_t::move_callback_t::_Node_Construct
PUBLIC	?_Node_Destruct@move_callback_t@window_t@fan@@QEAAXUmove_callback_NodeReference_t@23@@Z ; fan::window_t::move_callback_t::_Node_Destruct
PUBLIC	?_NewNode_empty_NoConstruct@move_callback_t@window_t@fan@@QEAA?AUmove_callback_NodeReference_t@23@XZ ; fan::window_t::move_callback_t::_NewNode_empty_NoConstruct
PUBLIC	?NewNode_empty@move_callback_t@window_t@fan@@QEAA?AUmove_callback_NodeReference_t@23@XZ ; fan::window_t::move_callback_t::NewNode_empty
PUBLIC	?_NewNode_alloc_NoConstruct@move_callback_t@window_t@fan@@QEAA?AUmove_callback_NodeReference_t@23@XZ ; fan::window_t::move_callback_t::_NewNode_alloc_NoConstruct
PUBLIC	?NewNode_alloc@move_callback_t@window_t@fan@@QEAA?AUmove_callback_NodeReference_t@23@XZ ; fan::window_t::move_callback_t::NewNode_alloc
PUBLIC	?NewNodeLast_empty@move_callback_t@window_t@fan@@QEAA?AUmove_callback_NodeReference_t@23@XZ ; fan::window_t::move_callback_t::NewNodeLast_empty
PUBLIC	?NewNodeLast_alloc@move_callback_t@window_t@fan@@QEAA?AUmove_callback_NodeReference_t@23@XZ ; fan::window_t::move_callback_t::NewNodeLast_alloc
PUBLIC	?NewNodeLast@move_callback_t@window_t@fan@@QEAA?AUmove_callback_NodeReference_t@23@XZ ; fan::window_t::move_callback_t::NewNodeLast
PUBLIC	?_AfterInitNodes@move_callback_t@window_t@fan@@QEAAXXZ ; fan::window_t::move_callback_t::_AfterInitNodes
PUBLIC	?open@move_callback_t@window_t@fan@@QEAAXXZ	; fan::window_t::move_callback_t::open
PUBLIC	?close@move_callback_t@window_t@fan@@QEAAXXZ	; fan::window_t::move_callback_t::close
PUBLIC	?Unlink@move_callback_t@window_t@fan@@QEAAXUmove_callback_NodeReference_t@23@@Z ; fan::window_t::move_callback_t::Unlink
PUBLIC	?Recycle@move_callback_t@window_t@fan@@QEAAXUmove_callback_NodeReference_t@23@@Z ; fan::window_t::move_callback_t::Recycle
PUBLIC	?GetNodeFirst@move_callback_t@window_t@fan@@QEAA?AUmove_callback_NodeReference_t@23@XZ ; fan::window_t::move_callback_t::GetNodeFirst
PUBLIC	??Amove_callback_t@window_t@fan@@QEAAAEAUmove_callback_NodeData_t@12@Umove_callback_NodeReference_t@12@@Z ; fan::window_t::move_callback_t::operator[]
PUBLIC	?move_callback__NodeReference_Next@window_t@fan@@SA?AUmove_callback_NodeReference_t@12@PEAU312@PEAUmove_callback_t@12@@Z ; fan::window_t::move_callback__NodeReference_Next
PUBLIC	??8resize_callback_NodeReference_t@window_t@fan@@QEAA_NU012@@Z ; fan::window_t::resize_callback_NodeReference_t::operator==
PUBLIC	??9resize_callback_NodeReference_t@window_t@fan@@QEAA_NU012@@Z ; fan::window_t::resize_callback_NodeReference_t::operator!=
PUBLIC	?Next@resize_callback_NodeReference_t@window_t@fan@@QEAA?AU123@PEAUresize_callback_t@23@@Z ; fan::window_t::resize_callback_NodeReference_t::Next
PUBLIC	??0?$_Func_class@XPEAUwindow_t@fan@@AEBV?$_vec2@H@2@@std@@QEAA@XZ ; std::_Func_class<void,fan::window_t *,fan::_vec2<int> const &>::_Func_class<void,fan::window_t *,fan::_vec2<int> const &>
PUBLIC	??R?$_Func_class@XPEAUwindow_t@fan@@AEBV?$_vec2@H@2@@std@@QEBAXPEAUwindow_t@fan@@AEBV?$_vec2@H@3@@Z ; std::_Func_class<void,fan::window_t *,fan::_vec2<int> const &>::operator()
PUBLIC	??1?$_Func_class@XPEAUwindow_t@fan@@AEBV?$_vec2@H@2@@std@@QEAA@XZ ; std::_Func_class<void,fan::window_t *,fan::_vec2<int> const &>::~_Func_class<void,fan::window_t *,fan::_vec2<int> const &>
PUBLIC	?_Empty@?$_Func_class@XPEAUwindow_t@fan@@AEBV?$_vec2@H@2@@std@@IEBA_NXZ ; std::_Func_class<void,fan::window_t *,fan::_vec2<int> const &>::_Empty
PUBLIC	?_Reset_copy@?$_Func_class@XPEAUwindow_t@fan@@AEBV?$_vec2@H@2@@std@@IEAAXAEBV12@@Z ; std::_Func_class<void,fan::window_t *,fan::_vec2<int> const &>::_Reset_copy
PUBLIC	?_Reset_move@?$_Func_class@XPEAUwindow_t@fan@@AEBV?$_vec2@H@2@@std@@IEAAX$$QEAV12@@Z ; std::_Func_class<void,fan::window_t *,fan::_vec2<int> const &>::_Reset_move
PUBLIC	?_Tidy@?$_Func_class@XPEAUwindow_t@fan@@AEBV?$_vec2@H@2@@std@@IEAAXXZ ; std::_Func_class<void,fan::window_t *,fan::_vec2<int> const &>::_Tidy
PUBLIC	?_Swap@?$_Func_class@XPEAUwindow_t@fan@@AEBV?$_vec2@H@2@@std@@IEAAXAEAV12@@Z ; std::_Func_class<void,fan::window_t *,fan::_vec2<int> const &>::_Swap
PUBLIC	?_Local@?$_Func_class@XPEAUwindow_t@fan@@AEBV?$_vec2@H@2@@std@@AEBA_NXZ ; std::_Func_class<void,fan::window_t *,fan::_vec2<int> const &>::_Local
PUBLIC	?_Getimpl@?$_Func_class@XPEAUwindow_t@fan@@AEBV?$_vec2@H@2@@std@@AEBAPEAV?$_Func_base@XPEAUwindow_t@fan@@AEBV?$_vec2@H@2@@2@XZ ; std::_Func_class<void,fan::window_t *,fan::_vec2<int> const &>::_Getimpl
PUBLIC	?_Set@?$_Func_class@XPEAUwindow_t@fan@@AEBV?$_vec2@H@2@@std@@AEAAXPEAV?$_Func_base@XPEAUwindow_t@fan@@AEBV?$_vec2@H@2@@2@@Z ; std::_Func_class<void,fan::window_t *,fan::_vec2<int> const &>::_Set
PUBLIC	??0?$function@$$A6AXPEAUwindow_t@fan@@AEBV?$_vec2@H@2@@Z@std@@QEAA@XZ ; std::function<void __cdecl(fan::window_t *,fan::_vec2<int> const &)>::function<void __cdecl(fan::window_t *,fan::_vec2<int> const &)>
PUBLIC	??0?$function@$$A6AXPEAUwindow_t@fan@@AEBV?$_vec2@H@2@@Z@std@@QEAA@AEBV01@@Z ; std::function<void __cdecl(fan::window_t *,fan::_vec2<int> const &)>::function<void __cdecl(fan::window_t *,fan::_vec2<int> const &)>
PUBLIC	??4?$function@$$A6AXPEAUwindow_t@fan@@AEBV?$_vec2@H@2@@Z@std@@QEAAAEAV01@AEBV01@@Z ; std::function<void __cdecl(fan::window_t *,fan::_vec2<int> const &)>::operator=
PUBLIC	?swap@?$function@$$A6AXPEAUwindow_t@fan@@AEBV?$_vec2@H@2@@Z@std@@QEAAXAEAV12@@Z ; std::function<void __cdecl(fan::window_t *,fan::_vec2<int> const &)>::swap
PUBLIC	??1?$function@$$A6AXPEAUwindow_t@fan@@AEBV?$_vec2@H@2@@Z@std@@QEAA@XZ ; std::function<void __cdecl(fan::window_t *,fan::_vec2<int> const &)>::~function<void __cdecl(fan::window_t *,fan::_vec2<int> const &)>
PUBLIC	??0resize_callback_NodeData_t@window_t@fan@@QEAA@XZ ; fan::window_t::resize_callback_NodeData_t::resize_callback_NodeData_t
PUBLIC	??1resize_callback_NodeData_t@window_t@fan@@QEAA@XZ ; fan::window_t::resize_callback_NodeData_t::~resize_callback_NodeData_t
PUBLIC	??_Gresize_callback_NodeData_t@window_t@fan@@QEAAPEAXI@Z ; fan::window_t::resize_callback_NodeData_t::`scalar deleting destructor'
PUBLIC	?resize_callback__NodeList_GetNodeSize@window_t@fan@@SAIPEAUresize_callback__NodeList_t@12@@Z ; fan::window_t::resize_callback__NodeList_GetNodeSize
PUBLIC	?resize_callback__NodeList_GetNode@window_t@fan@@SAPEAUresize_callback_Node_t@12@PEAUresize_callback__NodeList_t@12@I@Z ; fan::window_t::resize_callback__NodeList_GetNode
PUBLIC	?resize_callback__NodeList_GetBufferAmount@window_t@fan@@SAIPEAUresize_callback__NodeList_t@12@@Z ; fan::window_t::resize_callback__NodeList_GetBufferAmount
PUBLIC	?resize_callback__NodeList_Close@window_t@fan@@SAXPEAUresize_callback__NodeList_t@12@@Z ; fan::window_t::resize_callback__NodeList_Close
PUBLIC	?resize_callback__NodeList_Open@window_t@fan@@SAXPEAUresize_callback__NodeList_t@12@@Z ; fan::window_t::resize_callback__NodeList_Open
PUBLIC	?resize_callback__NodeList__AllocateBufferFromCurrent@window_t@fan@@SAXPEAUresize_callback__NodeList_t@12@@Z ; fan::window_t::resize_callback__NodeList__AllocateBufferFromCurrent
PUBLIC	?resize_callback__NodeList_AddEmpty@window_t@fan@@SAXPEAUresize_callback__NodeList_t@12@I@Z ; fan::window_t::resize_callback__NodeList_AddEmpty
PUBLIC	?_GetNodeByReference@resize_callback_t@window_t@fan@@QEAAPEAUresize_callback_Node_t@23@Uresize_callback_NodeReference_t@23@@Z ; fan::window_t::resize_callback_t::_GetNodeByReference
PUBLIC	?_GetNRTHOfNode@resize_callback_t@window_t@fan@@QEAAPEAUresize_callback_NodeReference_t@23@U423@I@Z ; fan::window_t::resize_callback_t::_GetNRTHOfNode
PUBLIC	?GetNodeByReference@resize_callback_t@window_t@fan@@QEAAPEAUresize_callback_Node_t@23@Uresize_callback_NodeReference_t@23@@Z ; fan::window_t::resize_callback_t::GetNodeByReference
PUBLIC	?_Node_Construct@resize_callback_t@window_t@fan@@QEAAXUresize_callback_NodeReference_t@23@@Z ; fan::window_t::resize_callback_t::_Node_Construct
PUBLIC	?_Node_Destruct@resize_callback_t@window_t@fan@@QEAAXUresize_callback_NodeReference_t@23@@Z ; fan::window_t::resize_callback_t::_Node_Destruct
PUBLIC	?_NewNode_empty_NoConstruct@resize_callback_t@window_t@fan@@QEAA?AUresize_callback_NodeReference_t@23@XZ ; fan::window_t::resize_callback_t::_NewNode_empty_NoConstruct
PUBLIC	?NewNode_empty@resize_callback_t@window_t@fan@@QEAA?AUresize_callback_NodeReference_t@23@XZ ; fan::window_t::resize_callback_t::NewNode_empty
PUBLIC	?_NewNode_alloc_NoConstruct@resize_callback_t@window_t@fan@@QEAA?AUresize_callback_NodeReference_t@23@XZ ; fan::window_t::resize_callback_t::_NewNode_alloc_NoConstruct
PUBLIC	?NewNode_alloc@resize_callback_t@window_t@fan@@QEAA?AUresize_callback_NodeReference_t@23@XZ ; fan::window_t::resize_callback_t::NewNode_alloc
PUBLIC	?NewNodeLast_empty@resize_callback_t@window_t@fan@@QEAA?AUresize_callback_NodeReference_t@23@XZ ; fan::window_t::resize_callback_t::NewNodeLast_empty
PUBLIC	?NewNodeLast_alloc@resize_callback_t@window_t@fan@@QEAA?AUresize_callback_NodeReference_t@23@XZ ; fan::window_t::resize_callback_t::NewNodeLast_alloc
PUBLIC	?NewNodeLast@resize_callback_t@window_t@fan@@QEAA?AUresize_callback_NodeReference_t@23@XZ ; fan::window_t::resize_callback_t::NewNodeLast
PUBLIC	?_AfterInitNodes@resize_callback_t@window_t@fan@@QEAAXXZ ; fan::window_t::resize_callback_t::_AfterInitNodes
PUBLIC	?open@resize_callback_t@window_t@fan@@QEAAXXZ	; fan::window_t::resize_callback_t::open
PUBLIC	?close@resize_callback_t@window_t@fan@@QEAAXXZ	; fan::window_t::resize_callback_t::close
PUBLIC	?Unlink@resize_callback_t@window_t@fan@@QEAAXUresize_callback_NodeReference_t@23@@Z ; fan::window_t::resize_callback_t::Unlink
PUBLIC	?Recycle@resize_callback_t@window_t@fan@@QEAAXUresize_callback_NodeReference_t@23@@Z ; fan::window_t::resize_callback_t::Recycle
PUBLIC	?GetNodeFirst@resize_callback_t@window_t@fan@@QEAA?AUresize_callback_NodeReference_t@23@XZ ; fan::window_t::resize_callback_t::GetNodeFirst
PUBLIC	??Aresize_callback_t@window_t@fan@@QEAAAEAUresize_callback_NodeData_t@12@Uresize_callback_NodeReference_t@12@@Z ; fan::window_t::resize_callback_t::operator[]
PUBLIC	?resize_callback__NodeReference_Next@window_t@fan@@SA?AUresize_callback_NodeReference_t@12@PEAU312@PEAUresize_callback_t@12@@Z ; fan::window_t::resize_callback__NodeReference_Next
PUBLIC	??8close_callback_NodeReference_t@window_t@fan@@QEAA_NU012@@Z ; fan::window_t::close_callback_NodeReference_t::operator==
PUBLIC	??9close_callback_NodeReference_t@window_t@fan@@QEAA_NU012@@Z ; fan::window_t::close_callback_NodeReference_t::operator!=
PUBLIC	?Next@close_callback_NodeReference_t@window_t@fan@@QEAA?AU123@PEAUclose_callback_t@23@@Z ; fan::window_t::close_callback_NodeReference_t::Next
PUBLIC	??0close_callback_NodeData_t@window_t@fan@@QEAA@XZ ; fan::window_t::close_callback_NodeData_t::close_callback_NodeData_t
PUBLIC	??1close_callback_NodeData_t@window_t@fan@@QEAA@XZ ; fan::window_t::close_callback_NodeData_t::~close_callback_NodeData_t
PUBLIC	??_Gclose_callback_NodeData_t@window_t@fan@@QEAAPEAXI@Z ; fan::window_t::close_callback_NodeData_t::`scalar deleting destructor'
PUBLIC	?close_callback__NodeList_GetNodeSize@window_t@fan@@SAIPEAUclose_callback__NodeList_t@12@@Z ; fan::window_t::close_callback__NodeList_GetNodeSize
PUBLIC	?close_callback__NodeList_GetNode@window_t@fan@@SAPEAUclose_callback_Node_t@12@PEAUclose_callback__NodeList_t@12@I@Z ; fan::window_t::close_callback__NodeList_GetNode
PUBLIC	?close_callback__NodeList_GetBufferAmount@window_t@fan@@SAIPEAUclose_callback__NodeList_t@12@@Z ; fan::window_t::close_callback__NodeList_GetBufferAmount
PUBLIC	?close_callback__NodeList_Close@window_t@fan@@SAXPEAUclose_callback__NodeList_t@12@@Z ; fan::window_t::close_callback__NodeList_Close
PUBLIC	?close_callback__NodeList_Open@window_t@fan@@SAXPEAUclose_callback__NodeList_t@12@@Z ; fan::window_t::close_callback__NodeList_Open
PUBLIC	?close_callback__NodeList__AllocateBufferFromCurrent@window_t@fan@@SAXPEAUclose_callback__NodeList_t@12@@Z ; fan::window_t::close_callback__NodeList__AllocateBufferFromCurrent
PUBLIC	?close_callback__NodeList_AddEmpty@window_t@fan@@SAXPEAUclose_callback__NodeList_t@12@I@Z ; fan::window_t::close_callback__NodeList_AddEmpty
PUBLIC	?_GetNodeByReference@close_callback_t@window_t@fan@@QEAAPEAUclose_callback_Node_t@23@Uclose_callback_NodeReference_t@23@@Z ; fan::window_t::close_callback_t::_GetNodeByReference
PUBLIC	?_GetNRTHOfNode@close_callback_t@window_t@fan@@QEAAPEAUclose_callback_NodeReference_t@23@U423@I@Z ; fan::window_t::close_callback_t::_GetNRTHOfNode
PUBLIC	?GetNodeByReference@close_callback_t@window_t@fan@@QEAAPEAUclose_callback_Node_t@23@Uclose_callback_NodeReference_t@23@@Z ; fan::window_t::close_callback_t::GetNodeByReference
PUBLIC	?_Node_Construct@close_callback_t@window_t@fan@@QEAAXUclose_callback_NodeReference_t@23@@Z ; fan::window_t::close_callback_t::_Node_Construct
PUBLIC	?_Node_Destruct@close_callback_t@window_t@fan@@QEAAXUclose_callback_NodeReference_t@23@@Z ; fan::window_t::close_callback_t::_Node_Destruct
PUBLIC	?_NewNode_empty_NoConstruct@close_callback_t@window_t@fan@@QEAA?AUclose_callback_NodeReference_t@23@XZ ; fan::window_t::close_callback_t::_NewNode_empty_NoConstruct
PUBLIC	?NewNode_empty@close_callback_t@window_t@fan@@QEAA?AUclose_callback_NodeReference_t@23@XZ ; fan::window_t::close_callback_t::NewNode_empty
PUBLIC	?_NewNode_alloc_NoConstruct@close_callback_t@window_t@fan@@QEAA?AUclose_callback_NodeReference_t@23@XZ ; fan::window_t::close_callback_t::_NewNode_alloc_NoConstruct
PUBLIC	?NewNode_alloc@close_callback_t@window_t@fan@@QEAA?AUclose_callback_NodeReference_t@23@XZ ; fan::window_t::close_callback_t::NewNode_alloc
PUBLIC	?NewNodeLast_empty@close_callback_t@window_t@fan@@QEAA?AUclose_callback_NodeReference_t@23@XZ ; fan::window_t::close_callback_t::NewNodeLast_empty
PUBLIC	?NewNodeLast_alloc@close_callback_t@window_t@fan@@QEAA?AUclose_callback_NodeReference_t@23@XZ ; fan::window_t::close_callback_t::NewNodeLast_alloc
PUBLIC	?NewNodeLast@close_callback_t@window_t@fan@@QEAA?AUclose_callback_NodeReference_t@23@XZ ; fan::window_t::close_callback_t::NewNodeLast
PUBLIC	?_AfterInitNodes@close_callback_t@window_t@fan@@QEAAXXZ ; fan::window_t::close_callback_t::_AfterInitNodes
PUBLIC	?open@close_callback_t@window_t@fan@@QEAAXXZ	; fan::window_t::close_callback_t::open
PUBLIC	?close@close_callback_t@window_t@fan@@QEAAXXZ	; fan::window_t::close_callback_t::close
PUBLIC	?Unlink@close_callback_t@window_t@fan@@QEAAXUclose_callback_NodeReference_t@23@@Z ; fan::window_t::close_callback_t::Unlink
PUBLIC	?Recycle@close_callback_t@window_t@fan@@QEAAXUclose_callback_NodeReference_t@23@@Z ; fan::window_t::close_callback_t::Recycle
PUBLIC	?GetNodeFirst@close_callback_t@window_t@fan@@QEAA?AUclose_callback_NodeReference_t@23@XZ ; fan::window_t::close_callback_t::GetNodeFirst
PUBLIC	??Aclose_callback_t@window_t@fan@@QEAAAEAUclose_callback_NodeData_t@12@Uclose_callback_NodeReference_t@12@@Z ; fan::window_t::close_callback_t::operator[]
PUBLIC	?close_callback__NodeReference_Next@window_t@fan@@SA?AUclose_callback_NodeReference_t@12@PEAU312@PEAUclose_callback_t@12@@Z ; fan::window_t::close_callback__NodeReference_Next
PUBLIC	??8mouse_position_callback_NodeReference_t@window_t@fan@@QEAA_NU012@@Z ; fan::window_t::mouse_position_callback_NodeReference_t::operator==
PUBLIC	??9mouse_position_callback_NodeReference_t@window_t@fan@@QEAA_NU012@@Z ; fan::window_t::mouse_position_callback_NodeReference_t::operator!=
PUBLIC	??0mouse_position_callback_NodeData_t@window_t@fan@@QEAA@XZ ; fan::window_t::mouse_position_callback_NodeData_t::mouse_position_callback_NodeData_t
PUBLIC	??1mouse_position_callback_NodeData_t@window_t@fan@@QEAA@XZ ; fan::window_t::mouse_position_callback_NodeData_t::~mouse_position_callback_NodeData_t
PUBLIC	??_Gmouse_position_callback_NodeData_t@window_t@fan@@QEAAPEAXI@Z ; fan::window_t::mouse_position_callback_NodeData_t::`scalar deleting destructor'
PUBLIC	?mouse_position_callback__NodeList_GetNodeSize@window_t@fan@@SAIPEAUmouse_position_callback__NodeList_t@12@@Z ; fan::window_t::mouse_position_callback__NodeList_GetNodeSize
PUBLIC	?mouse_position_callback__NodeList_GetNode@window_t@fan@@SAPEAUmouse_position_callback_Node_t@12@PEAUmouse_position_callback__NodeList_t@12@I@Z ; fan::window_t::mouse_position_callback__NodeList_GetNode
PUBLIC	?mouse_position_callback__NodeList_GetBufferAmount@window_t@fan@@SAIPEAUmouse_position_callback__NodeList_t@12@@Z ; fan::window_t::mouse_position_callback__NodeList_GetBufferAmount
PUBLIC	?mouse_position_callback__NodeList_Close@window_t@fan@@SAXPEAUmouse_position_callback__NodeList_t@12@@Z ; fan::window_t::mouse_position_callback__NodeList_Close
PUBLIC	?mouse_position_callback__NodeList_Open@window_t@fan@@SAXPEAUmouse_position_callback__NodeList_t@12@@Z ; fan::window_t::mouse_position_callback__NodeList_Open
PUBLIC	?mouse_position_callback__NodeList__AllocateBufferFromCurrent@window_t@fan@@SAXPEAUmouse_position_callback__NodeList_t@12@@Z ; fan::window_t::mouse_position_callback__NodeList__AllocateBufferFromCurrent
PUBLIC	?mouse_position_callback__NodeList_AddEmpty@window_t@fan@@SAXPEAUmouse_position_callback__NodeList_t@12@I@Z ; fan::window_t::mouse_position_callback__NodeList_AddEmpty
PUBLIC	?_GetNodeByReference@mouse_position_callback_t@window_t@fan@@QEAAPEAUmouse_position_callback_Node_t@23@Umouse_position_callback_NodeReference_t@23@@Z ; fan::window_t::mouse_position_callback_t::_GetNodeByReference
PUBLIC	?_GetNRTHOfNode@mouse_position_callback_t@window_t@fan@@QEAAPEAUmouse_position_callback_NodeReference_t@23@U423@I@Z ; fan::window_t::mouse_position_callback_t::_GetNRTHOfNode
PUBLIC	?GetNodeByReference@mouse_position_callback_t@window_t@fan@@QEAAPEAUmouse_position_callback_Node_t@23@Umouse_position_callback_NodeReference_t@23@@Z ; fan::window_t::mouse_position_callback_t::GetNodeByReference
PUBLIC	?_Node_Construct@mouse_position_callback_t@window_t@fan@@QEAAXUmouse_position_callback_NodeReference_t@23@@Z ; fan::window_t::mouse_position_callback_t::_Node_Construct
PUBLIC	?_Node_Destruct@mouse_position_callback_t@window_t@fan@@QEAAXUmouse_position_callback_NodeReference_t@23@@Z ; fan::window_t::mouse_position_callback_t::_Node_Destruct
PUBLIC	?_NewNode_empty_NoConstruct@mouse_position_callback_t@window_t@fan@@QEAA?AUmouse_position_callback_NodeReference_t@23@XZ ; fan::window_t::mouse_position_callback_t::_NewNode_empty_NoConstruct
PUBLIC	?NewNode_empty@mouse_position_callback_t@window_t@fan@@QEAA?AUmouse_position_callback_NodeReference_t@23@XZ ; fan::window_t::mouse_position_callback_t::NewNode_empty
PUBLIC	?_NewNode_alloc_NoConstruct@mouse_position_callback_t@window_t@fan@@QEAA?AUmouse_position_callback_NodeReference_t@23@XZ ; fan::window_t::mouse_position_callback_t::_NewNode_alloc_NoConstruct
PUBLIC	?NewNode_alloc@mouse_position_callback_t@window_t@fan@@QEAA?AUmouse_position_callback_NodeReference_t@23@XZ ; fan::window_t::mouse_position_callback_t::NewNode_alloc
PUBLIC	?NewNodeLast_empty@mouse_position_callback_t@window_t@fan@@QEAA?AUmouse_position_callback_NodeReference_t@23@XZ ; fan::window_t::mouse_position_callback_t::NewNodeLast_empty
PUBLIC	?NewNodeLast_alloc@mouse_position_callback_t@window_t@fan@@QEAA?AUmouse_position_callback_NodeReference_t@23@XZ ; fan::window_t::mouse_position_callback_t::NewNodeLast_alloc
PUBLIC	?NewNodeLast@mouse_position_callback_t@window_t@fan@@QEAA?AUmouse_position_callback_NodeReference_t@23@XZ ; fan::window_t::mouse_position_callback_t::NewNodeLast
PUBLIC	?_AfterInitNodes@mouse_position_callback_t@window_t@fan@@QEAAXXZ ; fan::window_t::mouse_position_callback_t::_AfterInitNodes
PUBLIC	?open@mouse_position_callback_t@window_t@fan@@QEAAXXZ ; fan::window_t::mouse_position_callback_t::open
PUBLIC	?close@mouse_position_callback_t@window_t@fan@@QEAAXXZ ; fan::window_t::mouse_position_callback_t::close
PUBLIC	?Unlink@mouse_position_callback_t@window_t@fan@@QEAAXUmouse_position_callback_NodeReference_t@23@@Z ; fan::window_t::mouse_position_callback_t::Unlink
PUBLIC	?Recycle@mouse_position_callback_t@window_t@fan@@QEAAXUmouse_position_callback_NodeReference_t@23@@Z ; fan::window_t::mouse_position_callback_t::Recycle
PUBLIC	?GetNodeFirst@mouse_position_callback_t@window_t@fan@@QEAA?AUmouse_position_callback_NodeReference_t@23@XZ ; fan::window_t::mouse_position_callback_t::GetNodeFirst
PUBLIC	?StartSafeNext@mouse_position_callback_t@window_t@fan@@QEAAXUmouse_position_callback_NodeReference_t@23@@Z ; fan::window_t::mouse_position_callback_t::StartSafeNext
PUBLIC	?EndSafeNext@mouse_position_callback_t@window_t@fan@@QEAA?AUmouse_position_callback_NodeReference_t@23@XZ ; fan::window_t::mouse_position_callback_t::EndSafeNext
PUBLIC	??Amouse_position_callback_t@window_t@fan@@QEAAAEAUmouse_position_callback_NodeData_t@12@Umouse_position_callback_NodeReference_t@12@@Z ; fan::window_t::mouse_position_callback_t::operator[]
PUBLIC	?add_buttons_callback@window_t@fan@@QEAA?AUbuttons_callback_NodeReference_t@12@V?$function@$$A6AXPEAUwindow_t@fan@@GW4key_state@2@@Z@std@@@Z ; fan::window_t::add_buttons_callback
PUBLIC	?remove_buttons_callback@window_t@fan@@QEAAXUbuttons_callback_NodeReference_t@12@@Z ; fan::window_t::remove_buttons_callback
PUBLIC	?add_keys_callback@window_t@fan@@QEAA?AUkeys_callback_NodeReference_t@12@V?$function@$$A6AXPEAUwindow_t@fan@@GW4key_state@2@@Z@std@@@Z ; fan::window_t::add_keys_callback
PUBLIC	?remove_keys_callback@window_t@fan@@QEAAXUkeys_callback_NodeReference_t@12@@Z ; fan::window_t::remove_keys_callback
PUBLIC	?add_key_callback@window_t@fan@@QEAA?AUkey_callback_NodeReference_t@12@GW4key_state@2@V?$function@$$A6AXPEAUwindow_t@fan@@G@Z@std@@@Z ; fan::window_t::add_key_callback
PUBLIC	?edit_key_callback@window_t@fan@@QEAAXUkey_callback_NodeReference_t@12@GW4key_state@2@@Z ; fan::window_t::edit_key_callback
PUBLIC	?remove_key_callback@window_t@fan@@QEAAXUkey_callback_NodeReference_t@12@@Z ; fan::window_t::remove_key_callback
PUBLIC	?add_key_combo_callback@window_t@fan@@QEAA?AUkey_combo_callback_NodeReference_t@12@PEAGIV?$function@$$A6AXPEAUwindow_t@fan@@@Z@std@@@Z ; fan::window_t::add_key_combo_callback
PUBLIC	?add_text_callback@window_t@fan@@QEAA?AUtext_callback_NodeReference_t@12@V?$function@$$A6AXPEAUwindow_t@fan@@I@Z@std@@@Z ; fan::window_t::add_text_callback
PUBLIC	?remove_text_callback@window_t@fan@@QEAAXUtext_callback_NodeReference_t@12@@Z ; fan::window_t::remove_text_callback
PUBLIC	?add_close_callback@window_t@fan@@QEAA?AUclose_callback_NodeReference_t@12@V?$function@$$A6AXPEAUwindow_t@fan@@@Z@std@@@Z ; fan::window_t::add_close_callback
PUBLIC	?remove_close_callback@window_t@fan@@QEAAXUclose_callback_NodeReference_t@12@@Z ; fan::window_t::remove_close_callback
PUBLIC	?add_mouse_move_callback@window_t@fan@@QEAA?AUmouse_position_callback_NodeReference_t@12@V?$function@$$A6AXPEAUwindow_t@fan@@AEBV?$_vec2@H@2@@Z@std@@@Z ; fan::window_t::add_mouse_move_callback
PUBLIC	?remove_mouse_move_callback@window_t@fan@@QEAAXUmouse_position_callback_NodeReference_t@12@@Z ; fan::window_t::remove_mouse_move_callback
PUBLIC	?add_resize_callback@window_t@fan@@QEAA?AUresize_callback_NodeReference_t@12@V?$function@$$A6AXPEAUwindow_t@fan@@AEBV?$_vec2@H@2@@Z@std@@@Z ; fan::window_t::add_resize_callback
PUBLIC	?remove_resize_callback@window_t@fan@@QEAAXUresize_callback_NodeReference_t@12@@Z ; fan::window_t::remove_resize_callback
PUBLIC	?add_move_callback@window_t@fan@@QEAA?AUmove_callback_NodeReference_t@12@V?$function@$$A6AXPEAUwindow_t@fan@@@Z@std@@@Z ; fan::window_t::add_move_callback
PUBLIC	?remove_move_callback@window_t@fan@@QEAAXUmove_callback_NodeReference_t@12@@Z ; fan::window_t::remove_move_callback
PUBLIC	?set_background_color@window_t@fan@@QEAAXAEBVcolor@2@@Z ; fan::window_t::set_background_color
PUBLIC	?get_handle@window_t@fan@@QEBAPEAUHWND__@@XZ	; fan::window_t::get_handle
PUBLIC	?get_fps@window_t@fan@@QEAA_K_N0@Z		; fan::window_t::get_fps
PUBLIC	?focused@window_t@fan@@QEBA_NXZ			; fan::window_t::focused
PUBLIC	?destroy_window@window_t@fan@@QEAAXXZ		; fan::window_t::destroy_window
PUBLIC	?get_current_key@window_t@fan@@QEBAGXZ		; fan::window_t::get_current_key
PUBLIC	?get_raw_mouse_offset@window_t@fan@@QEBA?AV?$_vec2@H@2@XZ ; fan::window_t::get_raw_mouse_offset
PUBLIC	?handle_events@window_t@fan@@QEAAIXZ		; fan::window_t::handle_events
PUBLIC	?key_pressed@window_t@fan@@QEBA_NG@Z		; fan::window_t::key_pressed
PUBLIC	?window_input_action@window_t@fan@@SAXPEAUHWND__@@G@Z ; fan::window_t::window_input_action
PUBLIC	?window_input_mouse_action@window_t@fan@@SAXPEAUHWND__@@G@Z ; fan::window_t::window_input_mouse_action
PUBLIC	?window_input_up@window_t@fan@@SAXPEAUHWND__@@G@Z ; fan::window_t::window_input_up
PUBLIC	?window_input_action_reset@window_t@fan@@SAXPEAUHWND__@@G@Z ; fan::window_t::window_input_action_reset
PUBLIC	?window_proc@window_t@fan@@SA_JPEAUHWND__@@I_K_J@Z ; fan::window_t::window_proc
PUBLIC	?initialize_window@window_t@fan@@QEAAXAEBV?$basic_string@DU?$char_traits@D@std@@V?$allocator@D@2@@std@@AEBV?$_vec2@H@2@_K@Z ; fan::window_t::initialize_window
PUBLIC	??$?0H@?$_vec2@M@fan@@QEAA@$$QEAV?$_vec2@H@1@@Z	; fan::_vec2<float>::_vec2<float><int>
PUBLIC	??$print@$$BY0DA@DK@fan@@YAXAEAY0DA@$$CBDAEBK@Z	; fan::print<char [48],unsigned long>
PUBLIC	??$?KH@?$_vec2@H@fan@@QEBA?AV01@H@Z		; fan::_vec2<int>::operator/<int>
PUBLIC	??$?GH@?$_vec2@H@fan@@QEBA?AV01@AEBV01@@Z	; fan::_vec2<int>::operator-<int>
PUBLIC	??0?$base_time_unit@$01@time@fan@@QEAA@_K@Z	; fan::time::base_time_unit<2>::base_time_unit<2>
PUBLIC	??$start@$01@clock@time@fan@@QEAAXAEBU?$base_time_unit@$01@12@@Z ; fan::time::clock::start<2>
PUBLIC	??$?HH@?$_vec2@H@fan@@QEBA?AV01@AEBV01@@Z	; fan::_vec2<int>::operator+<int>
PUBLIC	??$pow@HH$0A@@@YANHH@Z				; pow<int,int,0>
PUBLIC	??$max@_J@std@@YAAEB_JAEB_J0@Z			; std::max<__int64>
PUBLIC	??$is_flag@GH@fan@@YA_NGH@Z			; fan::is_flag<unsigned short,int>
PUBLIC	??$forward@PEAUwindow_t@fan@@@std@@YA$$QEAPEAUwindow_t@fan@@AEAPEAU12@@Z ; std::forward<fan::window_t *>
PUBLIC	??$forward@AEBV?$_vec2@H@fan@@@std@@YAAEBV?$_vec2@H@fan@@AEBV12@@Z ; std::forward<fan::_vec2<int> const &>
PUBLIC	??$forward@G@std@@YA$$QEAGAEAG@Z		; std::forward<unsigned short>
PUBLIC	??$forward@W4key_state@fan@@@std@@YA$$QEAW4key_state@fan@@AEAW412@@Z ; std::forward<enum fan::key_state>
PUBLIC	??$addressof@V?$function@$$A6AXPEAUwindow_t@fan@@G@Z@std@@@std@@YAPEAV?$function@$$A6AXPEAUwindow_t@fan@@G@Z@0@AEAV10@@Z ; std::addressof<std::function<void __cdecl(fan::window_t *,unsigned short)> >
PUBLIC	??$move@AEAV?$function@$$A6AXPEAUwindow_t@fan@@G@Z@std@@@std@@YA$$QEAV?$function@$$A6AXPEAUwindow_t@fan@@G@Z@0@AEAV10@@Z ; std::move<std::function<void __cdecl(fan::window_t *,unsigned short)> &>
PUBLIC	??$forward@Vany@std@@@std@@YA$$QEAVany@0@AEAV10@@Z ; std::forward<std::any>
PUBLIC	??$_Try_emplace@AEBG$$V@?$_Hash@V?$_Umap_traits@G_NV?$_Uhash_compare@GU?$hash@G@std@@U?$equal_to@G@2@@std@@V?$allocator@U?$pair@$$CBG_N@std@@@2@$0A@@std@@@std@@IEAA?AU?$pair@PEAU?$_List_node@U?$pair@$$CBG_N@std@@PEAX@std@@_N@1@AEBG@Z ; std::_Hash<std::_Umap_traits<unsigned short,bool,std::_Uhash_compare<unsigned short,std::hash<unsigned short>,std::equal_to<unsigned short> >,std::allocator<std::pair<unsigned short const ,bool> >,0> >::_Try_emplace<unsigned short const &>
PUBLIC	??$move@AEAG@std@@YA$$QEAGAEAG@Z		; std::move<unsigned short &>
PUBLIC	??$_Try_emplace@G$$V@?$_Hash@V?$_Umap_traits@G_NV?$_Uhash_compare@GU?$hash@G@std@@U?$equal_to@G@2@@std@@V?$allocator@U?$pair@$$CBG_N@std@@@2@$0A@@std@@@std@@IEAA?AU?$pair@PEAU?$_List_node@U?$pair@$$CBG_N@std@@PEAX@std@@_N@1@$$QEAG@Z ; std::_Hash<std::_Umap_traits<unsigned short,bool,std::_Uhash_compare<unsigned short,std::hash<unsigned short>,std::equal_to<unsigned short> >,std::allocator<std::pair<unsigned short const ,bool> >,0> >::_Try_emplace<unsigned short>
PUBLIC	??0_Sentry_base@?$basic_ostream@DU?$char_traits@D@std@@@std@@QEAA@AEAV12@@Z ; std::basic_ostream<char,std::char_traits<char> >::_Sentry_base::_Sentry_base
PUBLIC	??1_Sentry_base@?$basic_ostream@DU?$char_traits@D@std@@@std@@QEAA@XZ ; std::basic_ostream<char,std::char_traits<char> >::_Sentry_base::~_Sentry_base
PUBLIC	??0sentry@?$basic_ostream@DU?$char_traits@D@std@@@std@@QEAA@AEAV12@@Z ; std::basic_ostream<char,std::char_traits<char> >::sentry::sentry
PUBLIC	??1sentry@?$basic_ostream@DU?$char_traits@D@std@@@std@@QEAA@XZ ; std::basic_ostream<char,std::char_traits<char> >::sentry::~sentry
PUBLIC	??Bsentry@?$basic_ostream@DU?$char_traits@D@std@@@std@@QEBA_NXZ ; std::basic_ostream<char,std::char_traits<char> >::sentry::operator bool
PUBLIC	??$use_facet@V?$num_put@DV?$ostreambuf_iterator@DU?$char_traits@D@std@@@std@@@std@@@std@@YAAEBV?$num_put@DV?$ostreambuf_iterator@DU?$char_traits@D@std@@@std@@@0@AEBVlocale@0@@Z ; std::use_facet<std::num_put<char,std::ostreambuf_iterator<char,std::char_traits<char> > > >
PUBLIC	?_Getcat@?$num_put@DV?$ostreambuf_iterator@DU?$char_traits@D@std@@@std@@@std@@SA_KPEAPEBVfacet@locale@2@PEBV42@@Z ; std::num_put<char,std::ostreambuf_iterator<char,std::char_traits<char> > >::_Getcat
PUBLIC	??1?$num_put@DV?$ostreambuf_iterator@DU?$char_traits@D@std@@@std@@@std@@MEAA@XZ ; std::num_put<char,std::ostreambuf_iterator<char,std::char_traits<char> > >::~num_put<char,std::ostreambuf_iterator<char,std::char_traits<char> > >
PUBLIC	?_Init@?$num_put@DV?$ostreambuf_iterator@DU?$char_traits@D@std@@@std@@@std@@IEAAXAEBV_Locinfo@2@@Z ; std::num_put<char,std::ostreambuf_iterator<char,std::char_traits<char> > >::_Init
PUBLIC	??0?$num_put@DV?$ostreambuf_iterator@DU?$char_traits@D@std@@@std@@@std@@QEAA@AEBV_Locinfo@1@_K@Z ; std::num_put<char,std::ostreambuf_iterator<char,std::char_traits<char> > >::num_put<char,std::ostreambuf_iterator<char,std::char_traits<char> > >
PUBLIC	?put@?$num_put@DV?$ostreambuf_iterator@DU?$char_traits@D@std@@@std@@@std@@QEBA?AV?$ostreambuf_iterator@DU?$char_traits@D@std@@@2@V32@AEAVios_base@2@DK@Z ; std::num_put<char,std::ostreambuf_iterator<char,std::char_traits<char> > >::put
PUBLIC	?do_put@?$num_put@DV?$ostreambuf_iterator@DU?$char_traits@D@std@@@std@@@std@@MEBA?AV?$ostreambuf_iterator@DU?$char_traits@D@std@@@2@V32@AEAVios_base@2@D_N@Z ; std::num_put<char,std::ostreambuf_iterator<char,std::char_traits<char> > >::do_put
PUBLIC	?do_put@?$num_put@DV?$ostreambuf_iterator@DU?$char_traits@D@std@@@std@@@std@@MEBA?AV?$ostreambuf_iterator@DU?$char_traits@D@std@@@2@V32@AEAVios_base@2@DJ@Z ; std::num_put<char,std::ostreambuf_iterator<char,std::char_traits<char> > >::do_put
PUBLIC	?do_put@?$num_put@DV?$ostreambuf_iterator@DU?$char_traits@D@std@@@std@@@std@@MEBA?AV?$ostreambuf_iterator@DU?$char_traits@D@std@@@2@V32@AEAVios_base@2@DK@Z ; std::num_put<char,std::ostreambuf_iterator<char,std::char_traits<char> > >::do_put
PUBLIC	?do_put@?$num_put@DV?$ostreambuf_iterator@DU?$char_traits@D@std@@@std@@@std@@MEBA?AV?$ostreambuf_iterator@DU?$char_traits@D@std@@@2@V32@AEAVios_base@2@D_J@Z ; std::num_put<char,std::ostreambuf_iterator<char,std::char_traits<char> > >::do_put
PUBLIC	?do_put@?$num_put@DV?$ostreambuf_iterator@DU?$char_traits@D@std@@@std@@@std@@MEBA?AV?$ostreambuf_iterator@DU?$char_traits@D@std@@@2@V32@AEAVios_base@2@D_K@Z ; std::num_put<char,std::ostreambuf_iterator<char,std::char_traits<char> > >::do_put
PUBLIC	?do_put@?$num_put@DV?$ostreambuf_iterator@DU?$char_traits@D@std@@@std@@@std@@MEBA?AV?$ostreambuf_iterator@DU?$char_traits@D@std@@@2@V32@AEAVios_base@2@DN@Z ; std::num_put<char,std::ostreambuf_iterator<char,std::char_traits<char> > >::do_put
PUBLIC	?do_put@?$num_put@DV?$ostreambuf_iterator@DU?$char_traits@D@std@@@std@@@std@@MEBA?AV?$ostreambuf_iterator@DU?$char_traits@D@std@@@2@V32@AEAVios_base@2@DO@Z ; std::num_put<char,std::ostreambuf_iterator<char,std::char_traits<char> > >::do_put
PUBLIC	?do_put@?$num_put@DV?$ostreambuf_iterator@DU?$char_traits@D@std@@@std@@@std@@MEBA?AV?$ostreambuf_iterator@DU?$char_traits@D@std@@@2@V32@AEAVios_base@2@DPEBX@Z ; std::num_put<char,std::ostreambuf_iterator<char,std::char_traits<char> > >::do_put
PUBLIC	?_Ffmt@?$num_put@DV?$ostreambuf_iterator@DU?$char_traits@D@std@@@std@@@std@@AEBAPEADPEADDH@Z ; std::num_put<char,std::ostreambuf_iterator<char,std::char_traits<char> > >::_Ffmt
PUBLIC	?_Fput@?$num_put@DV?$ostreambuf_iterator@DU?$char_traits@D@std@@@std@@@std@@AEBA?AV?$ostreambuf_iterator@DU?$char_traits@D@std@@@2@V32@AEAVios_base@2@DPEBD_K@Z ; std::num_put<char,std::ostreambuf_iterator<char,std::char_traits<char> > >::_Fput
PUBLIC	?_Ifmt@?$num_put@DV?$ostreambuf_iterator@DU?$char_traits@D@std@@@std@@@std@@AEBAPEADPEADPEBDH@Z ; std::num_put<char,std::ostreambuf_iterator<char,std::char_traits<char> > >::_Ifmt
PUBLIC	?_Iput@?$num_put@DV?$ostreambuf_iterator@DU?$char_traits@D@std@@@std@@@std@@AEBA?AV?$ostreambuf_iterator@DU?$char_traits@D@std@@@2@V32@AEAVios_base@2@DPEAD_K@Z ; std::num_put<char,std::ostreambuf_iterator<char,std::char_traits<char> > >::_Iput
PUBLIC	?_Put@?$num_put@DV?$ostreambuf_iterator@DU?$char_traits@D@std@@@std@@@std@@AEBA?AV?$ostreambuf_iterator@DU?$char_traits@D@std@@@2@V32@PEBD_K@Z ; std::num_put<char,std::ostreambuf_iterator<char,std::char_traits<char> > >::_Put
PUBLIC	?_Rep@?$num_put@DV?$ostreambuf_iterator@DU?$char_traits@D@std@@@std@@@std@@AEBA?AV?$ostreambuf_iterator@DU?$char_traits@D@std@@@2@V32@D_K@Z ; std::num_put<char,std::ostreambuf_iterator<char,std::char_traits<char> > >::_Rep
PUBLIC	??_G?$num_put@DV?$ostreambuf_iterator@DU?$char_traits@D@std@@@std@@@std@@MEAAPEAXI@Z ; std::num_put<char,std::ostreambuf_iterator<char,std::char_traits<char> > >::`scalar deleting destructor'
PUBLIC	??0?$ostreambuf_iterator@DU?$char_traits@D@std@@@std@@QEAA@PEAV?$basic_streambuf@DU?$char_traits@D@std@@@1@@Z ; std::ostreambuf_iterator<char,std::char_traits<char> >::ostreambuf_iterator<char,std::char_traits<char> >
PUBLIC	??4?$ostreambuf_iterator@DU?$char_traits@D@std@@@std@@QEAAAEAV01@D@Z ; std::ostreambuf_iterator<char,std::char_traits<char> >::operator=
PUBLIC	??D?$ostreambuf_iterator@DU?$char_traits@D@std@@@std@@QEAAAEAV01@XZ ; std::ostreambuf_iterator<char,std::char_traits<char> >::operator*
PUBLIC	??E?$ostreambuf_iterator@DU?$char_traits@D@std@@@std@@QEAAAEAV01@XZ ; std::ostreambuf_iterator<char,std::char_traits<char> >::operator++
PUBLIC	?failed@?$ostreambuf_iterator@DU?$char_traits@D@std@@@std@@QEBA_NXZ ; std::ostreambuf_iterator<char,std::char_traits<char> >::failed
PUBLIC	??$min@_K@std@@YAAEB_KAEB_K0@Z			; std::min<unsigned __int64>
PUBLIC	??$_Convert_size@_K@std@@YA_K_K@Z		; std::_Convert_size<unsigned __int64>
PUBLIC	??$_Deallocate@$0BA@$0A@@std@@YAXPEAX_K@Z	; std::_Deallocate<16,0>
PUBLIC	??$addressof@$$CBV?$_String_val@U?$_Simple_types@D@std@@@std@@@std@@YAPEBV?$_String_val@U?$_Simple_types@D@std@@@0@AEBV10@@Z ; std::addressof<std::_String_val<std::_Simple_types<char> > const >
PUBLIC	??$addressof@V?$_String_val@U?$_Simple_types@D@std@@@std@@@std@@YAPEAV?$_String_val@U?$_Simple_types@D@std@@@0@AEAV10@@Z ; std::addressof<std::_String_val<std::_Simple_types<char> > >
PUBLIC	??R<lambda_1>@?1??append@?$basic_string@DU?$char_traits@D@std@@V?$allocator@D@2@@std@@QEAAAEAV23@_KD@Z@QEBA@QEADQEBD00D@Z ; `std::basic_string<char,std::char_traits<char>,std::allocator<char> >::append'::`2'::<lambda_1>::operator()
PUBLIC	??$_Reallocate_grow_by@V<lambda_1>@?1??append@?$basic_string@DU?$char_traits@D@std@@V?$allocator@D@2@@std@@QEAAAEAV34@_KD@Z@_KD@?$basic_string@DU?$char_traits@D@std@@V?$allocator@D@2@@std@@AEAAAEAV01@_KV<lambda_1>@?1??append@01@QEAAAEAV01@0D@Z@_KD@Z ; std::basic_string<char,std::char_traits<char>,std::allocator<char> >::_Reallocate_grow_by<`std::basic_string<char,std::char_traits<char>,std::allocator<char> >::append'::`2'::<lambda_1>,unsigned __int64,char>
PUBLIC	??$addressof@$$CBV?$basic_string@DU?$char_traits@D@std@@V?$allocator@D@2@@std@@@std@@YAPEBV?$basic_string@DU?$char_traits@D@std@@V?$allocator@D@2@@0@AEBV10@@Z ; std::addressof<std::basic_string<char,std::char_traits<char>,std::allocator<char> > const >
PUBLIC	??$_Pocca@V?$allocator@D@std@@@std@@YAXAEAV?$allocator@D@0@AEBV10@@Z ; std::_Pocca<std::allocator<char> >
PUBLIC	??$move@AEAV?$allocator@D@std@@@std@@YA$$QEAV?$allocator@D@0@AEAV10@@Z ; std::move<std::allocator<char> &>
PUBLIC	??$?0V?$allocator@D@std@@$$V@?$_Compressed_pair@V?$allocator@D@std@@V?$_String_val@U?$_Simple_types@D@std@@@2@$00@std@@QEAA@U_One_then_variadic_args_t@1@$$QEAV?$allocator@D@1@@Z ; std::_Compressed_pair<std::allocator<char>,std::_String_val<std::_Simple_types<char> >,1>::_Compressed_pair<std::allocator<char>,std::_String_val<std::_Simple_types<char> >,1><std::allocator<char> >
PUBLIC	??$?0$$V@?$_Compressed_pair@V?$allocator@D@std@@V?$_String_val@U?$_Simple_types@D@std@@@2@$00@std@@QEAA@U_Zero_then_variadic_args_t@1@@Z ; std::_Compressed_pair<std::allocator<char>,std::_String_val<std::_Simple_types<char> >,1>::_Compressed_pair<std::allocator<char>,std::_String_val<std::_Simple_types<char> >,1><>
PUBLIC	??$_Construct@$0A@D@?$basic_string@DU?$char_traits@D@std@@V?$allocator@D@2@@std@@AEAAXD_K@Z ; std::basic_string<char,std::char_traits<char>,std::allocator<char> >::_Construct<0,char>
PUBLIC	??$_Construct@$00PEBD@?$basic_string@DU?$char_traits@D@std@@V?$allocator@D@2@@std@@AEAAXQEBD_K@Z ; std::basic_string<char,std::char_traits<char>,std::allocator<char> >::_Construct<1,char const *>
PUBLIC	??$_Construct@$01PEBD@?$basic_string@DU?$char_traits@D@std@@V?$allocator@D@2@@std@@AEAAXQEBD_K@Z ; std::basic_string<char,std::char_traits<char>,std::allocator<char> >::_Construct<2,char const *>
PUBLIC	??$_Float_put_desired_precision@O@std@@YAH_JH@Z	; std::_Float_put_desired_precision<long double>
PUBLIC	??$_Unfancy@D@std@@YAPEADPEAD@Z			; std::_Unfancy<char>
PUBLIC	??$_Float_put_desired_precision@N@std@@YAH_JH@Z	; std::_Float_put_desired_precision<double>
PUBLIC	??$use_facet@V?$numpunct@D@std@@@std@@YAAEBV?$numpunct@D@0@AEBVlocale@0@@Z ; std::use_facet<std::numpunct<char> >
PUBLIC	?decimal_point@?$numpunct@D@std@@QEBADXZ	; std::numpunct<char>::decimal_point
PUBLIC	?thousands_sep@?$numpunct@D@std@@QEBADXZ	; std::numpunct<char>::thousands_sep
PUBLIC	?grouping@?$numpunct@D@std@@QEBA?AV?$basic_string@DU?$char_traits@D@std@@V?$allocator@D@2@@2@XZ ; std::numpunct<char>::grouping
PUBLIC	?falsename@?$numpunct@D@std@@QEBA?AV?$basic_string@DU?$char_traits@D@std@@V?$allocator@D@2@@2@XZ ; std::numpunct<char>::falsename
PUBLIC	?truename@?$numpunct@D@std@@QEBA?AV?$basic_string@DU?$char_traits@D@std@@V?$allocator@D@2@@2@XZ ; std::numpunct<char>::truename
PUBLIC	??0?$numpunct@D@std@@QEAA@AEBV_Locinfo@1@_K_N@Z	; std::numpunct<char>::numpunct<char>
PUBLIC	?_Getcat@?$numpunct@D@std@@SA_KPEAPEBVfacet@locale@2@PEBV42@@Z ; std::numpunct<char>::_Getcat
PUBLIC	??1?$numpunct@D@std@@MEAA@XZ			; std::numpunct<char>::~numpunct<char>
PUBLIC	?_Init@?$numpunct@D@std@@IEAAXAEBV_Locinfo@2@_N@Z ; std::numpunct<char>::_Init
PUBLIC	?do_decimal_point@?$numpunct@D@std@@MEBADXZ	; std::numpunct<char>::do_decimal_point
PUBLIC	?do_thousands_sep@?$numpunct@D@std@@MEBADXZ	; std::numpunct<char>::do_thousands_sep
PUBLIC	?do_grouping@?$numpunct@D@std@@MEBA?AV?$basic_string@DU?$char_traits@D@std@@V?$allocator@D@2@@2@XZ ; std::numpunct<char>::do_grouping
PUBLIC	?do_falsename@?$numpunct@D@std@@MEBA?AV?$basic_string@DU?$char_traits@D@std@@V?$allocator@D@2@@2@XZ ; std::numpunct<char>::do_falsename
PUBLIC	?do_truename@?$numpunct@D@std@@MEBA?AV?$basic_string@DU?$char_traits@D@std@@V?$allocator@D@2@@2@XZ ; std::numpunct<char>::do_truename
PUBLIC	?_Tidy@?$numpunct@D@std@@AEAAXXZ		; std::numpunct<char>::_Tidy
PUBLIC	??_G?$numpunct@D@std@@MEAAPEAXI@Z		; std::numpunct<char>::`scalar deleting destructor'
PUBLIC	??0?$_List_unchecked_const_iterator@V?$_List_val@U?$_List_simple_types@U?$pair@$$CBG_N@std@@@std@@@std@@U_Iterator_base0@2@@std@@QEAA@PEAU?$_List_node@U?$pair@$$CBG_N@std@@PEAX@1@PEBV?$_List_val@U?$_List_simple_types@U?$pair@$$CBG_N@std@@@std@@@1@@Z ; std::_List_unchecked_const_iterator<std::_List_val<std::_List_simple_types<std::pair<unsigned short const ,bool> > >,std::_Iterator_base0>::_List_unchecked_const_iterator<std::_List_val<std::_List_simple_types<std::pair<unsigned short const ,bool> > >,std::_Iterator_base0>
PUBLIC	??D?$_List_unchecked_const_iterator@V?$_List_val@U?$_List_simple_types@U?$pair@$$CBG_N@std@@@std@@@std@@U_Iterator_base0@2@@std@@QEBAAEBU?$pair@$$CBG_N@1@XZ ; std::_List_unchecked_const_iterator<std::_List_val<std::_List_simple_types<std::pair<unsigned short const ,bool> > >,std::_Iterator_base0>::operator*
PUBLIC	??E?$_List_unchecked_const_iterator@V?$_List_val@U?$_List_simple_types@U?$pair@$$CBG_N@std@@@std@@@std@@U_Iterator_base0@2@@std@@QEAAAEAV01@XZ ; std::_List_unchecked_const_iterator<std::_List_val<std::_List_simple_types<std::pair<unsigned short const ,bool> > >,std::_Iterator_base0>::operator++
PUBLIC	??F?$_List_unchecked_const_iterator@V?$_List_val@U?$_List_simple_types@U?$pair@$$CBG_N@std@@@std@@@std@@U_Iterator_base0@2@@std@@QEAAAEAV01@XZ ; std::_List_unchecked_const_iterator<std::_List_val<std::_List_simple_types<std::pair<unsigned short const ,bool> > >,std::_Iterator_base0>::operator--
PUBLIC	??8?$_List_unchecked_const_iterator@V?$_List_val@U?$_List_simple_types@U?$pair@$$CBG_N@std@@@std@@@std@@U_Iterator_base0@2@@std@@QEBA_NAEBV01@@Z ; std::_List_unchecked_const_iterator<std::_List_val<std::_List_simple_types<std::pair<unsigned short const ,bool> > >,std::_Iterator_base0>::operator==
PUBLIC	??D?$_List_unchecked_iterator@V?$_List_val@U?$_List_simple_types@U?$pair@$$CBG_N@std@@@std@@@std@@@std@@QEBAAEAU?$pair@$$CBG_N@1@XZ ; std::_List_unchecked_iterator<std::_List_val<std::_List_simple_types<std::pair<unsigned short const ,bool> > > >::operator*
PUBLIC	??E?$_List_unchecked_iterator@V?$_List_val@U?$_List_simple_types@U?$pair@$$CBG_N@std@@@std@@@std@@@std@@QEAAAEAV01@XZ ; std::_List_unchecked_iterator<std::_List_val<std::_List_simple_types<std::pair<unsigned short const ,bool> > > >::operator++
PUBLIC	??0?$_List_unchecked_iterator@V?$_List_val@U?$_List_simple_types@U?$pair@$$CBG_N@std@@@std@@@std@@@std@@QEAA@PEAU?$_List_node@U?$pair@$$CBG_N@std@@PEAX@1@PEBV?$_List_val@U?$_List_simple_types@U?$pair@$$CBG_N@std@@@std@@@1@@Z ; std::_List_unchecked_iterator<std::_List_val<std::_List_simple_types<std::pair<unsigned short const ,bool> > > >::_List_unchecked_iterator<std::_List_val<std::_List_simple_types<std::pair<unsigned short const ,bool> > > >
PUBLIC	??$_Destroy_range@PEAV?$_List_unchecked_iterator@V?$_List_val@U?$_List_simple_types@U?$pair@$$CBG_N@std@@@std@@@std@@@std@@PEAV12@@std@@YAXPEAV?$_List_unchecked_iterator@V?$_List_val@U?$_List_simple_types@U?$pair@$$CBG_N@std@@@std@@@std@@@0@QEAV10@@Z ; std::_Destroy_range<std::_List_unchecked_iterator<std::_List_val<std::_List_simple_types<std::pair<unsigned short const ,bool> > > > *,std::_List_unchecked_iterator<std::_List_val<std::_List_simple_types<std::pair<unsigned short const ,bool> > > > *>
PUBLIC	??$?0AEBV?$allocator@U?$pair@$$CBG_N@std@@@std@@$0A@@?$_Hash_vec@V?$allocator@V?$_List_unchecked_iterator@V?$_List_val@U?$_List_simple_types@U?$pair@$$CBG_N@std@@@std@@@std@@@std@@@std@@@std@@QEAA@AEBV?$allocator@U?$pair@$$CBG_N@std@@@1@@Z ; std::_Hash_vec<std::allocator<std::_List_unchecked_iterator<std::_List_val<std::_List_simple_types<std::pair<unsigned short const ,bool> > > > > >::_Hash_vec<std::allocator<std::_List_unchecked_iterator<std::_List_val<std::_List_simple_types<std::pair<unsigned short const ,bool> > > > > ><std::allocator<std::pair<unsigned short const ,bool> > const &,0>
PUBLIC	??$_Free_non_head@V?$allocator@U?$_List_node@U?$pair@$$CBG_N@std@@PEAX@std@@@std@@@?$_List_node@U?$pair@$$CBG_N@std@@PEAX@std@@SAXAEAV?$allocator@U?$_List_node@U?$pair@$$CBG_N@std@@PEAX@std@@@1@PEAU01@@Z ; std::_List_node<std::pair<unsigned short const ,bool>,void *>::_Free_non_head<std::allocator<std::_List_node<std::pair<unsigned short const ,bool>,void *> > >
PUBLIC	??$_Freenode0@V?$allocator@U?$_List_node@U?$pair@$$CBG_N@std@@PEAX@std@@@std@@@?$_List_node@U?$pair@$$CBG_N@std@@PEAX@std@@SAXAEAV?$allocator@U?$_List_node@U?$pair@$$CBG_N@std@@PEAX@std@@@1@PEAU01@@Z ; std::_List_node<std::pair<unsigned short const ,bool>,void *>::_Freenode0<std::allocator<std::_List_node<std::pair<unsigned short const ,bool>,void *> > >
PUBLIC	??$?0U_Zero_then_variadic_args_t@std@@M@?$_Compressed_pair@U?$hash@G@std@@V?$_Compressed_pair@U?$equal_to@G@std@@M$00@2@$00@std@@QEAA@U_Zero_then_variadic_args_t@1@$$QEAU21@$$QEAM@Z ; std::_Compressed_pair<std::hash<unsigned short>,std::_Compressed_pair<std::equal_to<unsigned short>,float,1>,1>::_Compressed_pair<std::hash<unsigned short>,std::_Compressed_pair<std::equal_to<unsigned short>,float,1>,1><std::_Zero_then_variadic_args_t,float>
PUBLIC	??$?0M@?$_Compressed_pair@U?$equal_to@G@std@@M$00@std@@QEAA@U_Zero_then_variadic_args_t@1@$$QEAM@Z ; std::_Compressed_pair<std::equal_to<unsigned short>,float,1>::_Compressed_pair<std::equal_to<unsigned short>,float,1><float>
PUBLIC	??$_Destroy_in_place@PEAD@std@@YAXAEAPEAD@Z	; std::_Destroy_in_place<char *>
PUBLIC	??$_Construct_in_place@T_Bxty@?$_String_val@U?$_Simple_types@D@std@@@std@@$$V@std@@YAXAEAT_Bxty@?$_String_val@U?$_Simple_types@D@std@@@0@@Z ; std::_Construct_in_place<std::_String_val<std::_Simple_types<char> >::_Bxty>
PUBLIC	??R<lambda_1>@?1??assign@?$basic_string@DU?$char_traits@D@std@@V?$allocator@D@2@@std@@QEAAAEAV23@QEBD_K@Z@QEBA@QEAD10@Z ; `std::basic_string<char,std::char_traits<char>,std::allocator<char> >::assign'::`2'::<lambda_1>::operator()
PUBLIC	??$_Reallocate_for@V<lambda_1>@?1??assign@?$basic_string@DU?$char_traits@D@std@@V?$allocator@D@2@@std@@QEAAAEAV34@QEBD_K@Z@PEBD@?$basic_string@DU?$char_traits@D@std@@V?$allocator@D@2@@std@@AEAAAEAV01@_KV<lambda_1>@?1??assign@01@QEAAAEAV01@QEBD0@Z@PEBD@Z ; std::basic_string<char,std::char_traits<char>,std::allocator<char> >::_Reallocate_for<`std::basic_string<char,std::char_traits<char>,std::allocator<char> >::assign'::`2'::<lambda_1>,char const *>
PUBLIC	??R<lambda_1>@?1??append@?$basic_string@DU?$char_traits@D@std@@V?$allocator@D@2@@std@@QEAAAEAV23@QEBD_K@Z@QEBA@QEAD0101@Z ; `std::basic_string<char,std::char_traits<char>,std::allocator<char> >::append'::`2'::<lambda_1>::operator()
PUBLIC	??$_Reallocate_grow_by@V<lambda_1>@?1??append@?$basic_string@DU?$char_traits@D@std@@V?$allocator@D@2@@std@@QEAAAEAV34@QEBD_K@Z@PEBD_K@?$basic_string@DU?$char_traits@D@std@@V?$allocator@D@2@@std@@AEAAAEAV01@_KV<lambda_1>@?1??append@01@QEAAAEAV01@QEBD0@Z@PEBD_K@Z ; std::basic_string<char,std::char_traits<char>,std::allocator<char> >::_Reallocate_grow_by<`std::basic_string<char,std::char_traits<char>,std::allocator<char> >::append'::`2'::<lambda_1>,char const *,unsigned __int64>
PUBLIC	??$_Construct_in_place@PEADAEAPEAD@std@@YAXAEAPEAD0@Z ; std::_Construct_in_place<char *,char * &>
PUBLIC	??$?0AEBV?$allocator@D@std@@$$V@?$_Compressed_pair@V?$allocator@D@std@@V?$_String_val@U?$_Simple_types@D@std@@@2@$00@std@@QEAA@U_One_then_variadic_args_t@1@AEBV?$allocator@D@1@@Z ; std::_Compressed_pair<std::allocator<char>,std::_String_val<std::_Simple_types<char> >,1>::_Compressed_pair<std::allocator<char>,std::_String_val<std::_Simple_types<char> >,1><std::allocator<char> const &>
PUBLIC	??$move@AEAV?$_Func_class@XPEAUwindow_t@fan@@AEBV?$_vec2@H@2@@std@@@std@@YA$$QEAV?$_Func_class@XPEAUwindow_t@fan@@AEBV?$_vec2@H@2@@0@AEAV10@@Z ; std::move<std::_Func_class<void,fan::window_t *,fan::_vec2<int> const &> &>
PUBLIC	??$move@AEAV?$_Func_class@XPEAUwindow_t@fan@@I@std@@@std@@YA$$QEAV?$_Func_class@XPEAUwindow_t@fan@@I@0@AEAV10@@Z ; std::move<std::_Func_class<void,fan::window_t *,unsigned int> &>
PUBLIC	??$move@AEAV?$_Func_class@XPEAUwindow_t@fan@@GW4key_state@2@@std@@@std@@YA$$QEAV?$_Func_class@XPEAUwindow_t@fan@@GW4key_state@2@@0@AEAV10@@Z ; std::move<std::_Func_class<void,fan::window_t *,unsigned short,enum fan::key_state> &>
PUBLIC	??$move@AEAV?$_Func_class@XPEAUwindow_t@fan@@@std@@@std@@YA$$QEAV?$_Func_class@XPEAUwindow_t@fan@@@0@AEAV10@@Z ; std::move<std::_Func_class<void,fan::window_t *> &>
PUBLIC	??$uninitialized_fill@PEAV?$_List_unchecked_iterator@V?$_List_val@U?$_List_simple_types@U?$pair@$$CBG_N@std@@@std@@@std@@@std@@V12@@std@@YAXQEAV?$_List_unchecked_iterator@V?$_List_val@U?$_List_simple_types@U?$pair@$$CBG_N@std@@@std@@@std@@@0@0AEBV10@@Z ; std::uninitialized_fill<std::_List_unchecked_iterator<std::_List_val<std::_List_simple_types<std::pair<unsigned short const ,bool> > > > *,std::_List_unchecked_iterator<std::_List_val<std::_List_simple_types<std::pair<unsigned short const ,bool> > > > >
PUBLIC	??$fill@PEAV?$_List_unchecked_iterator@V?$_List_val@U?$_List_simple_types@U?$pair@$$CBG_N@std@@@std@@@std@@@std@@V12@@std@@YAXQEAV?$_List_unchecked_iterator@V?$_List_val@U?$_List_simple_types@U?$pair@$$CBG_N@std@@@std@@@std@@@0@0AEBV10@@Z ; std::fill<std::_List_unchecked_iterator<std::_List_val<std::_List_simple_types<std::pair<unsigned short const ,bool> > > > *,std::_List_unchecked_iterator<std::_List_val<std::_List_simple_types<std::pair<unsigned short const ,bool> > > > >
PUBLIC	??$?0AEBV?$allocator@U?$pair@$$CBG_N@std@@@std@@$$V@?$_Compressed_pair@V?$allocator@U?$_List_node@U?$pair@$$CBG_N@std@@PEAX@std@@@std@@V?$_List_val@U?$_List_simple_types@U?$pair@$$CBG_N@std@@@std@@@2@$00@std@@QEAA@U_One_then_variadic_args_t@1@AEBV?$allocator@U?$pair@$$CBG_N@std@@@1@@Z ; std::_Compressed_pair<std::allocator<std::_List_node<std::pair<unsigned short const ,bool>,void *> >,std::_List_val<std::_List_simple_types<std::pair<unsigned short const ,bool> > >,1>::_Compressed_pair<std::allocator<std::_List_node<std::pair<unsigned short const ,bool>,void *> >,std::_List_val<std::_List_simple_types<std::pair<unsigned short const ,bool> > >,1><std::allocator<std::pair<unsigned short const ,bool> > const &>
PUBLIC	??$?0U?$pair@$$CBG_N@std@@@?$allocator@U?$_List_node@U?$pair@$$CBG_N@std@@PEAX@std@@@std@@QEAA@AEBV?$allocator@U?$pair@$$CBG_N@std@@@1@@Z ; std::allocator<std::_List_node<std::pair<unsigned short const ,bool>,void *> >::allocator<std::_List_node<std::pair<unsigned short const ,bool>,void *> ><std::pair<unsigned short const ,bool> >
PUBLIC	??$_Allocate@$0BA@U_Default_allocate_traits@std@@$0A@@std@@YAPEAX_K@Z ; std::_Allocate<16,std::_Default_allocate_traits,0>
PUBLIC	??$_Get_size_of_n@$0BI@@std@@YA_K_K@Z		; std::_Get_size_of_n<24>
PUBLIC	??$_Get_size_of_n@$00@std@@YA_K_K@Z		; std::_Get_size_of_n<1>
PUBLIC	??$addressof@D@std@@YAPEADAEAD@Z		; std::addressof<char>
PUBLIC	??$construct_at@DAEBDX@std@@YAPEADQEADAEBD@Z	; std::construct_at<char,char const &,void>
PUBLIC	??$_Voidify_iter@PEAD@std@@YAPEAXPEAD@Z		; std::_Voidify_iter<char *>
PUBLIC	??$forward@AEBD@std@@YAAEBDAEBD@Z		; std::forward<char const &>
PUBLIC	??$_Get_size_of_n@$07@std@@YA_K_K@Z		; std::_Get_size_of_n<8>
PUBLIC	??$_Construct_in_place@PEAU?$_List_node@U?$pair@$$CBG_N@std@@PEAX@std@@AEAPEAU12@@std@@YAXAEAPEAU?$_List_node@U?$pair@$$CBG_N@std@@PEAX@0@0@Z ; std::_Construct_in_place<std::_List_node<std::pair<unsigned short const ,bool>,void *> *,std::_List_node<std::pair<unsigned short const ,bool>,void *> * &>
PUBLIC	??R<lambda_1>@?1??insert@?$basic_string@DU?$char_traits@D@std@@V?$allocator@D@2@@std@@QEAAAEAV23@_K0D@Z@QEBA@QEADQEBD000D@Z ; `std::basic_string<char,std::char_traits<char>,std::allocator<char> >::insert'::`2'::<lambda_1>::operator()
PUBLIC	??$_Reallocate_grow_by@V<lambda_1>@?1??insert@?$basic_string@DU?$char_traits@D@std@@V?$allocator@D@2@@std@@QEAAAEAV34@_K0D@Z@_K_KD@?$basic_string@DU?$char_traits@D@std@@V?$allocator@D@2@@std@@AEAAAEAV01@_KV<lambda_1>@?1??insert@01@QEAAAEAV01@00D@Z@_K2D@Z ; std::basic_string<char,std::char_traits<char>,std::allocator<char> >::_Reallocate_grow_by<`std::basic_string<char,std::char_traits<char>,std::allocator<char> >::insert'::`2'::<lambda_1>,unsigned __int64,unsigned __int64,char>
PUBLIC	??$addressof@V?$basic_string@DU?$char_traits@D@std@@V?$allocator@D@2@@std@@@std@@YAPEAV?$basic_string@DU?$char_traits@D@std@@V?$allocator@D@2@@0@AEAV10@@Z ; std::addressof<std::basic_string<char,std::char_traits<char>,std::allocator<char> > >
PUBLIC	??$_Pocma@V?$allocator@D@std@@@std@@YAXAEAV?$allocator@D@0@0@Z ; std::_Pocma<std::allocator<char> >
PUBLIC	??R?$default_delete@V_Facet_base@std@@@std@@QEBAXPEAV_Facet_base@1@@Z ; std::default_delete<std::_Facet_base>::operator()
PUBLIC	??1?$unique_ptr@V_Facet_base@std@@U?$default_delete@V_Facet_base@std@@@2@@std@@QEAA@XZ ; std::unique_ptr<std::_Facet_base,std::default_delete<std::_Facet_base> >::~unique_ptr<std::_Facet_base,std::default_delete<std::_Facet_base> >
PUBLIC	?release@?$unique_ptr@V_Facet_base@std@@U?$default_delete@V_Facet_base@std@@@2@@std@@QEAAPEAV_Facet_base@2@XZ ; std::unique_ptr<std::_Facet_base,std::default_delete<std::_Facet_base> >::release
PUBLIC	?_Get_first@?$_Compressed_pair@U?$default_delete@V_Facet_base@std@@@std@@PEAV_Facet_base@2@$00@std@@QEAAAEAU?$default_delete@V_Facet_base@std@@@2@XZ ; std::_Compressed_pair<std::default_delete<std::_Facet_base>,std::_Facet_base *,1>::_Get_first
PUBLIC	??$?0U?$default_delete@V_Facet_base@std@@@std@@$0A@@?$unique_ptr@V_Facet_base@std@@U?$default_delete@V_Facet_base@std@@@2@@std@@QEAA@PEAV_Facet_base@1@@Z ; std::unique_ptr<std::_Facet_base,std::default_delete<std::_Facet_base> >::unique_ptr<std::_Facet_base,std::default_delete<std::_Facet_base> ><std::default_delete<std::_Facet_base>,0>
PUBLIC	??$move@AEAH@std@@YA$$QEAHAEAH@Z		; std::move<int &>
PUBLIC	??$end@D$0BF@@std@@YAPEADAEAY0BF@D@Z		; std::end<char,21>
PUBLIC	??$_UIntegral_to_buff@DI@std@@YAPEADPEADI@Z	; std::_UIntegral_to_buff<char,unsigned int>
PUBLIC	??$?0PEAD$0A@@?$basic_string@DU?$char_traits@D@std@@V?$allocator@D@2@@std@@QEAA@PEAD0AEBV?$allocator@D@1@@Z ; std::basic_string<char,std::char_traits<char>,std::allocator<char> >::basic_string<char,std::char_traits<char>,std::allocator<char> ><char *,0>
PUBLIC	??$_UIntegral_to_buff@DK@std@@YAPEADPEADK@Z	; std::_UIntegral_to_buff<char,unsigned long>
PUBLIC	??$_UIntegral_to_buff@D_K@std@@YAPEADPEAD_K@Z	; std::_UIntegral_to_buff<char,unsigned __int64>
PUBLIC	??$forward@H@std@@YA$$QEAHAEAH@Z		; std::forward<int>
PUBLIC	??$_Insert_string@DU?$char_traits@D@std@@_K@std@@YAAEAV?$basic_ostream@DU?$char_traits@D@std@@@0@AEAV10@QEBD_K@Z ; std::_Insert_string<char,std::char_traits<char>,unsigned __int64>
PUBLIC	??$_Emplace@HH@any@std@@AEAAAEAH$$QEAH@Z	; std::any::_Emplace<int,int>
PUBLIC	??$forward@V?$_vec2@H@fan@@@std@@YA$$QEAV?$_vec2@H@fan@@AEAV12@@Z ; std::forward<fan::_vec2<int> >
PUBLIC	??$_Emplace@V?$_vec2@H@fan@@V12@@any@std@@AEAAAEAV?$_vec2@H@fan@@$$QEAV23@@Z ; std::any::_Emplace<fan::_vec2<int>,fan::_vec2<int> >
PUBLIC	??$_Eval@V?$mersenne_twister_engine@_K$0EA@$0BDI@$0JM@$0BP@$0?EKPNJAKFFGJJOGBH@$0BN@$0FFFFFFFFFFFFFFFF@$0BB@$0HBNGHPPPONKGAAAA@$0CF@$0?IBBCAAAAAAAAA@$0CL@$0FIFBPECNEMJFHPCN@@std@@@?$uniform_int@_J@std@@AEBA_JAEAV?$mersenne_twister_engine@_K$0EA@$0BDI@$0JM@$0BP@$0?EKPNJAKFFGJJOGBH@$0BN@$0FFFFFFFFFFFFFFFF@$0BB@$0HBNGHPPPONKGAAAA@$0CF@$0?IBBCAAAAAAAAA@$0CL@$0FIFBPECNEMJFHPCN@@1@_J1@Z ; std::uniform_int<__int64>::_Eval<std::mersenne_twister_engine<unsigned __int64,64,312,156,31,-5403634167711393303,29,6148914691236517205,17,8202884508482404352,37,-2270628950310912,43,6364136223846793005> >
PUBLIC	??$forward_as_tuple@$$V@std@@YA?AV?$tuple@$$V@0@XZ ; std::forward_as_tuple<>
PUBLIC	??$?RG@?$_Uhash_compare@GU?$hash@G@std@@U?$equal_to@G@2@@std@@QEBA_KAEBG@Z ; std::_Uhash_compare<unsigned short,std::hash<unsigned short>,std::equal_to<unsigned short> >::operator()<unsigned short>
PUBLIC	??$_Find_last@G@?$_Hash@V?$_Umap_traits@G_NV?$_Uhash_compare@GU?$hash@G@std@@U?$equal_to@G@2@@std@@V?$allocator@U?$pair@$$CBG_N@std@@@2@$0A@@std@@@std@@IEBA?AU?$_Hash_find_last_result@PEAU?$_List_node@U?$pair@$$CBG_N@std@@PEAX@std@@@1@AEBG_K@Z ; std::_Hash<std::_Umap_traits<unsigned short,bool,std::_Uhash_compare<unsigned short,std::hash<unsigned short>,std::equal_to<unsigned short> >,std::allocator<std::pair<unsigned short const ,bool> >,0> >::_Find_last<unsigned short>
PUBLIC	??$forward@AEBG@std@@YAAEBGAEBG@Z		; std::forward<unsigned short const &>
PUBLIC	??$forward_as_tuple@AEBG@std@@YA?AV?$tuple@AEBG@0@AEBG@Z ; std::forward_as_tuple<unsigned short const &>
PUBLIC	??0?$tuple@AEBG@std@@QEAA@$$QEAV01@@Z		; std::tuple<unsigned short const &>::tuple<unsigned short const &>
PUBLIC	??0?$_Alloc_construct_ptr@V?$allocator@U?$_List_node@U?$pair@$$CBG_N@std@@PEAX@std@@@std@@@std@@QEAA@AEAV?$allocator@U?$_List_node@U?$pair@$$CBG_N@std@@PEAX@std@@@1@@Z ; std::_Alloc_construct_ptr<std::allocator<std::_List_node<std::pair<unsigned short const ,bool>,void *> > >::_Alloc_construct_ptr<std::allocator<std::_List_node<std::pair<unsigned short const ,bool>,void *> > >
PUBLIC	?_Release@?$_Alloc_construct_ptr@V?$allocator@U?$_List_node@U?$pair@$$CBG_N@std@@PEAX@std@@@std@@@std@@QEAAPEAU?$_List_node@U?$pair@$$CBG_N@std@@PEAX@2@XZ ; std::_Alloc_construct_ptr<std::allocator<std::_List_node<std::pair<unsigned short const ,bool>,void *> > >::_Release
PUBLIC	?_Allocate@?$_Alloc_construct_ptr@V?$allocator@U?$_List_node@U?$pair@$$CBG_N@std@@PEAX@std@@@std@@@std@@QEAAXXZ ; std::_Alloc_construct_ptr<std::allocator<std::_List_node<std::pair<unsigned short const ,bool>,void *> > >::_Allocate
PUBLIC	??1?$_Alloc_construct_ptr@V?$allocator@U?$_List_node@U?$pair@$$CBG_N@std@@PEAX@std@@@std@@@std@@QEAA@XZ ; std::_Alloc_construct_ptr<std::allocator<std::_List_node<std::pair<unsigned short const ,bool>,void *> > >::~_Alloc_construct_ptr<std::allocator<std::_List_node<std::pair<unsigned short const ,bool>,void *> > >
PUBLIC	??1?$_List_node_emplace_op2@V?$allocator@U?$_List_node@U?$pair@$$CBG_N@std@@PEAX@std@@@std@@@std@@QEAA@XZ ; std::_List_node_emplace_op2<std::allocator<std::_List_node<std::pair<unsigned short const ,bool>,void *> > >::~_List_node_emplace_op2<std::allocator<std::_List_node<std::pair<unsigned short const ,bool>,void *> > >
PUBLIC	??$?0AEBUpiecewise_construct_t@std@@V?$tuple@AEBG@1@V?$tuple@$$V@1@@?$_List_node_emplace_op2@V?$allocator@U?$_List_node@U?$pair@$$CBG_N@std@@PEAX@std@@@std@@@std@@QEAA@AEAV?$allocator@U?$_List_node@U?$pair@$$CBG_N@std@@PEAX@std@@@1@AEBUpiecewise_construct_t@1@$$QEAV?$tuple@AEBG@1@$$QEAV?$tuple@$$V@1@@Z ; std::_List_node_emplace_op2<std::allocator<std::_List_node<std::pair<unsigned short const ,bool>,void *> > >::_List_node_emplace_op2<std::allocator<std::_List_node<std::pair<unsigned short const ,bool>,void *> > ><std::piecewise_construct_t const &,std::tuple<unsigned short const &>,std::tuple<> >
PUBLIC	??$_Kfn@$$CBG_N@?$_Umap_traits@G_NV?$_Uhash_compare@GU?$hash@G@std@@U?$equal_to@G@2@@std@@V?$allocator@U?$pair@$$CBG_N@std@@@2@$0A@@std@@SAAEBGAEBU?$pair@$$CBG_N@1@@Z ; std::_Umap_traits<unsigned short,bool,std::_Uhash_compare<unsigned short,std::hash<unsigned short>,std::equal_to<unsigned short> >,std::allocator<std::pair<unsigned short const ,bool> >,0>::_Kfn<unsigned short const ,bool>
PUBLIC	??$?0AEAPEAU?$_List_node@U?$pair@$$CBG_N@std@@PEAX@std@@_N$0A@@?$pair@PEAU?$_List_node@U?$pair@$$CBG_N@std@@PEAX@std@@_N@std@@QEAA@AEAPEAU?$_List_node@U?$pair@$$CBG_N@std@@PEAX@1@$$QEA_N@Z ; std::pair<std::_List_node<std::pair<unsigned short const ,bool>,void *> *,bool>::pair<std::_List_node<std::pair<unsigned short const ,bool>,void *> *,bool><std::_List_node<std::pair<unsigned short const ,bool>,void *> * &,bool,0>
PUBLIC	??$?0PEAU?$_List_node@U?$pair@$$CBG_N@std@@PEAX@std@@_N$0A@@?$pair@PEAU?$_List_node@U?$pair@$$CBG_N@std@@PEAX@std@@_N@std@@QEAA@$$QEAPEAU?$_List_node@U?$pair@$$CBG_N@std@@PEAX@1@$$QEA_N@Z ; std::pair<std::_List_node<std::pair<unsigned short const ,bool>,void *> *,bool>::pair<std::_List_node<std::pair<unsigned short const ,bool>,void *> *,bool><std::_List_node<std::pair<unsigned short const ,bool>,void *> *,bool,0>
PUBLIC	??$forward_as_tuple@G@std@@YA?AV?$tuple@$$QEAG@0@$$QEAG@Z ; std::forward_as_tuple<unsigned short>
PUBLIC	??0?$tuple@$$QEAG@std@@QEAA@$$QEAV01@@Z		; std::tuple<unsigned short &&>::tuple<unsigned short &&>
PUBLIC	??$?0AEBUpiecewise_construct_t@std@@V?$tuple@$$QEAG@1@V?$tuple@$$V@1@@?$_List_node_emplace_op2@V?$allocator@U?$_List_node@U?$pair@$$CBG_N@std@@PEAX@std@@@std@@@std@@QEAA@AEAV?$allocator@U?$_List_node@U?$pair@$$CBG_N@std@@PEAX@std@@@1@AEBUpiecewise_construct_t@1@$$QEAV?$tuple@$$QEAG@1@$$QEAV?$tuple@$$V@1@@Z ; std::_List_node_emplace_op2<std::allocator<std::_List_node<std::pair<unsigned short const ,bool>,void *> > >::_List_node_emplace_op2<std::allocator<std::_List_node<std::pair<unsigned short const ,bool>,void *> > ><std::piecewise_construct_t const &,std::tuple<unsigned short &&>,std::tuple<> >
PUBLIC	??$_Construct_in_place@PEADAEBQEAD@std@@YAXAEAPEADAEBQEAD@Z ; std::_Construct_in_place<char *,char * const &>
PUBLIC	??$forward@V?$allocator@D@std@@@std@@YA$$QEAV?$allocator@D@0@AEAV10@@Z ; std::forward<std::allocator<char> >
PUBLIC	??$forward@U_Zero_then_variadic_args_t@std@@@std@@YA$$QEAU_Zero_then_variadic_args_t@0@AEAU10@@Z ; std::forward<std::_Zero_then_variadic_args_t>
PUBLIC	??$forward@M@std@@YA$$QEAMAEAM@Z		; std::forward<float>
PUBLIC	??$forward@AEBV?$allocator@U?$pair@$$CBG_N@std@@@std@@@std@@YAAEBV?$allocator@U?$pair@$$CBG_N@std@@@0@AEBV10@@Z ; std::forward<std::allocator<std::pair<unsigned short const ,bool> > const &>
PUBLIC	??$?0AEBV?$allocator@U?$pair@$$CBG_N@std@@@std@@$$V@?$_Compressed_pair@V?$allocator@V?$_List_unchecked_iterator@V?$_List_val@U?$_List_simple_types@U?$pair@$$CBG_N@std@@@std@@@std@@@std@@@std@@V?$_Vector_val@U?$_Simple_types@V?$_List_unchecked_iterator@V?$_List_val@U?$_List_simple_types@U?$pair@$$CBG_N@std@@@std@@@std@@@std@@@std@@@2@$00@std@@QEAA@U_One_then_variadic_args_t@1@AEBV?$allocator@U?$pair@$$CBG_N@std@@@1@@Z ; std::_Compressed_pair<std::allocator<std::_List_unchecked_iterator<std::_List_val<std::_List_simple_types<std::pair<unsigned short const ,bool> > > > >,std::_Vector_val<std::_Simple_types<std::_List_unchecked_iterator<std::_List_val<std::_List_simple_types<std::pair<unsigned short const ,bool> > > > > >,1>::_Compressed_pair<std::allocator<std::_List_unchecked_iterator<std::_List_val<std::_List_simple_types<std::pair<unsigned short const ,bool> > > > >,std::_Vector_val<std::_Simple_types<std::_List_unchecked_iterator<std::_List_val<std::_List_simple_types<std::pair<unsigned short const ,bool> > > > > >,1><std::allocator<std::pair<unsigned short const ,bool> > const &>
PUBLIC	??$?0U?$pair@$$CBG_N@std@@@?$allocator@V?$_List_unchecked_iterator@V?$_List_val@U?$_List_simple_types@U?$pair@$$CBG_N@std@@@std@@@std@@@std@@@std@@QEAA@AEBV?$allocator@U?$pair@$$CBG_N@std@@@1@@Z ; std::allocator<std::_List_unchecked_iterator<std::_List_val<std::_List_simple_types<std::pair<unsigned short const ,bool> > > > >::allocator<std::_List_unchecked_iterator<std::_List_val<std::_List_simple_types<std::pair<unsigned short const ,bool> > > > ><std::pair<unsigned short const ,bool> >
PUBLIC	??$_Freenode@V?$allocator@U?$_List_node@U?$pair@$$CBG_N@std@@PEAX@std@@@std@@@?$_List_node@U?$pair@$$CBG_N@std@@PEAX@std@@SAXAEAV?$allocator@U?$_List_node@U?$pair@$$CBG_N@std@@PEAX@std@@@1@PEAU01@@Z ; std::_List_node<std::pair<unsigned short const ,bool>,void *>::_Freenode<std::allocator<std::_List_node<std::pair<unsigned short const ,bool>,void *> > >
PUBLIC	??$_Destroy_in_place@PEAU?$_List_node@U?$pair@$$CBG_N@std@@PEAX@std@@@std@@YAXAEAPEAU?$_List_node@U?$pair@$$CBG_N@std@@PEAX@0@@Z ; std::_Destroy_in_place<std::_List_node<std::pair<unsigned short const ,bool>,void *> *>
PUBLIC	??$addressof@T_Bxty@?$_String_val@U?$_Simple_types@D@std@@@std@@@std@@YAPEAT_Bxty@?$_String_val@U?$_Simple_types@D@std@@@0@AEAT120@@Z ; std::addressof<std::_String_val<std::_Simple_types<char> >::_Bxty>
PUBLIC	??$construct_at@T_Bxty@?$_String_val@U?$_Simple_types@D@std@@@std@@$$VX@std@@YAPEAT_Bxty@?$_String_val@U?$_Simple_types@D@std@@@0@QEAT120@@Z ; std::construct_at<std::_String_val<std::_Simple_types<char> >::_Bxty,void>
PUBLIC	??$_Voidify_iter@PEAT_Bxty@?$_String_val@U?$_Simple_types@D@std@@@std@@@std@@YAPEAXPEAT_Bxty@?$_String_val@U?$_Simple_types@D@std@@@0@@Z ; std::_Voidify_iter<std::_String_val<std::_Simple_types<char> >::_Bxty *>
PUBLIC	??$addressof@PEAD@std@@YAPEAPEADAEAPEAD@Z	; std::addressof<char *>
PUBLIC	??$forward@AEAPEAD@std@@YAAEAPEADAEAPEAD@Z	; std::forward<char * &>
PUBLIC	??$construct_at@PEADAEAPEADX@std@@YAPEAPEADQEAPEADAEAPEAD@Z ; std::construct_at<char *,char * &,void>
PUBLIC	??$_Voidify_iter@PEAPEAD@std@@YAPEAXPEAPEAD@Z	; std::_Voidify_iter<char * *>
PUBLIC	??$forward@AEBV?$allocator@D@std@@@std@@YAAEBV?$allocator@D@0@AEBV10@@Z ; std::forward<std::allocator<char> const &>
PUBLIC	??$_Adl_verify_range@PEAV?$_List_unchecked_iterator@V?$_List_val@U?$_List_simple_types@U?$pair@$$CBG_N@std@@@std@@@std@@@std@@PEAV12@@std@@YAXAEBQEAV?$_List_unchecked_iterator@V?$_List_val@U?$_List_simple_types@U?$pair@$$CBG_N@std@@@std@@@std@@@0@0@Z ; std::_Adl_verify_range<std::_List_unchecked_iterator<std::_List_val<std::_List_simple_types<std::pair<unsigned short const ,bool> > > > *,std::_List_unchecked_iterator<std::_List_val<std::_List_simple_types<std::pair<unsigned short const ,bool> > > > *>
PUBLIC	??$_Get_unwrapped@AEBQEAV?$_List_unchecked_iterator@V?$_List_val@U?$_List_simple_types@U?$pair@$$CBG_N@std@@@std@@@std@@@std@@@std@@YA?A_TAEBQEAV?$_List_unchecked_iterator@V?$_List_val@U?$_List_simple_types@U?$pair@$$CBG_N@std@@@std@@@std@@@0@@Z ; std::_Get_unwrapped<std::_List_unchecked_iterator<std::_List_val<std::_List_simple_types<std::pair<unsigned short const ,bool> > > > * const &>
PUBLIC	??0?$_Uninitialized_backout@PEAV?$_List_unchecked_iterator@V?$_List_val@U?$_List_simple_types@U?$pair@$$CBG_N@std@@@std@@@std@@@std@@@std@@QEAA@PEAV?$_List_unchecked_iterator@V?$_List_val@U?$_List_simple_types@U?$pair@$$CBG_N@std@@@std@@@std@@@1@@Z ; std::_Uninitialized_backout<std::_List_unchecked_iterator<std::_List_val<std::_List_simple_types<std::pair<unsigned short const ,bool> > > > *>::_Uninitialized_backout<std::_List_unchecked_iterator<std::_List_val<std::_List_simple_types<std::pair<unsigned short const ,bool> > > > *>
PUBLIC	??1?$_Uninitialized_backout@PEAV?$_List_unchecked_iterator@V?$_List_val@U?$_List_simple_types@U?$pair@$$CBG_N@std@@@std@@@std@@@std@@@std@@QEAA@XZ ; std::_Uninitialized_backout<std::_List_unchecked_iterator<std::_List_val<std::_List_simple_types<std::pair<unsigned short const ,bool> > > > *>::~_Uninitialized_backout<std::_List_unchecked_iterator<std::_List_val<std::_List_simple_types<std::pair<unsigned short const ,bool> > > > *>
PUBLIC	?_Release@?$_Uninitialized_backout@PEAV?$_List_unchecked_iterator@V?$_List_val@U?$_List_simple_types@U?$pair@$$CBG_N@std@@@std@@@std@@@std@@@std@@QEAAPEAV?$_List_unchecked_iterator@V?$_List_val@U?$_List_simple_types@U?$pair@$$CBG_N@std@@@std@@@std@@@2@XZ ; std::_Uninitialized_backout<std::_List_unchecked_iterator<std::_List_val<std::_List_simple_types<std::pair<unsigned short const ,bool> > > > *>::_Release
PUBLIC	??$_Emplace_back@AEBV?$_List_unchecked_iterator@V?$_List_val@U?$_List_simple_types@U?$pair@$$CBG_N@std@@@std@@@std@@@std@@@?$_Uninitialized_backout@PEAV?$_List_unchecked_iterator@V?$_List_val@U?$_List_simple_types@U?$pair@$$CBG_N@std@@@std@@@std@@@std@@@std@@QEAAXAEBV?$_List_unchecked_iterator@V?$_List_val@U?$_List_simple_types@U?$pair@$$CBG_N@std@@@std@@@std@@@1@@Z ; std::_Uninitialized_backout<std::_List_unchecked_iterator<std::_List_val<std::_List_simple_types<std::pair<unsigned short const ,bool> > > > *>::_Emplace_back<std::_List_unchecked_iterator<std::_List_val<std::_List_simple_types<std::pair<unsigned short const ,bool> > > > const &>
PUBLIC	??$_Allocate_manually_vector_aligned@U_Default_allocate_traits@std@@@std@@YAPEAX_K@Z ; std::_Allocate_manually_vector_aligned<std::_Default_allocate_traits>
PUBLIC	??$addressof@PEAU?$_List_node@U?$pair@$$CBG_N@std@@PEAX@std@@@std@@YAPEAPEAU?$_List_node@U?$pair@$$CBG_N@std@@PEAX@0@AEAPEAU10@@Z ; std::addressof<std::_List_node<std::pair<unsigned short const ,bool>,void *> *>
PUBLIC	??$forward@AEAPEAU?$_List_node@U?$pair@$$CBG_N@std@@PEAX@std@@@std@@YAAEAPEAU?$_List_node@U?$pair@$$CBG_N@std@@PEAX@0@AEAPEAU10@@Z ; std::forward<std::_List_node<std::pair<unsigned short const ,bool>,void *> * &>
PUBLIC	??$construct_at@PEAU?$_List_node@U?$pair@$$CBG_N@std@@PEAX@std@@AEAPEAU12@X@std@@YAPEAPEAU?$_List_node@U?$pair@$$CBG_N@std@@PEAX@0@QEAPEAU10@AEAPEAU10@@Z ; std::construct_at<std::_List_node<std::pair<unsigned short const ,bool>,void *> *,std::_List_node<std::pair<unsigned short const ,bool>,void *> * &,void>
PUBLIC	??$_Voidify_iter@PEAPEAU?$_List_node@U?$pair@$$CBG_N@std@@PEAX@std@@@std@@YAPEAXPEAPEAU?$_List_node@U?$pair@$$CBG_N@std@@PEAX@0@@Z ; std::_Voidify_iter<std::_List_node<std::pair<unsigned short const ,bool>,void *> * *>
PUBLIC	??$addressof@U?$pair@$$CBG_N@std@@@std@@YAPEAU?$pair@$$CBG_N@0@AEAU10@@Z ; std::addressof<std::pair<unsigned short const ,bool> >
PUBLIC	??$destroy@U?$pair@$$CBG_N@std@@@?$_Default_allocator_traits@V?$allocator@U?$_List_node@U?$pair@$$CBG_N@std@@PEAX@std@@@std@@@std@@SAXAEAV?$allocator@U?$_List_node@U?$pair@$$CBG_N@std@@PEAX@std@@@1@QEAU?$pair@$$CBG_N@1@@Z ; std::_Default_allocator_traits<std::allocator<std::_List_node<std::pair<unsigned short const ,bool>,void *> > >::destroy<std::pair<unsigned short const ,bool> >
PUBLIC	??$exchange@PEAU?$_List_node@U?$pair@$$CBG_N@std@@PEAX@std@@$$T@std@@YAPEAU?$_List_node@U?$pair@$$CBG_N@std@@PEAX@0@AEAPEAU10@$$QEA$$T@Z ; std::exchange<std::_List_node<std::pair<unsigned short const ,bool>,void *> *,std::nullptr_t>
PUBLIC	??$exchange@PEAV_Facet_base@std@@$$T@std@@YAPEAV_Facet_base@0@AEAPEAV10@$$QEA$$T@Z ; std::exchange<std::_Facet_base *,std::nullptr_t>
PUBLIC	??$_Construct_in_place@PEAU?$_List_node@U?$pair@$$CBG_N@std@@PEAX@std@@AEBQEAU12@@std@@YAXAEAPEAU?$_List_node@U?$pair@$$CBG_N@std@@PEAX@0@AEBQEAU10@@Z ; std::_Construct_in_place<std::_List_node<std::pair<unsigned short const ,bool>,void *> *,std::_List_node<std::pair<unsigned short const ,bool>,void *> * const &>
PUBLIC	??$?0AEAV?$allocator@D@std@@$$V@?$_Compressed_pair@V?$allocator@D@std@@V?$_String_val@U?$_Simple_types@D@std@@@2@$00@std@@QEAA@U_One_then_variadic_args_t@1@AEAV?$allocator@D@1@@Z ; std::_Compressed_pair<std::allocator<char>,std::_String_val<std::_Simple_types<char> >,1>::_Compressed_pair<std::allocator<char>,std::_String_val<std::_Simple_types<char> >,1><std::allocator<char> &>
PUBLIC	??$_Allocators_equal@V?$allocator@D@std@@@std@@YA_NAEBV?$allocator@D@0@0@Z ; std::_Allocators_equal<std::allocator<char> >
PUBLIC	??0_Clear_guard@?$_Hash@V?$_Umap_traits@G_NV?$_Uhash_compare@GU?$hash@G@std@@U?$equal_to@G@2@@std@@V?$allocator@U?$pair@$$CBG_N@std@@@2@$0A@@std@@@std@@QEAA@QEAV12@@Z ; std::_Hash<std::_Umap_traits<unsigned short,bool,std::_Uhash_compare<unsigned short,std::hash<unsigned short>,std::equal_to<unsigned short> >,std::allocator<std::pair<unsigned short const ,bool> >,0> >::_Clear_guard::_Clear_guard
PUBLIC	??1_Clear_guard@?$_Hash@V?$_Umap_traits@G_NV?$_Uhash_compare@GU?$hash@G@std@@U?$equal_to@G@2@@std@@V?$allocator@U?$pair@$$CBG_N@std@@@2@$0A@@std@@@std@@QEAA@XZ ; std::_Hash<std::_Umap_traits<unsigned short,bool,std::_Uhash_compare<unsigned short,std::hash<unsigned short>,std::equal_to<unsigned short> >,std::allocator<std::pair<unsigned short const ,bool> >,0> >::_Clear_guard::~_Clear_guard
PUBLIC	??$?RGG@?$_Uhash_compare@GU?$hash@G@std@@U?$equal_to@G@2@@std@@QEBA_NAEBG0@Z ; std::_Uhash_compare<unsigned short,std::hash<unsigned short>,std::equal_to<unsigned short> >::operator()<unsigned short,unsigned short>
PUBLIC	??R<lambda_1>@?1??insert@?$basic_string@DU?$char_traits@D@std@@V?$allocator@D@2@@std@@QEAAAEAV23@_KQEBD0@Z@QEBA@QEAD10010@Z ; `std::basic_string<char,std::char_traits<char>,std::allocator<char> >::insert'::`2'::<lambda_1>::operator()
PUBLIC	??$_Reallocate_grow_by@V<lambda_1>@?1??insert@?$basic_string@DU?$char_traits@D@std@@V?$allocator@D@2@@std@@QEAAAEAV34@_KQEBD0@Z@_KPEBD_K@?$basic_string@DU?$char_traits@D@std@@V?$allocator@D@2@@std@@AEAAAEAV01@_KV<lambda_1>@?1??insert@01@QEAAAEAV01@0QEBD0@Z@_KPEBD3@Z ; std::basic_string<char,std::char_traits<char>,std::allocator<char> >::_Reallocate_grow_by<`std::basic_string<char,std::char_traits<char>,std::allocator<char> >::insert'::`2'::<lambda_1>,unsigned __int64,char const *,unsigned __int64>
PUBLIC	??1?$_Tidy_guard@V?$numpunct@D@std@@@std@@QEAA@XZ ; std::_Tidy_guard<std::numpunct<char> >::~_Tidy_guard<std::numpunct<char> >
PUBLIC	??$_Maklocstr@D@std@@YAPEADPEBDPEADAEBU_Cvtvec@@@Z ; std::_Maklocstr<char>
PUBLIC	??$_Maklocchr@D@std@@YADDPEADAEBU_Cvtvec@@@Z	; std::_Maklocchr<char>
PUBLIC	??$_Getvals@D@?$numpunct@D@std@@IEAAXDPEBUlconv@@U_Cvtvec@@@Z ; std::numpunct<char>::_Getvals<char>
PUBLIC	??0_Range_eraser@?$_Hash@V?$_Umap_traits@G_NV?$_Uhash_compare@GU?$hash@G@std@@U?$equal_to@G@2@@std@@V?$allocator@U?$pair@$$CBG_N@std@@@2@$0A@@std@@@std@@QEAA@AEAV?$list@U?$pair@$$CBG_N@std@@V?$allocator@U?$pair@$$CBG_N@std@@@2@@2@QEAU?$_List_node@U?$pair@$$CBG_N@std@@PEAX@2@@Z ; std::_Hash<std::_Umap_traits<unsigned short,bool,std::_Uhash_compare<unsigned short,std::hash<unsigned short>,std::equal_to<unsigned short> >,std::allocator<std::pair<unsigned short const ,bool> >,0> >::_Range_eraser::_Range_eraser
PUBLIC	?_Bump_erased@_Range_eraser@?$_Hash@V?$_Umap_traits@G_NV?$_Uhash_compare@GU?$hash@G@std@@U?$equal_to@G@2@@std@@V?$allocator@U?$pair@$$CBG_N@std@@@2@$0A@@std@@@std@@QEAAXXZ ; std::_Hash<std::_Umap_traits<unsigned short,bool,std::_Uhash_compare<unsigned short,std::hash<unsigned short>,std::equal_to<unsigned short> >,std::allocator<std::pair<unsigned short const ,bool> >,0> >::_Range_eraser::_Bump_erased
PUBLIC	??1_Range_eraser@?$_Hash@V?$_Umap_traits@G_NV?$_Uhash_compare@GU?$hash@G@std@@U?$equal_to@G@2@@std@@V?$allocator@U?$pair@$$CBG_N@std@@@2@$0A@@std@@@std@@QEAA@XZ ; std::_Hash<std::_Umap_traits<unsigned short,bool,std::_Uhash_compare<unsigned short,std::hash<unsigned short>,std::equal_to<unsigned short> >,std::allocator<std::pair<unsigned short const ,bool> >,0> >::_Range_eraser::~_Range_eraser
PUBLIC	??$?0AEAPEAV_Facet_base@std@@@?$_Compressed_pair@U?$default_delete@V_Facet_base@std@@@std@@PEAV_Facet_base@2@$00@std@@QEAA@U_Zero_then_variadic_args_t@1@AEAPEAV_Facet_base@1@@Z ; std::_Compressed_pair<std::default_delete<std::_Facet_base>,std::_Facet_base *,1>::_Compressed_pair<std::default_delete<std::_Facet_base>,std::_Facet_base *,1><std::_Facet_base * &>
PUBLIC	??$_Get_unwrapped@AEAPEAD@std@@YA?A_TAEAPEAD@Z	; std::_Get_unwrapped<char * &>
PUBLIC	??$_Construct@$00PEAD@?$basic_string@DU?$char_traits@D@std@@V?$allocator@D@2@@std@@AEAAXQEAD_K@Z ; std::basic_string<char,std::char_traits<char>,std::allocator<char> >::_Construct<1,char *>
PUBLIC	??$_Construct_in_place@HH@std@@YAXAEAH$$QEAH@Z	; std::_Construct_in_place<int,int>
PUBLIC	??$_Construct_in_place@V?$_vec2@H@fan@@V12@@std@@YAXAEAV?$_vec2@H@fan@@$$QEAV12@@Z ; std::_Construct_in_place<fan::_vec2<int>,fan::_vec2<int> >
PUBLIC	??0?$_Rng_from_urng@_KV?$mersenne_twister_engine@_K$0EA@$0BDI@$0JM@$0BP@$0?EKPNJAKFFGJJOGBH@$0BN@$0FFFFFFFFFFFFFFFF@$0BB@$0HBNGHPPPONKGAAAA@$0CF@$0?IBBCAAAAAAAAA@$0CL@$0FIFBPECNEMJFHPCN@@std@@@std@@QEAA@AEAV?$mersenne_twister_engine@_K$0EA@$0BDI@$0JM@$0BP@$0?EKPNJAKFFGJJOGBH@$0BN@$0FFFFFFFFFFFFFFFF@$0BB@$0HBNGHPPPONKGAAAA@$0CF@$0?IBBCAAAAAAAAA@$0CL@$0FIFBPECNEMJFHPCN@@1@@Z ; std::_Rng_from_urng<unsigned __int64,std::mersenne_twister_engine<unsigned __int64,64,312,156,31,-5403634167711393303,29,6148914691236517205,17,8202884508482404352,37,-2270628950310912,43,6364136223846793005> >::_Rng_from_urng<unsigned __int64,std::mersenne_twister_engine<unsigned __int64,64,312,156,31,-5403634167711393303,29,6148914691236517205,17,8202884508482404352,37,-2270628950310912,43,6364136223846793005> >
PUBLIC	??R?$_Rng_from_urng@_KV?$mersenne_twister_engine@_K$0EA@$0BDI@$0JM@$0BP@$0?EKPNJAKFFGJJOGBH@$0BN@$0FFFFFFFFFFFFFFFF@$0BB@$0HBNGHPPPONKGAAAA@$0CF@$0?IBBCAAAAAAAAA@$0CL@$0FIFBPECNEMJFHPCN@@std@@@std@@QEAA_K_K@Z ; std::_Rng_from_urng<unsigned __int64,std::mersenne_twister_engine<unsigned __int64,64,312,156,31,-5403634167711393303,29,6148914691236517205,17,8202884508482404352,37,-2270628950310912,43,6364136223846793005> >::operator()
PUBLIC	?_Get_all_bits@?$_Rng_from_urng@_KV?$mersenne_twister_engine@_K$0EA@$0BDI@$0JM@$0BP@$0?EKPNJAKFFGJJOGBH@$0BN@$0FFFFFFFFFFFFFFFF@$0BB@$0HBNGHPPPONKGAAAA@$0CF@$0?IBBCAAAAAAAAA@$0CL@$0FIFBPECNEMJFHPCN@@std@@@std@@QEAA_KXZ ; std::_Rng_from_urng<unsigned __int64,std::mersenne_twister_engine<unsigned __int64,64,312,156,31,-5403634167711393303,29,6148914691236517205,17,8202884508482404352,37,-2270628950310912,43,6364136223846793005> >::_Get_all_bits
PUBLIC	?_Get_bits@?$_Rng_from_urng@_KV?$mersenne_twister_engine@_K$0EA@$0BDI@$0JM@$0BP@$0?EKPNJAKFFGJJOGBH@$0BN@$0FFFFFFFFFFFFFFFF@$0BB@$0HBNGHPPPONKGAAAA@$0CF@$0?IBBCAAAAAAAAA@$0CL@$0FIFBPECNEMJFHPCN@@std@@@std@@AEAA_KXZ ; std::_Rng_from_urng<unsigned __int64,std::mersenne_twister_engine<unsigned __int64,64,312,156,31,-5403634167711393303,29,6148914691236517205,17,8202884508482404352,37,-2270628950310912,43,6364136223846793005> >::_Get_bits
PUBLIC	??$forward@AEBUpiecewise_construct_t@std@@@std@@YAAEBUpiecewise_construct_t@0@AEBU10@@Z ; std::forward<std::piecewise_construct_t const &>
PUBLIC	??$forward@V?$tuple@$$V@std@@@std@@YA$$QEAV?$tuple@$$V@0@AEAV10@@Z ; std::forward<std::tuple<> >
PUBLIC	??$?0AEBG$0A@@?$tuple@AEBG@std@@QEAA@AEBG@Z	; std::tuple<unsigned short const &>::tuple<unsigned short const &><unsigned short const &,0>
PUBLIC	??$forward@V?$tuple@AEBG@std@@@std@@YA$$QEAV?$tuple@AEBG@0@AEAV10@@Z ; std::forward<std::tuple<unsigned short const &> >
PUBLIC	??$construct@U?$pair@$$CBG_N@std@@AEBUpiecewise_construct_t@2@V?$tuple@AEBG@2@V?$tuple@$$V@2@@?$_Default_allocator_traits@V?$allocator@U?$_List_node@U?$pair@$$CBG_N@std@@PEAX@std@@@std@@@std@@SAXAEAV?$allocator@U?$_List_node@U?$pair@$$CBG_N@std@@PEAX@std@@@1@QEAU?$pair@$$CBG_N@1@AEBUpiecewise_construct_t@1@$$QEAV?$tuple@AEBG@1@$$QEAV?$tuple@$$V@1@@Z ; std::_Default_allocator_traits<std::allocator<std::_List_node<std::pair<unsigned short const ,bool>,void *> > >::construct<std::pair<unsigned short const ,bool>,std::piecewise_construct_t const &,std::tuple<unsigned short const &>,std::tuple<> >
PUBLIC	??$forward@PEAU?$_List_node@U?$pair@$$CBG_N@std@@PEAX@std@@@std@@YA$$QEAPEAU?$_List_node@U?$pair@$$CBG_N@std@@PEAX@0@AEAPEAU10@@Z ; std::forward<std::_List_node<std::pair<unsigned short const ,bool>,void *> *>
PUBLIC	??$?0G$$V$0A@@?$tuple@$$QEAG@std@@QEAA@$$QEAG@Z	; std::tuple<unsigned short &&>::tuple<unsigned short &&><unsigned short,0>
PUBLIC	??$forward@V?$tuple@$$QEAG@std@@@std@@YA$$QEAV?$tuple@$$QEAG@0@AEAV10@@Z ; std::forward<std::tuple<unsigned short &&> >
PUBLIC	??$construct@U?$pair@$$CBG_N@std@@AEBUpiecewise_construct_t@2@V?$tuple@$$QEAG@2@V?$tuple@$$V@2@@?$_Default_allocator_traits@V?$allocator@U?$_List_node@U?$pair@$$CBG_N@std@@PEAX@std@@@std@@@std@@SAXAEAV?$allocator@U?$_List_node@U?$pair@$$CBG_N@std@@PEAX@std@@@1@QEAU?$pair@$$CBG_N@1@AEBUpiecewise_construct_t@1@$$QEAV?$tuple@$$QEAG@1@$$QEAV?$tuple@$$V@1@@Z ; std::_Default_allocator_traits<std::allocator<std::_List_node<std::pair<unsigned short const ,bool>,void *> > >::construct<std::pair<unsigned short const ,bool>,std::piecewise_construct_t const &,std::tuple<unsigned short &&>,std::tuple<> >
PUBLIC	??$forward@AEBQEAD@std@@YAAEBQEADAEBQEAD@Z	; std::forward<char * const &>
PUBLIC	??$construct_at@PEADAEBQEADX@std@@YAPEAPEADQEAPEADAEBQEAD@Z ; std::construct_at<char *,char * const &,void>
PUBLIC	??$forward@AEBV?$_List_unchecked_iterator@V?$_List_val@U?$_List_simple_types@U?$pair@$$CBG_N@std@@@std@@@std@@@std@@@std@@YAAEBV?$_List_unchecked_iterator@V?$_List_val@U?$_List_simple_types@U?$pair@$$CBG_N@std@@@std@@@std@@@0@AEBV10@@Z ; std::forward<std::_List_unchecked_iterator<std::_List_val<std::_List_simple_types<std::pair<unsigned short const ,bool> > > > const &>
PUBLIC	??$_Construct_in_place@V?$_List_unchecked_iterator@V?$_List_val@U?$_List_simple_types@U?$pair@$$CBG_N@std@@@std@@@std@@@std@@AEBV12@@std@@YAXAEAV?$_List_unchecked_iterator@V?$_List_val@U?$_List_simple_types@U?$pair@$$CBG_N@std@@@std@@@std@@@0@AEBV10@@Z ; std::_Construct_in_place<std::_List_unchecked_iterator<std::_List_val<std::_List_simple_types<std::pair<unsigned short const ,bool> > > >,std::_List_unchecked_iterator<std::_List_val<std::_List_simple_types<std::pair<unsigned short const ,bool> > > > const &>
PUBLIC	??$destroy_at@U?$pair@$$CBG_N@std@@@std@@YAXQEAU?$pair@$$CBG_N@0@@Z ; std::destroy_at<std::pair<unsigned short const ,bool> >
PUBLIC	??$forward@AEBQEAU?$_List_node@U?$pair@$$CBG_N@std@@PEAX@std@@@std@@YAAEBQEAU?$_List_node@U?$pair@$$CBG_N@std@@PEAX@0@AEBQEAU10@@Z ; std::forward<std::_List_node<std::pair<unsigned short const ,bool>,void *> * const &>
PUBLIC	??$construct_at@PEAU?$_List_node@U?$pair@$$CBG_N@std@@PEAX@std@@AEBQEAU12@X@std@@YAPEAPEAU?$_List_node@U?$pair@$$CBG_N@std@@PEAX@0@QEAPEAU10@AEBQEAU10@@Z ; std::construct_at<std::_List_node<std::pair<unsigned short const ,bool>,void *> *,std::_List_node<std::pair<unsigned short const ,bool>,void *> * const &,void>
PUBLIC	??$forward@AEAV?$allocator@D@std@@@std@@YAAEAV?$allocator@D@0@AEAV10@@Z ; std::forward<std::allocator<char> &>
PUBLIC	??$_Hash_representation@G@std@@YA_KAEBG@Z	; std::_Hash_representation<unsigned short>
PUBLIC	??$forward@AEAPEAV_Facet_base@std@@@std@@YAAEAPEAV_Facet_base@0@AEAPEAV10@@Z ; std::forward<std::_Facet_base * &>
PUBLIC	??$addressof@H@std@@YAPEAHAEAH@Z		; std::addressof<int>
PUBLIC	??$construct_at@HHX@std@@YAPEAHQEAH$$QEAH@Z	; std::construct_at<int,int,void>
PUBLIC	??$_Voidify_iter@PEAH@std@@YAPEAXPEAH@Z		; std::_Voidify_iter<int *>
PUBLIC	??$addressof@V?$_vec2@H@fan@@@std@@YAPEAV?$_vec2@H@fan@@AEAV12@@Z ; std::addressof<fan::_vec2<int> >
PUBLIC	??$construct_at@V?$_vec2@H@fan@@V12@X@std@@YAPEAV?$_vec2@H@fan@@QEAV12@$$QEAV12@@Z ; std::construct_at<fan::_vec2<int>,fan::_vec2<int>,void>
PUBLIC	??$_Voidify_iter@PEAV?$_vec2@H@fan@@@std@@YAPEAXPEAV?$_vec2@H@fan@@@Z ; std::_Voidify_iter<fan::_vec2<int> *>
PUBLIC	??$?0U_Exact_args_t@std@@AEBG$$V$0A@@?$tuple@AEBG@std@@QEAA@U_Exact_args_t@1@AEBG@Z ; std::tuple<unsigned short const &>::tuple<unsigned short const &><std::_Exact_args_t,unsigned short const &,0>
PUBLIC	??$?0AEBG$$Z$$V@?$pair@$$CBG_N@std@@QEAA@Upiecewise_construct_t@1@V?$tuple@AEBG@1@V?$tuple@$$V@1@@Z ; std::pair<unsigned short const ,bool>::pair<unsigned short const ,bool><unsigned short const &>
PUBLIC	??$construct_at@U?$pair@$$CBG_N@std@@AEBUpiecewise_construct_t@2@V?$tuple@AEBG@2@V?$tuple@$$V@2@X@std@@YAPEAU?$pair@$$CBG_N@0@QEAU10@AEBUpiecewise_construct_t@0@$$QEAV?$tuple@AEBG@0@$$QEAV?$tuple@$$V@0@@Z ; std::construct_at<std::pair<unsigned short const ,bool>,std::piecewise_construct_t const &,std::tuple<unsigned short const &>,std::tuple<>,void>
PUBLIC	??$_Voidify_iter@PEAU?$pair@$$CBG_N@std@@@std@@YAPEAXPEAU?$pair@$$CBG_N@0@@Z ; std::_Voidify_iter<std::pair<unsigned short const ,bool> *>
PUBLIC	??$?0U_Exact_args_t@std@@G$$V$0A@@?$tuple@$$QEAG@std@@QEAA@U_Exact_args_t@1@$$QEAG@Z ; std::tuple<unsigned short &&>::tuple<unsigned short &&><std::_Exact_args_t,unsigned short,0>
PUBLIC	??$?0$$QEAG$$Z$$V@?$pair@$$CBG_N@std@@QEAA@Upiecewise_construct_t@1@V?$tuple@$$QEAG@1@V?$tuple@$$V@1@@Z ; std::pair<unsigned short const ,bool>::pair<unsigned short const ,bool><unsigned short &&>
PUBLIC	??$construct_at@U?$pair@$$CBG_N@std@@AEBUpiecewise_construct_t@2@V?$tuple@$$QEAG@2@V?$tuple@$$V@2@X@std@@YAPEAU?$pair@$$CBG_N@0@QEAU10@AEBUpiecewise_construct_t@0@$$QEAV?$tuple@$$QEAG@0@$$QEAV?$tuple@$$V@0@@Z ; std::construct_at<std::pair<unsigned short const ,bool>,std::piecewise_construct_t const &,std::tuple<unsigned short &&>,std::tuple<>,void>
PUBLIC	??$addressof@V?$_List_unchecked_iterator@V?$_List_val@U?$_List_simple_types@U?$pair@$$CBG_N@std@@@std@@@std@@@std@@@std@@YAPEAV?$_List_unchecked_iterator@V?$_List_val@U?$_List_simple_types@U?$pair@$$CBG_N@std@@@std@@@std@@@0@AEAV10@@Z ; std::addressof<std::_List_unchecked_iterator<std::_List_val<std::_List_simple_types<std::pair<unsigned short const ,bool> > > > >
PUBLIC	??$construct_at@V?$_List_unchecked_iterator@V?$_List_val@U?$_List_simple_types@U?$pair@$$CBG_N@std@@@std@@@std@@@std@@AEBV12@X@std@@YAPEAV?$_List_unchecked_iterator@V?$_List_val@U?$_List_simple_types@U?$pair@$$CBG_N@std@@@std@@@std@@@0@QEAV10@AEBV10@@Z ; std::construct_at<std::_List_unchecked_iterator<std::_List_val<std::_List_simple_types<std::pair<unsigned short const ,bool> > > >,std::_List_unchecked_iterator<std::_List_val<std::_List_simple_types<std::pair<unsigned short const ,bool> > > > const &,void>
PUBLIC	??$_Voidify_iter@PEAV?$_List_unchecked_iterator@V?$_List_val@U?$_List_simple_types@U?$pair@$$CBG_N@std@@@std@@@std@@@std@@@std@@YAPEAXPEAV?$_List_unchecked_iterator@V?$_List_val@U?$_List_simple_types@U?$pair@$$CBG_N@std@@@std@@@std@@@0@@Z ; std::_Voidify_iter<std::_List_unchecked_iterator<std::_List_val<std::_List_simple_types<std::pair<unsigned short const ,bool> > > > *>
PUBLIC	??$_Fnv1a_append_value@G@std@@YA_K_KAEBG@Z	; std::_Fnv1a_append_value<unsigned short>
PUBLIC	??$?0U_Exact_args_t@std@@$0A@@?$tuple@$$V@std@@QEAA@U_Exact_args_t@1@@Z ; std::tuple<>::tuple<><std::_Exact_args_t,0>
PUBLIC	??$?0AEBG@?$_Tuple_val@AEBG@std@@QEAA@AEBG@Z	; std::_Tuple_val<unsigned short const &>::_Tuple_val<unsigned short const &><unsigned short const &>
PUBLIC	??$?0V?$tuple@AEBG@std@@V?$tuple@$$V@1@$0A@$$Z$S@?$pair@$$CBG_N@std@@QEAA@AEAV?$tuple@AEBG@1@AEAV?$tuple@$$V@1@U?$integer_sequence@_K$0A@@1@U?$integer_sequence@_K$S@1@@Z ; std::pair<unsigned short const ,bool>::pair<unsigned short const ,bool><std::tuple<unsigned short const &>,std::tuple<>,0>
PUBLIC	??$?0G@?$_Tuple_val@$$QEAG@std@@QEAA@$$QEAG@Z	; std::_Tuple_val<unsigned short &&>::_Tuple_val<unsigned short &&><unsigned short>
PUBLIC	??$?0V?$tuple@$$QEAG@std@@V?$tuple@$$V@1@$0A@$$Z$S@?$pair@$$CBG_N@std@@QEAA@AEAV?$tuple@$$QEAG@1@AEAV?$tuple@$$V@1@U?$integer_sequence@_K$0A@@1@U?$integer_sequence@_K$S@1@@Z ; std::pair<unsigned short const ,bool>::pair<unsigned short const ,bool><std::tuple<unsigned short &&>,std::tuple<>,0>
PUBLIC	??$move@AEAV?$tuple@AEBG@std@@@std@@YA$$QEAV?$tuple@AEBG@0@AEAV10@@Z ; std::move<std::tuple<unsigned short const &> &>
PUBLIC	??$_Tuple_get@$0A@AEBG@std@@YA$$QEA_P$$QEAV?$tuple@AEBG@0@@Z ; std::_Tuple_get<0,unsigned short const &>
PUBLIC	??$move@AEAV?$tuple@$$QEAG@std@@@std@@YA$$QEAV?$tuple@$$QEAG@0@AEAV10@@Z ; std::move<std::tuple<unsigned short &&> &>
PUBLIC	??$_Tuple_get@$0A@$$QEAG@std@@YA$$QEA_P$$QEAV?$tuple@$$QEAG@0@@Z ; std::_Tuple_get<0,unsigned short &&>
PUBLIC	?_OptionsStorage@?1??__local_stdio_printf_options@@9@4_KA ; `__local_stdio_printf_options'::`2'::_OptionsStorage
PUBLIC	?piecewise_construct@std@@3Upiecewise_construct_t@1@B ; std::piecewise_construct
PUBLIC	??_7exception@std@@6B@				; std::exception::`vftable'
PUBLIC	??_C@_0BC@EOODALEL@Unknown?5exception@		; `string'
PUBLIC	??_7bad_alloc@std@@6B@				; std::bad_alloc::`vftable'
PUBLIC	??_7bad_array_new_length@std@@6B@		; std::bad_array_new_length::`vftable'
PUBLIC	??_C@_0BF@KINCDENJ@bad?5array?5new?5length@	; `string'
PUBLIC	_TI3?AVbad_array_new_length@std@@
PUBLIC	_CTA3?AVbad_array_new_length@std@@
PUBLIC	??_R0?AVbad_array_new_length@std@@@8		; std::bad_array_new_length `RTTI Type Descriptor'
PUBLIC	_CT??_R0?AVbad_array_new_length@std@@@8??0bad_array_new_length@std@@QEAA@AEBV01@@Z24
PUBLIC	??_R0?AVbad_alloc@std@@@8			; std::bad_alloc `RTTI Type Descriptor'
PUBLIC	_CT??_R0?AVbad_alloc@std@@@8??0bad_alloc@std@@QEAA@AEBV01@@Z24
PUBLIC	??_R0?AVexception@std@@@8			; std::exception `RTTI Type Descriptor'
PUBLIC	_CT??_R0?AVexception@std@@@8??0exception@std@@QEAA@AEBV01@@Z24
PUBLIC	?_Fake_alloc@std@@3U_Fake_allocator@1@B		; std::_Fake_alloc
PUBLIC	??_C@_0BA@JFNIOLAK@string?5too?5long@		; `string'
PUBLIC	??_7runtime_error@std@@6B@			; std::runtime_error::`vftable'
PUBLIC	??_R0?AVruntime_error@std@@@8			; std::runtime_error `RTTI Type Descriptor'
PUBLIC	_CT??_R0?AVruntime_error@std@@@8??0runtime_error@std@@QEAA@AEBV01@@Z24
PUBLIC	??_7_System_error@std@@6B@			; std::_System_error::`vftable'
PUBLIC	??_C@_02LMMGGCAJ@?3?5@				; `string'
PUBLIC	??_7system_error@std@@6B@			; std::system_error::`vftable'
PUBLIC	??_C@_00CNPNBAHC@@				; `string'
PUBLIC	??_R0?AVsystem_error@std@@@8			; std::system_error `RTTI Type Descriptor'
PUBLIC	_CT??_R0?AVsystem_error@std@@@8??0system_error@std@@QEAA@AEBV01@@Z40
PUBLIC	??_R0?AV_System_error@std@@@8			; std::_System_error `RTTI Type Descriptor'
PUBLIC	_CT??_R0?AV_System_error@std@@@8??0_System_error@std@@QEAA@AEBV01@@Z40
PUBLIC	??_7_Iostream_error_category2@std@@6B@		; std::_Iostream_error_category2::`vftable'
PUBLIC	??_C@_08LLGCOLLL@iostream@			; `string'
PUBLIC	?_Iostream_error@?4??message@_Iostream_error_category2@std@@UEBA?AV?$basic_string@DU?$char_traits@D@std@@V?$allocator@D@2@@3@H@Z@4QBDB ; `std::_Iostream_error_category2::message'::`5'::_Iostream_error
PUBLIC	??_7bad_cast@std@@6B@				; std::bad_cast::`vftable'
PUBLIC	??_C@_08EPJLHIJG@bad?5cast@			; `string'
PUBLIC	_TI2?AVbad_cast@std@@
PUBLIC	_CTA2?AVbad_cast@std@@
PUBLIC	??_R0?AVbad_cast@std@@@8			; std::bad_cast `RTTI Type Descriptor'
PUBLIC	_CT??_R0?AVbad_cast@std@@@8??0bad_cast@std@@QEAA@AEBV01@@Z24
PUBLIC	??_7_Facet_base@std@@6B@			; std::_Facet_base::`vftable'
PUBLIC	??_C@_0BA@ELKIONDK@bad?5locale?5name@		; `string'
PUBLIC	??_C@_05LAPONLG@false@				; `string'
PUBLIC	??_C@_04LOAJBDKD@true@				; `string'
PUBLIC	??_7facet@locale@std@@6B@			; std::locale::facet::`vftable'
PUBLIC	??_7ctype_base@std@@6B@				; std::ctype_base::`vftable'
PUBLIC	??_7?$ctype@D@std@@6B@				; std::ctype<char>::`vftable'
PUBLIC	??_7failure@ios_base@std@@6B@			; std::ios_base::failure::`vftable'
PUBLIC	??_C@_0BF@PHHKMMFD@ios_base?3?3badbit?5set@	; `string'
PUBLIC	??_C@_0BG@FMKFHCIL@ios_base?3?3failbit?5set@	; `string'
PUBLIC	??_C@_0BF@OOHOMBOF@ios_base?3?3eofbit?5set@	; `string'
PUBLIC	_TI5?AVfailure@ios_base@std@@
PUBLIC	_CTA5?AVfailure@ios_base@std@@
PUBLIC	??_R0?AVfailure@ios_base@std@@@8		; std::ios_base::failure `RTTI Type Descriptor'
PUBLIC	_CT??_R0?AVfailure@ios_base@std@@@8??0failure@ios_base@std@@QEAA@AEBV012@@Z40
PUBLIC	??_C@_02NJPGOMH@?$CFf@				; `string'
PUBLIC	_TI2?AVruntime_error@std@@
PUBLIC	_CTA2?AVruntime_error@std@@
PUBLIC	??_C@_01LFCBOECM@?4@				; `string'
PUBLIC	?key_down@input@sys@fan@@2V?$unordered_map@G_NU?$hash@G@std@@U?$equal_to@G@2@V?$allocator@U?$pair@$$CBG_N@std@@@2@@std@@A ; fan::sys::input::key_down
PUBLIC	?_Min_buckets@?$_Hash@V?$_Umap_traits@G_NV?$_Uhash_compare@GU?$hash@G@std@@U?$equal_to@G@2@@std@@V?$allocator@U?$pair@$$CBG_N@std@@@2@$0A@@std@@@std@@2_KB ; std::_Hash<std::_Umap_traits<unsigned short,bool,std::_Uhash_compare<unsigned short,std::hash<unsigned short>,std::equal_to<unsigned short> >,std::allocator<std::pair<unsigned short const ,bool> >,0> >::_Min_buckets
PUBLIC	?reset_keys@input@sys@fan@@2V?$unordered_map@G_NU?$hash@G@std@@U?$equal_to@G@2@V?$allocator@U?$pair@$$CBG_N@std@@@2@@std@@A ; fan::sys::input::reset_keys
PUBLIC	?keyboard_hook@input@sys@fan@@0PEAUHHOOK__@@EA	; fan::sys::input::keyboard_hook
PUBLIC	?mouse_hook@input@sys@fan@@0PEAUHHOOK__@@EA	; fan::sys::input::mouse_hook
PUBLIC	?input_callback@input@sys@fan@@0V?$function@$$A6AXGW4key_state@fan@@_NVany@std@@@Z@std@@A ; fan::sys::input::input_callback
PUBLIC	?mouse_move_callback@input@sys@fan@@0V?$function@$$A6AXAEBV?$_vec2@H@fan@@@Z@std@@A ; fan::sys::input::mouse_move_callback
PUBLIC	?device@?1??value_i64@random@fan@@YA_J_J0@Z@4Vrandom_device@std@@A ; `fan::random::value_i64'::`2'::device
PUBLIC	?$TSS0@?1??value_i64@random@fan@@YA_J_J0@Z@4HA	; `fan::random::value_i64'::`2'::$TSS0
PUBLIC	?random@?1??value_i64@0fan@@YA_J_J0@Z@4V?$mersenne_twister_engine@_K$0EA@$0BDI@$0JM@$0BP@$0?EKPNJAKFFGJJOGBH@$0BN@$0FFFFFFFFFFFFFFFF@$0BB@$0HBNGHPPPONKGAAAA@$0CF@$0?IBBCAAAAAAAAA@$0CL@$0FIFBPECNEMJFHPCN@@std@@A ; `fan::random::value_i64'::`2'::random
PUBLIC	?$TSS1@?1??value_i64@random@fan@@YA_J_J0@Z@4HA	; `fan::random::value_i64'::`2'::$TSS1
PUBLIC	?window_id_storage@fan@@3U?$bll_t@Uwindow_id_storage_t@fan@@I@@A ; fan::window_id_storage
PUBLIC	?m_context@window_t@fan@@2PEAUHGLRC__@@EA	; fan::window_t::m_context
PUBLIC	?m_no_mouse@flag_values@window_t@fan@@2_NA	; fan::window_t::flag_values::m_no_mouse
PUBLIC	?m_no_resize@flag_values@window_t@fan@@2_NA	; fan::window_t::flag_values::m_no_resize
PUBLIC	?m_size_mode@flag_values@window_t@fan@@2W4mode@23@A ; fan::window_t::flag_values::m_size_mode
PUBLIC	??_C@_0BK@KPLAAGGE@time?5unit?5not?5implemented@ ; `string'
PUBLIC	??_C@_1DM@HOCJGMLG@?$AAC?$AA?3?$AA?2?$AAl?$AAi?$AAb?$AAs?$AA?2?$AAf?$AAa?$AAn?$AA?2?$AAi?$AAn?$AAc@ ; `string'
PUBLIC	??_C@_13COJANIEC@?$AA0@				; `string'
PUBLIC	??_C@_0BH@GGHNGKMB@invalid?5pointer?5access@	; `string'
PUBLIC	?id@?$num_put@DV?$ostreambuf_iterator@DU?$char_traits@D@std@@@std@@@std@@2V0locale@2@A ; std::num_put<char,std::ostreambuf_iterator<char,std::char_traits<char> > >::id
PUBLIC	??_7?$num_put@DV?$ostreambuf_iterator@DU?$char_traits@D@std@@@std@@@std@@6B@ ; std::num_put<char,std::ostreambuf_iterator<char,std::char_traits<char> > >::`vftable'
PUBLIC	?id@?$codecvt@DDU_Mbstatet@@@std@@2V0locale@2@A	; std::codecvt<char,char,_Mbstatet>::id
PUBLIC	??_C@_02BBAHNLBA@?$CFp@				; `string'
PUBLIC	??_C@_02CLHGNPPK@Lu@				; `string'
PUBLIC	??_C@_02HIKPPMOK@Ld@				; `string'
PUBLIC	??_C@_02BDDLJJBK@lu@				; `string'
PUBLIC	??_C@_02EAOCLKAK@ld@				; `string'
PUBLIC	?id@?$numpunct@D@std@@2V0locale@2@A		; std::numpunct<char>::id
PUBLIC	??_7?$numpunct@D@std@@6B@			; std::numpunct<char>::`vftable'
PUBLIC	??_C@_1CM@IAJJMEHE@?$AAn?$AAo?$AAd?$AAe?$AA_?$AAr?$AAe?$AAf?$AAe?$AAr?$AAe?$AAn?$AAc?$AAe?$AA?5@ ; `string'
PUBLIC	??_C@_1CM@PAHFEAMF@?$AAn?$AAo?$AAd?$AAe?$AA_?$AAr?$AAe?$AAf?$AAe?$AAr?$AAe?$AAn?$AAc?$AAe?$AA?5@ ; `string'
PUBLIC	??_C@_06NLINOEAE@?5size?3@			; `string'
PUBLIC	??_C@_0BG@CKHIAAHN@realloc?5failed?5?9?5ptr?3@	; `string'
PUBLIC	??_C@_0BF@CDNBEPKF@malloc?5failed?5?9?5ptr?3@	; `string'
PUBLIC	??_C@_02MDKMJEGG@eE@				; `string'
PUBLIC	??_C@_02OOPEBDOJ@pP@				; `string'
PUBLIC	??_C@_0BI@CFPLBAOH@invalid?5string?5position@	; `string'
PUBLIC	?_Static@?1???$_Immortalize_memcpy_image@V_Iostream_error_category2@std@@@std@@YAAEBV_Iostream_error_category2@1@XZ@4V21@B ; `std::_Immortalize_memcpy_image<std::_Iostream_error_category2>'::`2'::_Static
PUBLIC	?_Psave@?$_Facetptr@V?$ctype@D@std@@@std@@2PEBVfacet@locale@2@EB ; std::_Facetptr<std::ctype<char> >::_Psave
PUBLIC	?_Psave@?$_Facetptr@V?$num_put@DV?$ostreambuf_iterator@DU?$char_traits@D@std@@@std@@@std@@@std@@2PEBVfacet@locale@2@EB ; std::_Facetptr<std::num_put<char,std::ostreambuf_iterator<char,std::char_traits<char> > > >::_Psave
PUBLIC	?_Psave@?$_Facetptr@V?$numpunct@D@std@@@std@@2PEBVfacet@locale@2@EB ; std::_Facetptr<std::numpunct<char> >::_Psave
PUBLIC	??_C@_0BL@GOIGLPKN@unordered_map?1set?5too?5long@ ; `string'
PUBLIC	??_C@_0BK@OGNNAFAB@invalid?5hash?5bucket?5count@ ; `string'
PUBLIC	??_R0H@8					; int `RTTI Type Descriptor'
PUBLIC	??_R0?AV?$_vec2@H@fan@@@8			; fan::_vec2<int> `RTTI Type Descriptor'
PUBLIC	??_R4exception@std@@6B@				; std::exception::`RTTI Complete Object Locator'
PUBLIC	??_R3exception@std@@8				; std::exception::`RTTI Class Hierarchy Descriptor'
PUBLIC	??_R2exception@std@@8				; std::exception::`RTTI Base Class Array'
PUBLIC	??_R1A@?0A@EA@exception@std@@8			; std::exception::`RTTI Base Class Descriptor at (0,-1,0,64)'
PUBLIC	??_R4bad_alloc@std@@6B@				; std::bad_alloc::`RTTI Complete Object Locator'
PUBLIC	??_R3bad_alloc@std@@8				; std::bad_alloc::`RTTI Class Hierarchy Descriptor'
PUBLIC	??_R2bad_alloc@std@@8				; std::bad_alloc::`RTTI Base Class Array'
PUBLIC	??_R1A@?0A@EA@bad_alloc@std@@8			; std::bad_alloc::`RTTI Base Class Descriptor at (0,-1,0,64)'
PUBLIC	??_R4bad_array_new_length@std@@6B@		; std::bad_array_new_length::`RTTI Complete Object Locator'
PUBLIC	??_R3bad_array_new_length@std@@8		; std::bad_array_new_length::`RTTI Class Hierarchy Descriptor'
PUBLIC	??_R2bad_array_new_length@std@@8		; std::bad_array_new_length::`RTTI Base Class Array'
PUBLIC	??_R1A@?0A@EA@bad_array_new_length@std@@8	; std::bad_array_new_length::`RTTI Base Class Descriptor at (0,-1,0,64)'
PUBLIC	??_R4runtime_error@std@@6B@			; std::runtime_error::`RTTI Complete Object Locator'
PUBLIC	??_R3runtime_error@std@@8			; std::runtime_error::`RTTI Class Hierarchy Descriptor'
PUBLIC	??_R2runtime_error@std@@8			; std::runtime_error::`RTTI Base Class Array'
PUBLIC	??_R1A@?0A@EA@runtime_error@std@@8		; std::runtime_error::`RTTI Base Class Descriptor at (0,-1,0,64)'
PUBLIC	??_R0?AVerror_category@std@@@8			; std::error_category `RTTI Type Descriptor'
PUBLIC	??_R3error_category@std@@8			; std::error_category::`RTTI Class Hierarchy Descriptor'
PUBLIC	??_R2error_category@std@@8			; std::error_category::`RTTI Base Class Array'
PUBLIC	??_R1A@?0A@EA@error_category@std@@8		; std::error_category::`RTTI Base Class Descriptor at (0,-1,0,64)'
PUBLIC	??_R4_System_error@std@@6B@			; std::_System_error::`RTTI Complete Object Locator'
PUBLIC	??_R3_System_error@std@@8			; std::_System_error::`RTTI Class Hierarchy Descriptor'
PUBLIC	??_R2_System_error@std@@8			; std::_System_error::`RTTI Base Class Array'
PUBLIC	??_R1A@?0A@EA@_System_error@std@@8		; std::_System_error::`RTTI Base Class Descriptor at (0,-1,0,64)'
PUBLIC	??_R4system_error@std@@6B@			; std::system_error::`RTTI Complete Object Locator'
PUBLIC	??_R3system_error@std@@8			; std::system_error::`RTTI Class Hierarchy Descriptor'
PUBLIC	??_R2system_error@std@@8			; std::system_error::`RTTI Base Class Array'
PUBLIC	??_R1A@?0A@EA@system_error@std@@8		; std::system_error::`RTTI Base Class Descriptor at (0,-1,0,64)'
PUBLIC	??_R4_Iostream_error_category2@std@@6B@		; std::_Iostream_error_category2::`RTTI Complete Object Locator'
PUBLIC	??_R0?AV_Iostream_error_category2@std@@@8	; std::_Iostream_error_category2 `RTTI Type Descriptor'
PUBLIC	??_R3_Iostream_error_category2@std@@8		; std::_Iostream_error_category2::`RTTI Class Hierarchy Descriptor'
PUBLIC	??_R2_Iostream_error_category2@std@@8		; std::_Iostream_error_category2::`RTTI Base Class Array'
PUBLIC	??_R1A@?0A@EA@_Iostream_error_category2@std@@8	; std::_Iostream_error_category2::`RTTI Base Class Descriptor at (0,-1,0,64)'
PUBLIC	??_R4bad_cast@std@@6B@				; std::bad_cast::`RTTI Complete Object Locator'
PUBLIC	??_R3bad_cast@std@@8				; std::bad_cast::`RTTI Class Hierarchy Descriptor'
PUBLIC	??_R2bad_cast@std@@8				; std::bad_cast::`RTTI Base Class Array'
PUBLIC	??_R1A@?0A@EA@bad_cast@std@@8			; std::bad_cast::`RTTI Base Class Descriptor at (0,-1,0,64)'
PUBLIC	??_R4_Facet_base@std@@6B@			; std::_Facet_base::`RTTI Complete Object Locator'
PUBLIC	??_R0?AV_Facet_base@std@@@8			; std::_Facet_base `RTTI Type Descriptor'
PUBLIC	??_R3_Facet_base@std@@8				; std::_Facet_base::`RTTI Class Hierarchy Descriptor'
PUBLIC	??_R2_Facet_base@std@@8				; std::_Facet_base::`RTTI Base Class Array'
PUBLIC	??_R1A@?0A@EA@_Facet_base@std@@8		; std::_Facet_base::`RTTI Base Class Descriptor at (0,-1,0,64)'
PUBLIC	??_R1A@?0A@EA@facet@locale@std@@8		; std::locale::facet::`RTTI Base Class Descriptor at (0,-1,0,64)'
PUBLIC	??_R0?AVfacet@locale@std@@@8			; std::locale::facet `RTTI Type Descriptor'
PUBLIC	??_R3facet@locale@std@@8			; std::locale::facet::`RTTI Class Hierarchy Descriptor'
PUBLIC	??_R2facet@locale@std@@8			; std::locale::facet::`RTTI Base Class Array'
PUBLIC	??_R17?0A@EA@_Crt_new_delete@std@@8		; std::_Crt_new_delete::`RTTI Base Class Descriptor at (8,-1,0,64)'
PUBLIC	??_R0?AU_Crt_new_delete@std@@@8			; std::_Crt_new_delete `RTTI Type Descriptor'
PUBLIC	??_R3_Crt_new_delete@std@@8			; std::_Crt_new_delete::`RTTI Class Hierarchy Descriptor'
PUBLIC	??_R2_Crt_new_delete@std@@8			; std::_Crt_new_delete::`RTTI Base Class Array'
PUBLIC	??_R1A@?0A@EA@_Crt_new_delete@std@@8		; std::_Crt_new_delete::`RTTI Base Class Descriptor at (0,-1,0,64)'
PUBLIC	??_R4facet@locale@std@@6B@			; std::locale::facet::`RTTI Complete Object Locator'
PUBLIC	??_R4ctype_base@std@@6B@			; std::ctype_base::`RTTI Complete Object Locator'
PUBLIC	??_R0?AUctype_base@std@@@8			; std::ctype_base `RTTI Type Descriptor'
PUBLIC	??_R3ctype_base@std@@8				; std::ctype_base::`RTTI Class Hierarchy Descriptor'
PUBLIC	??_R2ctype_base@std@@8				; std::ctype_base::`RTTI Base Class Array'
PUBLIC	??_R1A@?0A@EA@ctype_base@std@@8			; std::ctype_base::`RTTI Base Class Descriptor at (0,-1,0,64)'
PUBLIC	??_R4?$ctype@D@std@@6B@				; std::ctype<char>::`RTTI Complete Object Locator'
PUBLIC	??_R0?AV?$ctype@D@std@@@8			; std::ctype<char> `RTTI Type Descriptor'
PUBLIC	??_R3?$ctype@D@std@@8				; std::ctype<char>::`RTTI Class Hierarchy Descriptor'
PUBLIC	??_R2?$ctype@D@std@@8				; std::ctype<char>::`RTTI Base Class Array'
PUBLIC	??_R1A@?0A@EA@?$ctype@D@std@@8			; std::ctype<char>::`RTTI Base Class Descriptor at (0,-1,0,64)'
PUBLIC	??_R4failure@ios_base@std@@6B@			; std::ios_base::failure::`RTTI Complete Object Locator'
PUBLIC	??_R3failure@ios_base@std@@8			; std::ios_base::failure::`RTTI Class Hierarchy Descriptor'
PUBLIC	??_R2failure@ios_base@std@@8			; std::ios_base::failure::`RTTI Base Class Array'
PUBLIC	??_R1A@?0A@EA@failure@ios_base@std@@8		; std::ios_base::failure::`RTTI Base Class Descriptor at (0,-1,0,64)'
PUBLIC	??_R4?$num_put@DV?$ostreambuf_iterator@DU?$char_traits@D@std@@@std@@@std@@6B@ ; std::num_put<char,std::ostreambuf_iterator<char,std::char_traits<char> > >::`RTTI Complete Object Locator'
PUBLIC	??_R0?AV?$num_put@DV?$ostreambuf_iterator@DU?$char_traits@D@std@@@std@@@std@@@8 ; std::num_put<char,std::ostreambuf_iterator<char,std::char_traits<char> > > `RTTI Type Descriptor'
PUBLIC	??_R3?$num_put@DV?$ostreambuf_iterator@DU?$char_traits@D@std@@@std@@@std@@8 ; std::num_put<char,std::ostreambuf_iterator<char,std::char_traits<char> > >::`RTTI Class Hierarchy Descriptor'
PUBLIC	??_R2?$num_put@DV?$ostreambuf_iterator@DU?$char_traits@D@std@@@std@@@std@@8 ; std::num_put<char,std::ostreambuf_iterator<char,std::char_traits<char> > >::`RTTI Base Class Array'
PUBLIC	??_R1A@?0A@EA@?$num_put@DV?$ostreambuf_iterator@DU?$char_traits@D@std@@@std@@@std@@8 ; std::num_put<char,std::ostreambuf_iterator<char,std::char_traits<char> > >::`RTTI Base Class Descriptor at (0,-1,0,64)'
PUBLIC	??_R4?$numpunct@D@std@@6B@			; std::numpunct<char>::`RTTI Complete Object Locator'
PUBLIC	??_R0?AV?$numpunct@D@std@@@8			; std::numpunct<char> `RTTI Type Descriptor'
PUBLIC	??_R3?$numpunct@D@std@@8			; std::numpunct<char>::`RTTI Class Hierarchy Descriptor'
PUBLIC	??_R2?$numpunct@D@std@@8			; std::numpunct<char>::`RTTI Base Class Array'
PUBLIC	??_R1A@?0A@EA@?$numpunct@D@std@@8		; std::numpunct<char>::`RTTI Base Class Descriptor at (0,-1,0,64)'
PUBLIC	__real@3f800000
PUBLIC	__real@3ff0000000000000
PUBLIC	__real@408f400000000000
PUBLIC	__real@41cdcd6500000000
PUBLIC	__real@4202a05f20000000
PUBLIC	__real@43e0000000000000
PUBLIC	__real@5f000000
PUBLIC	__real@c1200000
EXTRN	_purecall:PROC
EXTRN	??2@YAPEAX_K@Z:PROC				; operator new
EXTRN	??3@YAXPEAX@Z:PROC				; operator delete
EXTRN	??3@YAXPEAX_K@Z:PROC				; operator delete
EXTRN	??_V@YAXPEAX@Z:PROC				; operator delete[]
EXTRN	atexit:PROC
EXTRN	_Init_thread_header:PROC
EXTRN	_Init_thread_abort:PROC
EXTRN	_Init_thread_footer:PROC
EXTRN	_invalid_parameter_noinfo_noreturn:PROC
EXTRN	??0_Lockit@std@@QEAA@H@Z:PROC			; std::_Lockit::_Lockit
EXTRN	??1_Lockit@std@@QEAA@XZ:PROC			; std::_Lockit::~_Lockit
EXTRN	abs:PROC
EXTRN	fabs:PROC
EXTRN	pow:PROC
EXTRN	frexp:PROC
EXTRN	ceilf:PROC
EXTRN	calloc:PROC
EXTRN	free:PROC
EXTRN	malloc:PROC
EXTRN	realloc:PROC
EXTRN	exit:PROC
EXTRN	system:PROC
EXTRN	memcpy:PROC
EXTRN	memmove:PROC
EXTRN	memset:PROC
EXTRN	strcspn:PROC
EXTRN	strlen:PROC
EXTRN	__stdio_common_vsprintf:PROC
EXTRN	__stdio_common_vsprintf_s:PROC
EXTRN	?_Xbad_alloc@std@@YAXXZ:PROC			; std::_Xbad_alloc
EXTRN	?_Xlength_error@std@@YAXPEBD@Z:PROC		; std::_Xlength_error
EXTRN	?_Xout_of_range@std@@YAXPEBD@Z:PROC		; std::_Xout_of_range
EXTRN	?_Xruntime_error@std@@YAXPEBD@Z:PROC		; std::_Xruntime_error
EXTRN	?uncaught_exceptions@std@@YAHXZ:PROC		; std::uncaught_exceptions
EXTRN	__std_exception_copy:PROC
EXTRN	__std_exception_destroy:PROC
EXTRN	??_Eexception@std@@UEAAPEAXI@Z:PROC		; std::exception::`vector deleting destructor'
EXTRN	??_Ebad_alloc@std@@UEAAPEAXI@Z:PROC		; std::bad_alloc::`vector deleting destructor'
EXTRN	??_Ebad_array_new_length@std@@UEAAPEAXI@Z:PROC	; std::bad_array_new_length::`vector deleting destructor'
EXTRN	??_Eruntime_error@std@@UEAAPEAXI@Z:PROC		; std::runtime_error::`vector deleting destructor'
EXTRN	??_E_System_error@std@@UEAAPEAXI@Z:PROC		; std::_System_error::`vector deleting destructor'
EXTRN	??_Esystem_error@std@@UEAAPEAXI@Z:PROC		; std::system_error::`vector deleting destructor'
EXTRN	?_Syserror_map@std@@YAPEBDH@Z:PROC		; std::_Syserror_map
EXTRN	??_E_Iostream_error_category2@std@@UEAAPEAXI@Z:PROC ; std::_Iostream_error_category2::`vector deleting destructor'
EXTRN	??_Ebad_cast@std@@UEAAPEAXI@Z:PROC		; std::bad_cast::`vector deleting destructor'
EXTRN	??_E_Facet_base@std@@UEAAPEAXI@Z:PROC		; std::_Facet_base::`vector deleting destructor'
EXTRN	?_Facet_Register@std@@YAXPEAV_Facet_base@1@@Z:PROC ; std::_Facet_Register
EXTRN	localeconv:PROC
EXTRN	_Getctype:PROC
EXTRN	_Getcvt:PROC
EXTRN	_Tolower:PROC
EXTRN	_Toupper:PROC
EXTRN	?_Locinfo_ctor@_Locinfo@std@@SAXPEAV12@PEBD@Z:PROC ; std::_Locinfo::_Locinfo_ctor
EXTRN	?_Locinfo_dtor@_Locinfo@std@@SAXPEAV12@@Z:PROC	; std::_Locinfo::_Locinfo_dtor
EXTRN	??_Efacet@locale@std@@MEAAPEAXI@Z:PROC		; std::locale::facet::`vector deleting destructor'
EXTRN	?_Getgloballocale@locale@std@@CAPEAV_Locimp@12@XZ:PROC ; std::locale::_Getgloballocale
EXTRN	??_Ectype_base@std@@UEAAPEAXI@Z:PROC		; std::ctype_base::`vector deleting destructor'
EXTRN	??_E?$ctype@D@std@@MEAAPEAXI@Z:PROC		; std::ctype<char>::`vector deleting destructor'
EXTRN	??_Efailure@ios_base@std@@UEAAPEAXI@Z:PROC	; std::ios_base::failure::`vector deleting destructor'
EXTRN	?_Xbad_function_call@std@@YAXXZ:PROC		; std::_Xbad_function_call
EXTRN	__imp_GetLastError:PROC
EXTRN	__imp_QueryPerformanceCounter:PROC
EXTRN	__imp_QueryPerformanceFrequency:PROC
EXTRN	__imp_GetModuleHandleA:PROC
EXTRN	__imp_GetProcAddress:PROC
EXTRN	__imp_wglMakeCurrent:PROC
EXTRN	__imp_TranslateMessage:PROC
EXTRN	__imp_DispatchMessageA:PROC
EXTRN	__imp_PeekMessageW:PROC
EXTRN	__imp_DefWindowProcA:PROC
EXTRN	__imp_PostQuitMessage:PROC
EXTRN	__imp_RegisterClassA:PROC
EXTRN	__imp_CreateWindowExA:PROC
EXTRN	__imp_DestroyWindow:PROC
EXTRN	__imp_ShowWindow:PROC
EXTRN	__imp_SetWindowPos:PROC
EXTRN	__imp_GetKeyState:PROC
EXTRN	__imp_GetAsyncKeyState:PROC
EXTRN	__imp_GetSystemMetrics:PROC
EXTRN	__imp_ReleaseDC:PROC
EXTRN	__imp_SetWindowTextA:PROC
EXTRN	__imp_GetClientRect:PROC
EXTRN	__imp_AdjustWindowRect:PROC
EXTRN	__imp_AdjustWindowRectEx:PROC
EXTRN	__imp_ShowCursor:PROC
EXTRN	__imp_SetCursorPos:PROC
EXTRN	__imp_GetCursorPos:PROC
EXTRN	__imp_ScreenToClient:PROC
EXTRN	__imp_MapWindowPoints:PROC
EXTRN	__imp_ClipCursor:PROC
EXTRN	__imp_GetWindowLongA:PROC
EXTRN	__imp_SetWindowLongA:PROC
EXTRN	__imp_SetWindowLongPtrA:PROC
EXTRN	__imp_CallNextHookEx:PROC
EXTRN	__imp_LoadCursorA:PROC
EXTRN	__imp_ChangeDisplaySettingsA:PROC
EXTRN	__imp_EnumDisplaySettingsA:PROC
EXTRN	__imp_MonitorFromWindow:PROC
EXTRN	__imp_GetMonitorInfoA:PROC
EXTRN	__imp_GetRawInputData:PROC
EXTRN	__imp_RegisterRawInputDevices:PROC
EXTRN	?convert_keys_to_fan@window_input@fan@@YAGG@Z:PROC ; fan::window_input::convert_keys_to_fan
EXTRN	?convert_fan_to_keys@window_input@fan@@YAGG@Z:PROC ; fan::window_input::convert_fan_to_keys
EXTRN	_wassert:PROC
EXTRN	?_Random_device@std@@YAIXZ:PROC			; std::_Random_device
EXTRN	main:PROC
EXTRN	??_E?$num_put@DV?$ostreambuf_iterator@DU?$char_traits@D@std@@@std@@@std@@MEAAPEAXI@Z:PROC ; std::num_put<char,std::ostreambuf_iterator<char,std::char_traits<char> > >::`vector deleting destructor'
EXTRN	??_E?$numpunct@D@std@@MEAAPEAXI@Z:PROC		; std::numpunct<char>::`vector deleting destructor'
EXTRN	_CxxThrowException:PROC
EXTRN	__CxxFrameHandler4:PROC
EXTRN	_Init_thread_epoch:DWORD
EXTRN	??_7type_info@@6B@:BYTE				; type_info::`vftable'
EXTRN	?_Id_cnt@id@locale@std@@0HA:DWORD		; std::locale::id::_Id_cnt
EXTRN	?id@?$ctype@D@std@@2V0locale@2@A:QWORD		; std::ctype<char>::id
EXTRN	?cout@std@@3V?$basic_ostream@DU?$char_traits@D@std@@@1@A:BYTE ; std::cout
EXTRN	__ImageBase:BYTE
EXTRN	_fltused:DWORD
EXTRN	_tls_index:DWORD
;	COMDAT ?_OptionsStorage@?1??__local_stdio_printf_options@@9@4_KA
_BSS	SEGMENT
?_OptionsStorage@?1??__local_stdio_printf_options@@9@4_KA DQ 01H DUP (?) ; `__local_stdio_printf_options'::`2'::_OptionsStorage
_BSS	ENDS
;	COMDAT ?key_down@input@sys@fan@@2V?$unordered_map@G_NU?$hash@G@std@@U?$equal_to@G@2@V?$allocator@U?$pair@$$CBG_N@std@@@2@@std@@A
_BSS	SEGMENT
?key_down@input@sys@fan@@2V?$unordered_map@G_NU?$hash@G@std@@U?$equal_to@G@2@V?$allocator@U?$pair@$$CBG_N@std@@@2@@std@@A DB 040H DUP (?) ; fan::sys::input::key_down
_BSS	ENDS
;	COMDAT ?reset_keys@input@sys@fan@@2V?$unordered_map@G_NU?$hash@G@std@@U?$equal_to@G@2@V?$allocator@U?$pair@$$CBG_N@std@@@2@@std@@A
_BSS	SEGMENT
?reset_keys@input@sys@fan@@2V?$unordered_map@G_NU?$hash@G@std@@U?$equal_to@G@2@V?$allocator@U?$pair@$$CBG_N@std@@@2@@std@@A DB 040H DUP (?) ; fan::sys::input::reset_keys
_BSS	ENDS
;	COMDAT ?keyboard_hook@input@sys@fan@@0PEAUHHOOK__@@EA
_BSS	SEGMENT
?keyboard_hook@input@sys@fan@@0PEAUHHOOK__@@EA DQ 01H DUP (?) ; fan::sys::input::keyboard_hook
_BSS	ENDS
;	COMDAT ?mouse_hook@input@sys@fan@@0PEAUHHOOK__@@EA
_BSS	SEGMENT
?mouse_hook@input@sys@fan@@0PEAUHHOOK__@@EA DQ 01H DUP (?) ; fan::sys::input::mouse_hook
_BSS	ENDS
;	COMDAT ?input_callback@input@sys@fan@@0V?$function@$$A6AXGW4key_state@fan@@_NVany@std@@@Z@std@@A
_BSS	SEGMENT
?input_callback@input@sys@fan@@0V?$function@$$A6AXGW4key_state@fan@@_NVany@std@@@Z@std@@A DB 040H DUP (?) ; fan::sys::input::input_callback
_BSS	ENDS
;	COMDAT ?mouse_move_callback@input@sys@fan@@0V?$function@$$A6AXAEBV?$_vec2@H@fan@@@Z@std@@A
_BSS	SEGMENT
?mouse_move_callback@input@sys@fan@@0V?$function@$$A6AXAEBV?$_vec2@H@fan@@@Z@std@@A DB 040H DUP (?) ; fan::sys::input::mouse_move_callback
_BSS	ENDS
;	COMDAT ?device@?1??value_i64@random@fan@@YA_J_J0@Z@4Vrandom_device@std@@A
_BSS	SEGMENT
?device@?1??value_i64@random@fan@@YA_J_J0@Z@4Vrandom_device@std@@A DB 01H DUP (?) ; `fan::random::value_i64'::`2'::device
_BSS	ENDS
;	COMDAT ?$TSS0@?1??value_i64@random@fan@@YA_J_J0@Z@4HA
_BSS	SEGMENT
?$TSS0@?1??value_i64@random@fan@@YA_J_J0@Z@4HA DD 01H DUP (?) ; `fan::random::value_i64'::`2'::$TSS0
_BSS	ENDS
;	COMDAT ?random@?1??value_i64@0fan@@YA_J_J0@Z@4V?$mersenne_twister_engine@_K$0EA@$0BDI@$0JM@$0BP@$0?EKPNJAKFFGJJOGBH@$0BN@$0FFFFFFFFFFFFFFFF@$0BB@$0HBNGHPPPONKGAAAA@$0CF@$0?IBBCAAAAAAAAA@$0CL@$0FIFBPECNEMJFHPCN@@std@@A
_BSS	SEGMENT
?random@?1??value_i64@0fan@@YA_J_J0@Z@4V?$mersenne_twister_engine@_K$0EA@$0BDI@$0JM@$0BP@$0?EKPNJAKFFGJJOGBH@$0BN@$0FFFFFFFFFFFFFFFF@$0BB@$0HBNGHPPPONKGAAAA@$0CF@$0?IBBCAAAAAAAAA@$0CL@$0FIFBPECNEMJFHPCN@@std@@A DB 01390H DUP (?) ; `fan::random::value_i64'::`2'::random
_BSS	ENDS
;	COMDAT ?$TSS1@?1??value_i64@random@fan@@YA_J_J0@Z@4HA
_BSS	SEGMENT
?$TSS1@?1??value_i64@random@fan@@YA_J_J0@Z@4HA DD 01H DUP (?) ; `fan::random::value_i64'::`2'::$TSS1
_BSS	ENDS
_BSS	SEGMENT
?NtDelayExecution@@3P6AJHPEAT_LARGE_INTEGER@@@ZEA DQ 01H DUP (?) ; NtDelayExecution
?ZwSetTimerResolution@@3P6AJKEPEAK@ZEA DQ 01H DUP (?)	; ZwSetTimerResolution
_BSS	ENDS
;	COMDAT ?window_id_storage@fan@@3U?$bll_t@Uwindow_id_storage_t@fan@@I@@A
_BSS	SEGMENT
?window_id_storage@fan@@3U?$bll_t@Uwindow_id_storage_t@fan@@I@@A DB 030H DUP (?) ; fan::window_id_storage
_BSS	ENDS
;	COMDAT ?m_context@window_t@fan@@2PEAUHGLRC__@@EA
_BSS	SEGMENT
?m_context@window_t@fan@@2PEAUHGLRC__@@EA DQ 01H DUP (?) ; fan::window_t::m_context
_BSS	ENDS
;	COMDAT ?m_no_mouse@flag_values@window_t@fan@@2_NA
_BSS	SEGMENT
?m_no_mouse@flag_values@window_t@fan@@2_NA DB 01H DUP (?) ; fan::window_t::flag_values::m_no_mouse
_BSS	ENDS
;	COMDAT ?m_no_resize@flag_values@window_t@fan@@2_NA
_BSS	SEGMENT
?m_no_resize@flag_values@window_t@fan@@2_NA DB 01H DUP (?) ; fan::window_t::flag_values::m_no_resize
_BSS	ENDS
;	COMDAT ?m_size_mode@flag_values@window_t@fan@@2W4mode@23@A
_BSS	SEGMENT
?m_size_mode@flag_values@window_t@fan@@2W4mode@23@A DD 01H DUP (?) ; fan::window_t::flag_values::m_size_mode
_BSS	ENDS
;	COMDAT ?allow_outside@?DB@??handle_events@window_t@fan@@QEAAIXZ@4_NA
_BSS	SEGMENT
?allow_outside@?DB@??handle_events@window_t@fan@@QEAAIXZ@4_NA DB 01H DUP (?) ; `fan::window_t::handle_events'::`49'::allow_outside
_BSS	ENDS
;	COMDAT ?id@?$num_put@DV?$ostreambuf_iterator@DU?$char_traits@D@std@@@std@@@std@@2V0locale@2@A
_BSS	SEGMENT
?id@?$num_put@DV?$ostreambuf_iterator@DU?$char_traits@D@std@@@std@@@std@@2V0locale@2@A DQ 01H DUP (?) ; std::num_put<char,std::ostreambuf_iterator<char,std::char_traits<char> > >::id
_BSS	ENDS
;	COMDAT ?id@?$codecvt@DDU_Mbstatet@@@std@@2V0locale@2@A
_BSS	SEGMENT
?id@?$codecvt@DDU_Mbstatet@@@std@@2V0locale@2@A DQ 01H DUP (?) ; std::codecvt<char,char,_Mbstatet>::id
_BSS	ENDS
;	COMDAT ?id@?$numpunct@D@std@@2V0locale@2@A
_BSS	SEGMENT
?id@?$numpunct@D@std@@2V0locale@2@A DQ 01H DUP (?)	; std::numpunct<char>::id
_BSS	ENDS
;	COMDAT ?_Psave@?$_Facetptr@V?$ctype@D@std@@@std@@2PEBVfacet@locale@2@EB
_BSS	SEGMENT
?_Psave@?$_Facetptr@V?$ctype@D@std@@@std@@2PEBVfacet@locale@2@EB DQ 01H DUP (?) ; std::_Facetptr<std::ctype<char> >::_Psave
_BSS	ENDS
;	COMDAT ?_Psave@?$_Facetptr@V?$num_put@DV?$ostreambuf_iterator@DU?$char_traits@D@std@@@std@@@std@@@std@@2PEBVfacet@locale@2@EB
_BSS	SEGMENT
?_Psave@?$_Facetptr@V?$num_put@DV?$ostreambuf_iterator@DU?$char_traits@D@std@@@std@@@std@@@std@@2PEBVfacet@locale@2@EB DQ 01H DUP (?) ; std::_Facetptr<std::num_put<char,std::ostreambuf_iterator<char,std::char_traits<char> > > >::_Psave
_BSS	ENDS
;	COMDAT ?_Psave@?$_Facetptr@V?$numpunct@D@std@@@std@@2PEBVfacet@locale@2@EB
_BSS	SEGMENT
?_Psave@?$_Facetptr@V?$numpunct@D@std@@@std@@2PEBVfacet@locale@2@EB DQ 01H DUP (?) ; std::_Facetptr<std::numpunct<char> >::_Psave
_BSS	ENDS
;	COMDAT pdata
pdata	SEGMENT
$pdata$fabsl DD	imagerel $LN3
	DD	imagerel $LN3+26
	DD	imagerel $unwind$fabsl
pdata	ENDS
;	COMDAT pdata
pdata	SEGMENT
$pdata$frexpl DD imagerel $LN3
	DD	imagerel $LN3+36
	DD	imagerel $unwind$frexpl
pdata	ENDS
;	COMDAT pdata
pdata	SEGMENT
$pdata$?_Fnv1a_append_bytes@std@@YA_K_KQEBE_K@Z DD imagerel $LN6
	DD	imagerel $LN6+124
	DD	imagerel $unwind$?_Fnv1a_append_bytes@std@@YA_K_KQEBE_K@Z
pdata	ENDS
;	COMDAT pdata
pdata	SEGMENT
$pdata$_vsprintf_s_l DD imagerel $LN5
	DD	imagerel $LN5+110
	DD	imagerel $unwind$_vsprintf_s_l
pdata	ENDS
;	COMDAT pdata
pdata	SEGMENT
$pdata$_vscprintf_l DD imagerel $LN5
	DD	imagerel $LN5+107
	DD	imagerel $unwind$_vscprintf_l
pdata	ENDS
;	COMDAT pdata
pdata	SEGMENT
$pdata$sprintf_s DD imagerel $LN3
	DD	imagerel $LN3+89
	DD	imagerel $unwind$sprintf_s
pdata	ENDS
;	COMDAT pdata
pdata	SEGMENT
$pdata$_scprintf DD imagerel $LN3
	DD	imagerel $LN3+73
	DD	imagerel $unwind$_scprintf
pdata	ENDS
;	COMDAT pdata
pdata	SEGMENT
$pdata$??0exception@std@@QEAA@QEBD@Z DD imagerel $LN3
	DD	imagerel $LN3+99
	DD	imagerel $unwind$??0exception@std@@QEAA@QEBD@Z
pdata	ENDS
;	COMDAT pdata
pdata	SEGMENT
$pdata$??0exception@std@@QEAA@QEBDH@Z DD imagerel $LN3
	DD	imagerel $LN3+73
	DD	imagerel $unwind$??0exception@std@@QEAA@QEBDH@Z
pdata	ENDS
;	COMDAT pdata
pdata	SEGMENT
$pdata$??0exception@std@@QEAA@AEBV01@@Z DD imagerel $LN3
	DD	imagerel $LN3+88
	DD	imagerel $unwind$??0exception@std@@QEAA@AEBV01@@Z
pdata	ENDS
;	COMDAT pdata
pdata	SEGMENT
$pdata$??1exception@std@@UEAA@XZ DD imagerel $LN3
	DD	imagerel $LN3+46
	DD	imagerel $unwind$??1exception@std@@UEAA@XZ
pdata	ENDS
;	COMDAT pdata
pdata	SEGMENT
$pdata$?what@exception@std@@UEBAPEBDXZ DD imagerel $LN5
	DD	imagerel $LN5+56
	DD	imagerel $unwind$?what@exception@std@@UEBAPEBDXZ
pdata	ENDS
;	COMDAT pdata
pdata	SEGMENT
$pdata$??_Gexception@std@@UEAAPEAXI@Z DD imagerel $LN4
	DD	imagerel $LN4+59
	DD	imagerel $unwind$??_Gexception@std@@UEAAPEAXI@Z
pdata	ENDS
;	COMDAT pdata
pdata	SEGMENT
$pdata$??0bad_alloc@std@@AEAA@QEBD@Z DD imagerel $LN3
	DD	imagerel $LN3+60
	DD	imagerel $unwind$??0bad_alloc@std@@AEAA@QEBD@Z
pdata	ENDS
;	COMDAT pdata
pdata	SEGMENT
$pdata$??1bad_alloc@std@@UEAA@XZ DD imagerel $LN3
	DD	imagerel $LN3+24
	DD	imagerel $unwind$??1bad_alloc@std@@UEAA@XZ
pdata	ENDS
;	COMDAT pdata
pdata	SEGMENT
$pdata$??0bad_alloc@std@@QEAA@AEBV01@@Z DD imagerel $LN3
	DD	imagerel $LN3+54
	DD	imagerel $unwind$??0bad_alloc@std@@QEAA@AEBV01@@Z
pdata	ENDS
;	COMDAT pdata
pdata	SEGMENT
$pdata$??_Gbad_alloc@std@@UEAAPEAXI@Z DD imagerel $LN4
	DD	imagerel $LN4+59
	DD	imagerel $unwind$??_Gbad_alloc@std@@UEAAPEAXI@Z
pdata	ENDS
;	COMDAT pdata
pdata	SEGMENT
$pdata$??0bad_array_new_length@std@@QEAA@XZ DD imagerel $LN3
	DD	imagerel $LN3+51
	DD	imagerel $unwind$??0bad_array_new_length@std@@QEAA@XZ
pdata	ENDS
;	COMDAT pdata
pdata	SEGMENT
$pdata$??1bad_array_new_length@std@@UEAA@XZ DD imagerel $LN3
	DD	imagerel $LN3+24
	DD	imagerel $unwind$??1bad_array_new_length@std@@UEAA@XZ
pdata	ENDS
;	COMDAT pdata
pdata	SEGMENT
$pdata$??0bad_array_new_length@std@@QEAA@AEBV01@@Z DD imagerel $LN3
	DD	imagerel $LN3+54
	DD	imagerel $unwind$??0bad_array_new_length@std@@QEAA@AEBV01@@Z
pdata	ENDS
;	COMDAT pdata
pdata	SEGMENT
$pdata$??_Gbad_array_new_length@std@@UEAAPEAXI@Z DD imagerel $LN4
	DD	imagerel $LN4+59
	DD	imagerel $unwind$??_Gbad_array_new_length@std@@UEAAPEAXI@Z
pdata	ENDS
;	COMDAT pdata
pdata	SEGMENT
$pdata$?_Throw_bad_array_new_length@std@@YAXXZ DD imagerel $LN3
	DD	imagerel $LN3+36
	DD	imagerel $unwind$?_Throw_bad_array_new_length@std@@YAXXZ
pdata	ENDS
;	COMDAT pdata
pdata	SEGMENT
$pdata$?_Allocate@_Default_allocate_traits@std@@SAPEAX_K@Z DD imagerel $LN3
	DD	imagerel $LN3+24
	DD	imagerel $unwind$?_Allocate@_Default_allocate_traits@std@@SAPEAX_K@Z
pdata	ENDS
;	COMDAT pdata
pdata	SEGMENT
$pdata$?_Adjust_manually_vector_aligned@std@@YAXAEAPEAXAEA_K@Z DD imagerel $LN11
	DD	imagerel $LN11+153
	DD	imagerel $unwind$?_Adjust_manually_vector_aligned@std@@YAXAEAPEAXAEA_K@Z
pdata	ENDS
;	COMDAT pdata
pdata	SEGMENT
$pdata$?copy@?$_Char_traits@DH@std@@SAPEADQEADQEBD_K@Z DD imagerel $LN7
	DD	imagerel $LN7+143
	DD	imagerel $unwind$?copy@?$_Char_traits@DH@std@@SAPEADQEADQEBD_K@Z
pdata	ENDS
;	COMDAT pdata
pdata	SEGMENT
$pdata$?move@?$_Char_traits@DH@std@@SAPEADQEADQEBD_K@Z DD imagerel $LN16
	DD	imagerel $LN16+306
	DD	imagerel $unwind$?move@?$_Char_traits@DH@std@@SAPEADQEADQEBD_K@Z
pdata	ENDS
;	COMDAT pdata
pdata	SEGMENT
$pdata$?assign@?$_Char_traits@DH@std@@SAPEADQEAD_KD@Z DD imagerel $LN11
	DD	imagerel $LN11+166
	DD	imagerel $unwind$?assign@?$_Char_traits@DH@std@@SAPEADQEAD_KD@Z
pdata	ENDS
;	COMDAT pdata
pdata	SEGMENT
$pdata$?assign@?$_Char_traits@DH@std@@SAXAEADAEBD@Z DD imagerel $LN5
	DD	imagerel $LN5+71
	DD	imagerel $unwind$?assign@?$_Char_traits@DH@std@@SAXAEADAEBD@Z
pdata	ENDS
;	COMDAT pdata
pdata	SEGMENT
$pdata$?length@?$_Narrow_char_traits@DH@std@@SA_KQEBD@Z DD imagerel $LN4
	DD	imagerel $LN4+55
	DD	imagerel $unwind$?length@?$_Narrow_char_traits@DH@std@@SA_KQEBD@Z
pdata	ENDS
;	COMDAT pdata
pdata	SEGMENT
$pdata$?assign@?$_Narrow_char_traits@DH@std@@SAPEADQEAD_KD@Z DD imagerel $LN4
	DD	imagerel $LN4+81
	DD	imagerel $unwind$?assign@?$_Narrow_char_traits@DH@std@@SAPEADQEAD_KD@Z
pdata	ENDS
;	COMDAT pdata
pdata	SEGMENT
$pdata$?assign@?$_Narrow_char_traits@DH@std@@SAXAEADAEBD@Z DD imagerel $LN4
	DD	imagerel $LN4+63
	DD	imagerel $unwind$?assign@?$_Narrow_char_traits@DH@std@@SAXAEADAEBD@Z
pdata	ENDS
;	COMDAT pdata
pdata	SEGMENT
$pdata$?eq_int_type@?$_Narrow_char_traits@DH@std@@SA_NAEBH0@Z DD imagerel $LN5
	DD	imagerel $LN5+55
	DD	imagerel $unwind$?eq_int_type@?$_Narrow_char_traits@DH@std@@SA_NAEBH0@Z
pdata	ENDS
;	COMDAT pdata
pdata	SEGMENT
$pdata$?_Xlen_string@std@@YAXXZ DD imagerel $LN3
	DD	imagerel $LN3+21
	DD	imagerel $unwind$?_Xlen_string@std@@YAXXZ
pdata	ENDS
;	COMDAT pdata
pdata	SEGMENT
$pdata$?deallocate@?$allocator@D@std@@QEAAXQEAD_K@Z DD imagerel $LN3
	DD	imagerel $LN3+39
	DD	imagerel $unwind$?deallocate@?$allocator@D@std@@QEAAXQEAD_K@Z
pdata	ENDS
;	COMDAT pdata
pdata	SEGMENT
$pdata$?allocate@?$allocator@D@std@@QEAAPEAD_K@Z DD imagerel $LN3
	DD	imagerel $LN3+37
	DD	imagerel $unwind$?allocate@?$allocator@D@std@@QEAAPEAD_K@Z
pdata	ENDS
;	COMDAT pdata
pdata	SEGMENT
$pdata$??0?$_String_val@U?$_Simple_types@D@std@@@std@@QEAA@XZ DD imagerel $LN3
	DD	imagerel $LN3+58
	DD	imagerel $unwind$??0?$_String_val@U?$_Simple_types@D@std@@@std@@QEAA@XZ
pdata	ENDS
;	COMDAT pdata
pdata	SEGMENT
$pdata$?_Myptr@?$_String_val@U?$_Simple_types@D@std@@@std@@QEAAPEADXZ DD imagerel $LN4
	DD	imagerel $LN4+64
	DD	imagerel $unwind$?_Myptr@?$_String_val@U?$_Simple_types@D@std@@@std@@QEAAPEADXZ
pdata	ENDS
;	COMDAT pdata
pdata	SEGMENT
$pdata$?_Myptr@?$_String_val@U?$_Simple_types@D@std@@@std@@QEBAPEBDXZ DD imagerel $LN4
	DD	imagerel $LN4+64
	DD	imagerel $unwind$?_Myptr@?$_String_val@U?$_Simple_types@D@std@@@std@@QEBAPEBDXZ
pdata	ENDS
;	COMDAT pdata
pdata	SEGMENT
$pdata$?_Large_string_engaged@?$_String_val@U?$_Simple_types@D@std@@@std@@QEBA_NXZ DD imagerel $LN6
	DD	imagerel $LN6+65
	DD	imagerel $unwind$?_Large_string_engaged@?$_String_val@U?$_Simple_types@D@std@@@std@@QEBA_NXZ
pdata	ENDS
;	COMDAT pdata
pdata	SEGMENT
$pdata$?_Check_offset@?$_String_val@U?$_Simple_types@D@std@@@std@@QEBAX_K@Z DD imagerel $LN4
	DD	imagerel $LN4+40
	DD	imagerel $unwind$?_Check_offset@?$_String_val@U?$_Simple_types@D@std@@@std@@QEBAX_K@Z
pdata	ENDS
;	COMDAT pdata
pdata	SEGMENT
$pdata$?_Xran@?$_String_val@U?$_Simple_types@D@std@@@std@@SAXXZ DD imagerel $LN3
	DD	imagerel $LN3+21
	DD	imagerel $unwind$?_Xran@?$_String_val@U?$_Simple_types@D@std@@@std@@SAXXZ
pdata	ENDS
;	COMDAT pdata
pdata	SEGMENT
$pdata$?_Clamp_suffix_size@?$_String_val@U?$_Simple_types@D@std@@@std@@QEBA_K_K0@Z DD imagerel $LN3
	DD	imagerel $LN3+64
	DD	imagerel $unwind$?_Clamp_suffix_size@?$_String_val@U?$_Simple_types@D@std@@@std@@QEBA_K_K0@Z
pdata	ENDS
;	COMDAT pdata
pdata	SEGMENT
$pdata$??1?$_String_val@U?$_Simple_types@D@std@@@std@@QEAA@XZ DD imagerel $LN3
	DD	imagerel $LN3+27
	DD	imagerel $unwind$??1?$_String_val@U?$_Simple_types@D@std@@@std@@QEAA@XZ
pdata	ENDS
;	COMDAT pdata
pdata	SEGMENT
$pdata$??0?$basic_string@DU?$char_traits@D@std@@V?$allocator@D@2@@std@@QEAA@XZ DD imagerel $LN3
	DD	imagerel $LN3+81
	DD	imagerel $unwind$??0?$basic_string@DU?$char_traits@D@std@@V?$allocator@D@2@@std@@QEAA@XZ
pdata	ENDS
;	COMDAT pdata
pdata	SEGMENT
$pdata$??0?$basic_string@DU?$char_traits@D@std@@V?$allocator@D@2@@std@@QEAA@AEBV01@@Z DD imagerel $LN4
	DD	imagerel $LN4+145
	DD	imagerel $unwind$??0?$basic_string@DU?$char_traits@D@std@@V?$allocator@D@2@@std@@QEAA@AEBV01@@Z
pdata	ENDS
;	COMDAT pdata
pdata	SEGMENT
$pdata$?dtor$0@?0???0?$basic_string@DU?$char_traits@D@std@@V?$allocator@D@2@@std@@QEAA@AEBV01@@Z@4HA DD imagerel ?dtor$0@?0???0?$basic_string@DU?$char_traits@D@std@@V?$allocator@D@2@@std@@QEAA@AEBV01@@Z@4HA
	DD	imagerel ?dtor$0@?0???0?$basic_string@DU?$char_traits@D@std@@V?$allocator@D@2@@std@@QEAA@AEBV01@@Z@4HA+24
	DD	imagerel $unwind$?dtor$0@?0???0?$basic_string@DU?$char_traits@D@std@@V?$allocator@D@2@@std@@QEAA@AEBV01@@Z@4HA
pdata	ENDS
;	COMDAT pdata
pdata	SEGMENT
$pdata$??0?$basic_string@DU?$char_traits@D@std@@V?$allocator@D@2@@std@@QEAA@AEBV01@_K1AEBV?$allocator@D@1@@Z DD imagerel $LN4
	DD	imagerel $LN4+172
	DD	imagerel $unwind$??0?$basic_string@DU?$char_traits@D@std@@V?$allocator@D@2@@std@@QEAA@AEBV01@_K1AEBV?$allocator@D@1@@Z
pdata	ENDS
;	COMDAT pdata
pdata	SEGMENT
$pdata$?dtor$0@?0???0?$basic_string@DU?$char_traits@D@std@@V?$allocator@D@2@@std@@QEAA@AEBV01@_K1AEBV?$allocator@D@1@@Z@4HA DD imagerel ?dtor$0@?0???0?$basic_string@DU?$char_traits@D@std@@V?$allocator@D@2@@std@@QEAA@AEBV01@_K1AEBV?$allocator@D@1@@Z@4HA
	DD	imagerel ?dtor$0@?0???0?$basic_string@DU?$char_traits@D@std@@V?$allocator@D@2@@std@@QEAA@AEBV01@_K1AEBV?$allocator@D@1@@Z@4HA+24
	DD	imagerel $unwind$?dtor$0@?0???0?$basic_string@DU?$char_traits@D@std@@V?$allocator@D@2@@std@@QEAA@AEBV01@_K1AEBV?$allocator@D@1@@Z@4HA
pdata	ENDS
;	COMDAT pdata
pdata	SEGMENT
$pdata$??0?$basic_string@DU?$char_traits@D@std@@V?$allocator@D@2@@std@@QEAA@QEBD_K@Z DD imagerel $LN4
	DD	imagerel $LN4+76
	DD	imagerel $unwind$??0?$basic_string@DU?$char_traits@D@std@@V?$allocator@D@2@@std@@QEAA@QEBD_K@Z
pdata	ENDS
;	COMDAT pdata
pdata	SEGMENT
$pdata$?dtor$0@?0???0?$basic_string@DU?$char_traits@D@std@@V?$allocator@D@2@@std@@QEAA@QEBD_K@Z@4HA DD imagerel ?dtor$0@?0???0?$basic_string@DU?$char_traits@D@std@@V?$allocator@D@2@@std@@QEAA@QEBD_K@Z@4HA
	DD	imagerel ?dtor$0@?0???0?$basic_string@DU?$char_traits@D@std@@V?$allocator@D@2@@std@@QEAA@QEBD_K@Z@4HA+24
	DD	imagerel $unwind$?dtor$0@?0???0?$basic_string@DU?$char_traits@D@std@@V?$allocator@D@2@@std@@QEAA@QEBD_K@Z@4HA
pdata	ENDS
;	COMDAT pdata
pdata	SEGMENT
$pdata$??0?$basic_string@DU?$char_traits@D@std@@V?$allocator@D@2@@std@@QEAA@QEBD@Z DD imagerel $LN4
	DD	imagerel $LN4+87
	DD	imagerel $unwind$??0?$basic_string@DU?$char_traits@D@std@@V?$allocator@D@2@@std@@QEAA@QEBD@Z
pdata	ENDS
;	COMDAT pdata
pdata	SEGMENT
$pdata$?dtor$0@?0???0?$basic_string@DU?$char_traits@D@std@@V?$allocator@D@2@@std@@QEAA@QEBD@Z@4HA DD imagerel ?dtor$0@?0???0?$basic_string@DU?$char_traits@D@std@@V?$allocator@D@2@@std@@QEAA@QEBD@Z@4HA
	DD	imagerel ?dtor$0@?0???0?$basic_string@DU?$char_traits@D@std@@V?$allocator@D@2@@std@@QEAA@QEBD@Z@4HA+24
	DD	imagerel $unwind$?dtor$0@?0???0?$basic_string@DU?$char_traits@D@std@@V?$allocator@D@2@@std@@QEAA@QEBD@Z@4HA
pdata	ENDS
;	COMDAT pdata
pdata	SEGMENT
$pdata$??0?$basic_string@DU?$char_traits@D@std@@V?$allocator@D@2@@std@@QEAA@_KD@Z DD imagerel $LN4
	DD	imagerel $LN4+76
	DD	imagerel $unwind$??0?$basic_string@DU?$char_traits@D@std@@V?$allocator@D@2@@std@@QEAA@_KD@Z
pdata	ENDS
;	COMDAT pdata
pdata	SEGMENT
$pdata$?dtor$0@?0???0?$basic_string@DU?$char_traits@D@std@@V?$allocator@D@2@@std@@QEAA@_KD@Z@4HA DD imagerel ?dtor$0@?0???0?$basic_string@DU?$char_traits@D@std@@V?$allocator@D@2@@std@@QEAA@_KD@Z@4HA
	DD	imagerel ?dtor$0@?0???0?$basic_string@DU?$char_traits@D@std@@V?$allocator@D@2@@std@@QEAA@_KD@Z@4HA+24
	DD	imagerel $unwind$?dtor$0@?0???0?$basic_string@DU?$char_traits@D@std@@V?$allocator@D@2@@std@@QEAA@_KD@Z@4HA
pdata	ENDS
;	COMDAT pdata
pdata	SEGMENT
$pdata$??0?$basic_string@DU?$char_traits@D@std@@V?$allocator@D@2@@std@@QEAA@$$QEAV01@@Z DD imagerel $LN3
	DD	imagerel $LN3+128
	DD	imagerel $unwind$??0?$basic_string@DU?$char_traits@D@std@@V?$allocator@D@2@@std@@QEAA@$$QEAV01@@Z
pdata	ENDS
;	COMDAT pdata
pdata	SEGMENT
$pdata$??0?$basic_string@DU?$char_traits@D@std@@V?$allocator@D@2@@std@@QEAA@U_String_constructor_concat_tag@1@AEAV01@1@Z DD imagerel $LN13
	DD	imagerel $LN13+1141
	DD	imagerel $unwind$??0?$basic_string@DU?$char_traits@D@std@@V?$allocator@D@2@@std@@QEAA@U_String_constructor_concat_tag@1@AEAV01@1@Z
pdata	ENDS
;	COMDAT pdata
pdata	SEGMENT
$pdata$?dtor$0@?0???0?$basic_string@DU?$char_traits@D@std@@V?$allocator@D@2@@std@@QEAA@U_String_constructor_concat_tag@1@AEAV01@1@Z@4HA DD imagerel ?dtor$0@?0???0?$basic_string@DU?$char_traits@D@std@@V?$allocator@D@2@@std@@QEAA@U_String_constructor_concat_tag@1@AEAV01@1@Z@4HA
	DD	imagerel ?dtor$0@?0???0?$basic_string@DU?$char_traits@D@std@@V?$allocator@D@2@@std@@QEAA@U_String_constructor_concat_tag@1@AEAV01@1@Z@4HA+27
	DD	imagerel $unwind$?dtor$0@?0???0?$basic_string@DU?$char_traits@D@std@@V?$allocator@D@2@@std@@QEAA@U_String_constructor_concat_tag@1@AEAV01@1@Z@4HA
pdata	ENDS
;	COMDAT pdata
pdata	SEGMENT
$pdata$??4?$basic_string@DU?$char_traits@D@std@@V?$allocator@D@2@@std@@QEAAAEAV01@$$QEAV01@@Z DD imagerel $LN4
	DD	imagerel $LN4+126
	DD	imagerel $unwind$??4?$basic_string@DU?$char_traits@D@std@@V?$allocator@D@2@@std@@QEAAAEAV01@$$QEAV01@@Z
pdata	ENDS
;	COMDAT pdata
pdata	SEGMENT
$pdata$?assign@?$basic_string@DU?$char_traits@D@std@@V?$allocator@D@2@@std@@QEAAAEAV12@$$QEAV12@@Z DD imagerel $LN3
	DD	imagerel $LN3+47
	DD	imagerel $unwind$?assign@?$basic_string@DU?$char_traits@D@std@@V?$allocator@D@2@@std@@QEAAAEAV12@$$QEAV12@@Z
pdata	ENDS
;	COMDAT pdata
pdata	SEGMENT
$pdata$?_Memcpy_val_from@?$basic_string@DU?$char_traits@D@std@@V?$allocator@D@2@@std@@AEAAXAEBV12@@Z DD imagerel $LN3
	DD	imagerel $LN3+76
	DD	imagerel $unwind$?_Memcpy_val_from@?$basic_string@DU?$char_traits@D@std@@V?$allocator@D@2@@std@@AEAAXAEBV12@@Z
pdata	ENDS
;	COMDAT pdata
pdata	SEGMENT
$pdata$?_Take_contents@?$basic_string@DU?$char_traits@D@std@@V?$allocator@D@2@@std@@AEAAXAEAV12@@Z DD imagerel $LN7
	DD	imagerel $LN7+273
	DD	imagerel $unwind$?_Take_contents@?$basic_string@DU?$char_traits@D@std@@V?$allocator@D@2@@std@@AEAAXAEAV12@@Z
pdata	ENDS
;	COMDAT pdata
pdata	SEGMENT
$pdata$??1?$basic_string@DU?$char_traits@D@std@@V?$allocator@D@2@@std@@QEAA@XZ DD imagerel $LN3
	DD	imagerel $LN3+37
	DD	imagerel $unwind$??1?$basic_string@DU?$char_traits@D@std@@V?$allocator@D@2@@std@@QEAA@XZ
pdata	ENDS
;	COMDAT pdata
pdata	SEGMENT
$pdata$??4?$basic_string@DU?$char_traits@D@std@@V?$allocator@D@2@@std@@QEAAAEAV01@AEBV01@@Z DD imagerel $LN4
	DD	imagerel $LN4+145
	DD	imagerel $unwind$??4?$basic_string@DU?$char_traits@D@std@@V?$allocator@D@2@@std@@QEAAAEAV01@AEBV01@@Z
pdata	ENDS
;	COMDAT pdata
pdata	SEGMENT
$pdata$??Y?$basic_string@DU?$char_traits@D@std@@V?$allocator@D@2@@std@@QEAAAEAV01@AEBV01@@Z DD imagerel $LN3
	DD	imagerel $LN3+34
	DD	imagerel $unwind$??Y?$basic_string@DU?$char_traits@D@std@@V?$allocator@D@2@@std@@QEAAAEAV01@AEBV01@@Z
pdata	ENDS
;	COMDAT pdata
pdata	SEGMENT
$pdata$?append@?$basic_string@DU?$char_traits@D@std@@V?$allocator@D@2@@std@@QEAAAEAV12@AEBV12@@Z DD imagerel $LN3
	DD	imagerel $LN3+71
	DD	imagerel $unwind$?append@?$basic_string@DU?$char_traits@D@std@@V?$allocator@D@2@@std@@QEAAAEAV12@AEBV12@@Z
pdata	ENDS
;	COMDAT pdata
pdata	SEGMENT
$pdata$?append@?$basic_string@DU?$char_traits@D@std@@V?$allocator@D@2@@std@@QEAAAEAV12@QEBD_K@Z DD imagerel $LN4
	DD	imagerel $LN4+231
	DD	imagerel $unwind$?append@?$basic_string@DU?$char_traits@D@std@@V?$allocator@D@2@@std@@QEAAAEAV12@QEBD_K@Z
pdata	ENDS
;	COMDAT pdata
pdata	SEGMENT
$pdata$?append@?$basic_string@DU?$char_traits@D@std@@V?$allocator@D@2@@std@@QEAAAEAV12@QEBD@Z DD imagerel $LN3
	DD	imagerel $LN3+55
	DD	imagerel $unwind$?append@?$basic_string@DU?$char_traits@D@std@@V?$allocator@D@2@@std@@QEAAAEAV12@QEBD@Z
pdata	ENDS
;	COMDAT pdata
pdata	SEGMENT
$pdata$?append@?$basic_string@DU?$char_traits@D@std@@V?$allocator@D@2@@std@@QEAAAEAV12@_KD@Z DD imagerel $LN4
	DD	imagerel $LN4+231
	DD	imagerel $unwind$?append@?$basic_string@DU?$char_traits@D@std@@V?$allocator@D@2@@std@@QEAAAEAV12@_KD@Z
pdata	ENDS
;	COMDAT pdata
pdata	SEGMENT
$pdata$?assign@?$basic_string@DU?$char_traits@D@std@@V?$allocator@D@2@@std@@QEAAAEAV12@QEBD_K@Z DD imagerel $LN4
	DD	imagerel $LN4+159
	DD	imagerel $unwind$?assign@?$basic_string@DU?$char_traits@D@std@@V?$allocator@D@2@@std@@QEAAAEAV12@QEBD_K@Z
pdata	ENDS
;	COMDAT pdata
pdata	SEGMENT
$pdata$?insert@?$basic_string@DU?$char_traits@D@std@@V?$allocator@D@2@@std@@QEAAAEAV12@_KQEBD0@Z DD imagerel $LN11
	DD	imagerel $LN11+583
	DD	imagerel $unwind$?insert@?$basic_string@DU?$char_traits@D@std@@V?$allocator@D@2@@std@@QEAAAEAV12@_KQEBD0@Z
pdata	ENDS
;	COMDAT pdata
pdata	SEGMENT
$pdata$?insert@?$basic_string@DU?$char_traits@D@std@@V?$allocator@D@2@@std@@QEAAAEAV12@_KQEBD@Z DD imagerel $LN3
	DD	imagerel $LN3+65
	DD	imagerel $unwind$?insert@?$basic_string@DU?$char_traits@D@std@@V?$allocator@D@2@@std@@QEAAAEAV12@_KQEBD@Z
pdata	ENDS
;	COMDAT pdata
pdata	SEGMENT
$pdata$?insert@?$basic_string@DU?$char_traits@D@std@@V?$allocator@D@2@@std@@QEAAAEAV12@_K0D@Z DD imagerel $LN4
	DD	imagerel $LN4+305
	DD	imagerel $unwind$?insert@?$basic_string@DU?$char_traits@D@std@@V?$allocator@D@2@@std@@QEAAAEAV12@_K0D@Z
pdata	ENDS
;	COMDAT pdata
pdata	SEGMENT
$pdata$??A?$basic_string@DU?$char_traits@D@std@@V?$allocator@D@2@@std@@QEAAAEAD_K@Z DD imagerel $LN3
	DD	imagerel $LN3+37
	DD	imagerel $unwind$??A?$basic_string@DU?$char_traits@D@std@@V?$allocator@D@2@@std@@QEAAAEAD_K@Z
pdata	ENDS
;	COMDAT pdata
pdata	SEGMENT
$pdata$??A?$basic_string@DU?$char_traits@D@std@@V?$allocator@D@2@@std@@QEBAAEBD_K@Z DD imagerel $LN3
	DD	imagerel $LN3+37
	DD	imagerel $unwind$??A?$basic_string@DU?$char_traits@D@std@@V?$allocator@D@2@@std@@QEBAAEBD_K@Z
pdata	ENDS
;	COMDAT pdata
pdata	SEGMENT
$pdata$?c_str@?$basic_string@DU?$char_traits@D@std@@V?$allocator@D@2@@std@@QEBAPEBDXZ DD imagerel $LN3
	DD	imagerel $LN3+27
	DD	imagerel $unwind$?c_str@?$basic_string@DU?$char_traits@D@std@@V?$allocator@D@2@@std@@QEBAPEBDXZ
pdata	ENDS
;	COMDAT pdata
pdata	SEGMENT
$pdata$?data@?$basic_string@DU?$char_traits@D@std@@V?$allocator@D@2@@std@@QEBAPEBDXZ DD imagerel $LN3
	DD	imagerel $LN3+27
	DD	imagerel $unwind$?data@?$basic_string@DU?$char_traits@D@std@@V?$allocator@D@2@@std@@QEBAPEBDXZ
pdata	ENDS
;	COMDAT pdata
pdata	SEGMENT
$pdata$?max_size@?$basic_string@DU?$char_traits@D@std@@V?$allocator@D@2@@std@@QEBA_KXZ DD imagerel $LN3
	DD	imagerel $LN3+110
	DD	imagerel $unwind$?max_size@?$basic_string@DU?$char_traits@D@std@@V?$allocator@D@2@@std@@QEBA_KXZ
pdata	ENDS
;	COMDAT pdata
pdata	SEGMENT
$pdata$?resize@?$basic_string@DU?$char_traits@D@std@@V?$allocator@D@2@@std@@QEAAX_KD@Z DD imagerel $LN5
	DD	imagerel $LN5+103
	DD	imagerel $unwind$?resize@?$basic_string@DU?$char_traits@D@std@@V?$allocator@D@2@@std@@QEAAX_KD@Z
pdata	ENDS
;	COMDAT pdata
pdata	SEGMENT
$pdata$?empty@?$basic_string@DU?$char_traits@D@std@@V?$allocator@D@2@@std@@QEBA_NXZ DD imagerel $LN5
	DD	imagerel $LN5+46
	DD	imagerel $unwind$?empty@?$basic_string@DU?$char_traits@D@std@@V?$allocator@D@2@@std@@QEBA_NXZ
pdata	ENDS
;	COMDAT pdata
pdata	SEGMENT
$pdata$?substr@?$basic_string@DU?$char_traits@D@std@@V?$allocator@D@2@@std@@QEBA?AV12@_K0@Z DD imagerel $LN5
	DD	imagerel $LN5+98
	DD	imagerel $unwind$?substr@?$basic_string@DU?$char_traits@D@std@@V?$allocator@D@2@@std@@QEBA?AV12@_K0@Z
pdata	ENDS
;	COMDAT pdata
pdata	SEGMENT
$pdata$?get_allocator@?$basic_string@DU?$char_traits@D@std@@V?$allocator@D@2@@std@@QEBA?AV?$allocator@D@2@XZ DD imagerel $LN3
	DD	imagerel $LN3+34
	DD	imagerel $unwind$?get_allocator@?$basic_string@DU?$char_traits@D@std@@V?$allocator@D@2@@std@@QEBA?AV?$allocator@D@2@XZ
pdata	ENDS
;	COMDAT pdata
pdata	SEGMENT
$pdata$?_Calculate_growth@?$basic_string@DU?$char_traits@D@std@@V?$allocator@D@2@@std@@CA_K_K00@Z DD imagerel $LN5
	DD	imagerel $LN5+146
	DD	imagerel $unwind$?_Calculate_growth@?$basic_string@DU?$char_traits@D@std@@V?$allocator@D@2@@std@@CA_K_K00@Z
pdata	ENDS
;	COMDAT pdata
pdata	SEGMENT
$pdata$?_Calculate_growth@?$basic_string@DU?$char_traits@D@std@@V?$allocator@D@2@@std@@AEBA_K_K@Z DD imagerel $LN3
	DD	imagerel $LN3+68
	DD	imagerel $unwind$?_Calculate_growth@?$basic_string@DU?$char_traits@D@std@@V?$allocator@D@2@@std@@AEBA_K_K@Z
pdata	ENDS
;	COMDAT pdata
pdata	SEGMENT
$pdata$?_Eos@?$basic_string@DU?$char_traits@D@std@@V?$allocator@D@2@@std@@AEAAX_K@Z DD imagerel $LN3
	DD	imagerel $LN3+95
	DD	imagerel $unwind$?_Eos@?$basic_string@DU?$char_traits@D@std@@V?$allocator@D@2@@std@@AEAAX_K@Z
pdata	ENDS
;	COMDAT pdata
pdata	SEGMENT
$pdata$?_Tidy_init@?$basic_string@DU?$char_traits@D@std@@V?$allocator@D@2@@std@@AEAAXXZ DD imagerel $LN5
	DD	imagerel $LN5+197
	DD	imagerel $unwind$?_Tidy_init@?$basic_string@DU?$char_traits@D@std@@V?$allocator@D@2@@std@@AEAAXXZ
pdata	ENDS
;	COMDAT pdata
pdata	SEGMENT
$pdata$?_Tidy_deallocate@?$basic_string@DU?$char_traits@D@std@@V?$allocator@D@2@@std@@AEAAXXZ DD imagerel $LN7
	DD	imagerel $LN7+239
	DD	imagerel $unwind$?_Tidy_deallocate@?$basic_string@DU?$char_traits@D@std@@V?$allocator@D@2@@std@@AEAAXXZ
pdata	ENDS
;	COMDAT pdata
pdata	SEGMENT
$pdata$?_Swap_proxy_and_iterators@?$basic_string@DU?$char_traits@D@std@@V?$allocator@D@2@@std@@AEAAXAEAV12@@Z DD imagerel $LN3
	DD	imagerel $LN3+47
	DD	imagerel $unwind$?_Swap_proxy_and_iterators@?$basic_string@DU?$char_traits@D@std@@V?$allocator@D@2@@std@@AEAAXAEAV12@@Z
pdata	ENDS
;	COMDAT pdata
pdata	SEGMENT
$pdata$?_Getal@?$basic_string@DU?$char_traits@D@std@@V?$allocator@D@2@@std@@AEAAAEAV?$allocator@D@2@XZ DD imagerel $LN3
	DD	imagerel $LN3+27
	DD	imagerel $unwind$?_Getal@?$basic_string@DU?$char_traits@D@std@@V?$allocator@D@2@@std@@AEAAAEAV?$allocator@D@2@XZ
pdata	ENDS
;	COMDAT pdata
pdata	SEGMENT
$pdata$?_Getal@?$basic_string@DU?$char_traits@D@std@@V?$allocator@D@2@@std@@AEBAAEBV?$allocator@D@2@XZ DD imagerel $LN3
	DD	imagerel $LN3+27
	DD	imagerel $unwind$?_Getal@?$basic_string@DU?$char_traits@D@std@@V?$allocator@D@2@@std@@AEBAAEBV?$allocator@D@2@XZ
pdata	ENDS
;	COMDAT pdata
pdata	SEGMENT
$pdata$??1?$_Compressed_pair@V?$allocator@D@std@@V?$_String_val@U?$_Simple_types@D@std@@@2@$00@std@@QEAA@XZ DD imagerel $LN3
	DD	imagerel $LN3+27
	DD	imagerel $unwind$??1?$_Compressed_pair@V?$allocator@D@std@@V?$_String_val@U?$_Simple_types@D@std@@@2@$00@std@@QEAA@XZ
pdata	ENDS
;	COMDAT pdata
pdata	SEGMENT
$pdata$??_G?$basic_string@DU?$char_traits@D@std@@V?$allocator@D@2@@std@@QEAAPEAXI@Z DD imagerel $LN4
	DD	imagerel $LN4+59
	DD	imagerel $unwind$??_G?$basic_string@DU?$char_traits@D@std@@V?$allocator@D@2@@std@@QEAAPEAXI@Z
pdata	ENDS
;	COMDAT pdata
pdata	SEGMENT
$pdata$??0runtime_error@std@@QEAA@AEBV?$basic_string@DU?$char_traits@D@std@@V?$allocator@D@2@@1@@Z DD imagerel $LN4
	DD	imagerel $LN4+62
	DD	imagerel $unwind$??0runtime_error@std@@QEAA@AEBV?$basic_string@DU?$char_traits@D@std@@V?$allocator@D@2@@1@@Z
pdata	ENDS
;	COMDAT pdata
pdata	SEGMENT
$pdata$??0runtime_error@std@@QEAA@PEBD@Z DD imagerel $LN4
	DD	imagerel $LN4+54
	DD	imagerel $unwind$??0runtime_error@std@@QEAA@PEBD@Z
pdata	ENDS
;	COMDAT pdata
pdata	SEGMENT
$pdata$??1runtime_error@std@@UEAA@XZ DD imagerel $LN3
	DD	imagerel $LN3+24
	DD	imagerel $unwind$??1runtime_error@std@@UEAA@XZ
pdata	ENDS
;	COMDAT pdata
pdata	SEGMENT
$pdata$??0runtime_error@std@@QEAA@AEBV01@@Z DD imagerel $LN3
	DD	imagerel $LN3+54
	DD	imagerel $unwind$??0runtime_error@std@@QEAA@AEBV01@@Z
pdata	ENDS
;	COMDAT pdata
pdata	SEGMENT
$pdata$??_Gruntime_error@std@@UEAAPEAXI@Z DD imagerel $LN4
	DD	imagerel $LN4+59
	DD	imagerel $unwind$??_Gruntime_error@std@@UEAAPEAXI@Z
pdata	ENDS
;	COMDAT pdata
pdata	SEGMENT
$pdata$?make_error_code@std@@YA?AVerror_code@1@W4io_errc@1@@Z DD imagerel $LN3
	DD	imagerel $LN3+45
	DD	imagerel $unwind$?make_error_code@std@@YA?AVerror_code@1@W4io_errc@1@@Z
pdata	ENDS
;	COMDAT pdata
pdata	SEGMENT
$pdata$?iostream_category@std@@YAAEBVerror_category@1@XZ DD imagerel $LN3
	DD	imagerel $LN3+14
	DD	imagerel $unwind$?iostream_category@std@@YAAEBVerror_category@1@XZ
pdata	ENDS
;	COMDAT pdata
pdata	SEGMENT
$pdata$?default_error_condition@error_category@std@@UEBA?AVerror_condition@2@H@Z DD imagerel $LN3
	DD	imagerel $LN3+48
	DD	imagerel $unwind$?default_error_condition@error_category@std@@UEBA?AVerror_condition@2@H@Z
pdata	ENDS
;	COMDAT pdata
pdata	SEGMENT
$pdata$?equivalent@error_category@std@@UEBA_NHAEBVerror_condition@2@@Z DD imagerel $LN3
	DD	imagerel $LN3+72
	DD	imagerel $unwind$?equivalent@error_category@std@@UEBA_NHAEBVerror_condition@2@@Z
pdata	ENDS
;	COMDAT pdata
pdata	SEGMENT
$pdata$?equivalent@error_category@std@@UEBA_NAEBVerror_code@2@H@Z DD imagerel $LN5
	DD	imagerel $LN5+93
	DD	imagerel $unwind$?equivalent@error_category@std@@UEBA_NAEBVerror_code@2@H@Z
pdata	ENDS
;	COMDAT pdata
pdata	SEGMENT
$pdata$??8error_category@std@@QEBA_NAEBV01@@Z DD imagerel $LN5
	DD	imagerel $LN5+59
	DD	imagerel $unwind$??8error_category@std@@QEBA_NAEBV01@@Z
pdata	ENDS
;	COMDAT pdata
pdata	SEGMENT
$pdata$?message@error_code@std@@QEBA?AV?$basic_string@DU?$char_traits@D@std@@V?$allocator@D@2@@2@XZ DD imagerel $LN5
	DD	imagerel $LN5+108
	DD	imagerel $unwind$?message@error_code@std@@QEBA?AV?$basic_string@DU?$char_traits@D@std@@V?$allocator@D@2@@2@XZ
pdata	ENDS
;	COMDAT pdata
pdata	SEGMENT
$pdata$??8std@@YA_NAEBVerror_condition@0@0@Z DD imagerel $LN5
	DD	imagerel $LN5+126
	DD	imagerel $unwind$??8std@@YA_NAEBVerror_condition@0@0@Z
pdata	ENDS
;	COMDAT pdata
pdata	SEGMENT
$pdata$?_Makestr@_System_error@std@@CA?AV?$basic_string@DU?$char_traits@D@std@@V?$allocator@D@2@@2@Verror_code@2@V32@@Z DD imagerel $LN8
	DD	imagerel $LN8+188
	DD	imagerel $unwind$?_Makestr@_System_error@std@@CA?AV?$basic_string@DU?$char_traits@D@std@@V?$allocator@D@2@@2@Verror_code@2@V32@@Z
pdata	ENDS
;	COMDAT pdata
pdata	SEGMENT
$pdata$?dtor$0@?0??_Makestr@_System_error@std@@CA?AV?$basic_string@DU?$char_traits@D@std@@V?$allocator@D@2@@2@Verror_code@2@V32@@Z@4HA DD imagerel ?dtor$0@?0??_Makestr@_System_error@std@@CA?AV?$basic_string@DU?$char_traits@D@std@@V?$allocator@D@2@@2@Verror_code@2@V32@@Z@4HA
	DD	imagerel ?dtor$0@?0??_Makestr@_System_error@std@@CA?AV?$basic_string@DU?$char_traits@D@std@@V?$allocator@D@2@@2@Verror_code@2@V32@@Z@4HA+27
	DD	imagerel $unwind$?dtor$0@?0??_Makestr@_System_error@std@@CA?AV?$basic_string@DU?$char_traits@D@std@@V?$allocator@D@2@@2@Verror_code@2@V32@@Z@4HA
pdata	ENDS
;	COMDAT pdata
pdata	SEGMENT
$pdata$?dtor$1@?0??_Makestr@_System_error@std@@CA?AV?$basic_string@DU?$char_traits@D@std@@V?$allocator@D@2@@2@Verror_code@2@V32@@Z@4HA DD imagerel ?dtor$1@?0??_Makestr@_System_error@std@@CA?AV?$basic_string@DU?$char_traits@D@std@@V?$allocator@D@2@@2@Verror_code@2@V32@@Z@4HA
	DD	imagerel ?dtor$1@?0??_Makestr@_System_error@std@@CA?AV?$basic_string@DU?$char_traits@D@std@@V?$allocator@D@2@@2@Verror_code@2@V32@@Z@4HA+24
	DD	imagerel $unwind$?dtor$1@?0??_Makestr@_System_error@std@@CA?AV?$basic_string@DU?$char_traits@D@std@@V?$allocator@D@2@@2@Verror_code@2@V32@@Z@4HA
pdata	ENDS
;	COMDAT pdata
pdata	SEGMENT
$pdata$??0_System_error@std@@IEAA@Verror_code@1@AEBV?$basic_string@DU?$char_traits@D@std@@V?$allocator@D@2@@1@@Z DD imagerel $LN6
	DD	imagerel $LN6+243
	DD	imagerel $unwind$??0_System_error@std@@IEAA@Verror_code@1@AEBV?$basic_string@DU?$char_traits@D@std@@V?$allocator@D@2@@1@@Z
pdata	ENDS
;	COMDAT pdata
pdata	SEGMENT
$pdata$?dtor$1@?0???0_System_error@std@@IEAA@Verror_code@1@AEBV?$basic_string@DU?$char_traits@D@std@@V?$allocator@D@2@@1@@Z@4HA DD imagerel ?dtor$1@?0???0_System_error@std@@IEAA@Verror_code@1@AEBV?$basic_string@DU?$char_traits@D@std@@V?$allocator@D@2@@1@@Z@4HA
	DD	imagerel ?dtor$1@?0???0_System_error@std@@IEAA@Verror_code@1@AEBV?$basic_string@DU?$char_traits@D@std@@V?$allocator@D@2@@1@@Z@4HA+24
	DD	imagerel $unwind$?dtor$1@?0???0_System_error@std@@IEAA@Verror_code@1@AEBV?$basic_string@DU?$char_traits@D@std@@V?$allocator@D@2@@1@@Z@4HA
pdata	ENDS
;	COMDAT pdata
pdata	SEGMENT
$pdata$??1_System_error@std@@UEAA@XZ DD imagerel $LN3
	DD	imagerel $LN3+24
	DD	imagerel $unwind$??1_System_error@std@@UEAA@XZ
pdata	ENDS
;	COMDAT pdata
pdata	SEGMENT
$pdata$??0_System_error@std@@QEAA@AEBV01@@Z DD imagerel $LN3
	DD	imagerel $LN3+83
	DD	imagerel $unwind$??0_System_error@std@@QEAA@AEBV01@@Z
pdata	ENDS
;	COMDAT pdata
pdata	SEGMENT
$pdata$??_G_System_error@std@@UEAAPEAXI@Z DD imagerel $LN4
	DD	imagerel $LN4+59
	DD	imagerel $unwind$??_G_System_error@std@@UEAAPEAXI@Z
pdata	ENDS
;	COMDAT pdata
pdata	SEGMENT
$pdata$??0system_error@std@@QEAA@Verror_code@1@PEBD@Z DD imagerel $LN5
	DD	imagerel $LN5+118
	DD	imagerel $unwind$??0system_error@std@@QEAA@Verror_code@1@PEBD@Z
pdata	ENDS
;	COMDAT pdata
pdata	SEGMENT
$pdata$?dtor$0@?0???0system_error@std@@QEAA@Verror_code@1@PEBD@Z@4HA DD imagerel ?dtor$0@?0???0system_error@std@@QEAA@Verror_code@1@PEBD@Z@4HA
	DD	imagerel ?dtor$0@?0???0system_error@std@@QEAA@Verror_code@1@PEBD@Z@4HA+24
	DD	imagerel $unwind$?dtor$0@?0???0system_error@std@@QEAA@Verror_code@1@PEBD@Z@4HA
pdata	ENDS
;	COMDAT pdata
pdata	SEGMENT
$pdata$??1system_error@std@@UEAA@XZ DD imagerel $LN3
	DD	imagerel $LN3+24
	DD	imagerel $unwind$??1system_error@std@@UEAA@XZ
pdata	ENDS
;	COMDAT pdata
pdata	SEGMENT
$pdata$??0system_error@std@@QEAA@AEBV01@@Z DD imagerel $LN3
	DD	imagerel $LN3+54
	DD	imagerel $unwind$??0system_error@std@@QEAA@AEBV01@@Z
pdata	ENDS
;	COMDAT pdata
pdata	SEGMENT
$pdata$??_Gsystem_error@std@@UEAAPEAXI@Z DD imagerel $LN4
	DD	imagerel $LN4+59
	DD	imagerel $unwind$??_Gsystem_error@std@@UEAAPEAXI@Z
pdata	ENDS
;	COMDAT pdata
pdata	SEGMENT
$pdata$?message@_Iostream_error_category2@std@@UEBA?AV?$basic_string@DU?$char_traits@D@std@@V?$allocator@D@2@@2@H@Z DD imagerel $LN7
	DD	imagerel $LN7+129
	DD	imagerel $unwind$?message@_Iostream_error_category2@std@@UEBA?AV?$basic_string@DU?$char_traits@D@std@@V?$allocator@D@2@@2@H@Z
pdata	ENDS
;	COMDAT pdata
pdata	SEGMENT
$pdata$??1_Iostream_error_category2@std@@UEAA@XZ DD imagerel $LN3
	DD	imagerel $LN3+24
	DD	imagerel $unwind$??1_Iostream_error_category2@std@@UEAA@XZ
pdata	ENDS
;	COMDAT pdata
pdata	SEGMENT
$pdata$??_G_Iostream_error_category2@std@@UEAAPEAXI@Z DD imagerel $LN4
	DD	imagerel $LN4+59
	DD	imagerel $unwind$??_G_Iostream_error_category2@std@@UEAAPEAXI@Z
pdata	ENDS
;	COMDAT pdata
pdata	SEGMENT
$pdata$??0bad_cast@std@@QEAA@XZ DD imagerel $LN3
	DD	imagerel $LN3+57
	DD	imagerel $unwind$??0bad_cast@std@@QEAA@XZ
pdata	ENDS
;	COMDAT pdata
pdata	SEGMENT
$pdata$??1bad_cast@std@@UEAA@XZ DD imagerel $LN3
	DD	imagerel $LN3+24
	DD	imagerel $unwind$??1bad_cast@std@@UEAA@XZ
pdata	ENDS
;	COMDAT pdata
pdata	SEGMENT
$pdata$??0bad_cast@std@@QEAA@AEBV01@@Z DD imagerel $LN3
	DD	imagerel $LN3+54
	DD	imagerel $unwind$??0bad_cast@std@@QEAA@AEBV01@@Z
pdata	ENDS
;	COMDAT pdata
pdata	SEGMENT
$pdata$??_Gbad_cast@std@@UEAAPEAXI@Z DD imagerel $LN4
	DD	imagerel $LN4+59
	DD	imagerel $unwind$??_Gbad_cast@std@@UEAAPEAXI@Z
pdata	ENDS
;	COMDAT pdata
pdata	SEGMENT
$pdata$?_Throw_bad_cast@std@@YAXXZ DD imagerel $LN3
	DD	imagerel $LN3+36
	DD	imagerel $unwind$?_Throw_bad_cast@std@@YAXXZ
pdata	ENDS
;	COMDAT pdata
pdata	SEGMENT
$pdata$??_G_Facet_base@std@@UEAAPEAXI@Z DD imagerel $LN4
	DD	imagerel $LN4+59
	DD	imagerel $unwind$??_G_Facet_base@std@@UEAAPEAXI@Z
pdata	ENDS
;	COMDAT pdata
pdata	SEGMENT
$pdata$??0_Locinfo@std@@QEAA@PEBD@Z DD imagerel $LN12
	DD	imagerel $LN12+193
	DD	imagerel $unwind$??0_Locinfo@std@@QEAA@PEBD@Z
pdata	ENDS
;	COMDAT pdata
pdata	SEGMENT
$pdata$?dtor$0@?0???0_Locinfo@std@@QEAA@PEBD@Z@4HA DD imagerel ?dtor$0@?0???0_Locinfo@std@@QEAA@PEBD@Z@4HA
	DD	imagerel ?dtor$0@?0???0_Locinfo@std@@QEAA@PEBD@Z@4HA+24
	DD	imagerel $unwind$?dtor$0@?0???0_Locinfo@std@@QEAA@PEBD@Z@4HA
pdata	ENDS
;	COMDAT pdata
pdata	SEGMENT
$pdata$?dtor$1@?0???0_Locinfo@std@@QEAA@PEBD@Z@4HA DD imagerel ?dtor$1@?0???0_Locinfo@std@@QEAA@PEBD@Z@4HA
	DD	imagerel ?dtor$1@?0???0_Locinfo@std@@QEAA@PEBD@Z@4HA+28
	DD	imagerel $unwind$?dtor$1@?0???0_Locinfo@std@@QEAA@PEBD@Z@4HA
pdata	ENDS
;	COMDAT pdata
pdata	SEGMENT
$pdata$?dtor$2@?0???0_Locinfo@std@@QEAA@PEBD@Z@4HA DD imagerel ?dtor$2@?0???0_Locinfo@std@@QEAA@PEBD@Z@4HA
	DD	imagerel ?dtor$2@?0???0_Locinfo@std@@QEAA@PEBD@Z@4HA+28
	DD	imagerel $unwind$?dtor$2@?0???0_Locinfo@std@@QEAA@PEBD@Z@4HA
pdata	ENDS
;	COMDAT pdata
pdata	SEGMENT
$pdata$?dtor$3@?0???0_Locinfo@std@@QEAA@PEBD@Z@4HA DD imagerel ?dtor$3@?0???0_Locinfo@std@@QEAA@PEBD@Z@4HA
	DD	imagerel ?dtor$3@?0???0_Locinfo@std@@QEAA@PEBD@Z@4HA+28
	DD	imagerel $unwind$?dtor$3@?0???0_Locinfo@std@@QEAA@PEBD@Z@4HA
pdata	ENDS
;	COMDAT pdata
pdata	SEGMENT
$pdata$?dtor$4@?0???0_Locinfo@std@@QEAA@PEBD@Z@4HA DD imagerel ?dtor$4@?0???0_Locinfo@std@@QEAA@PEBD@Z@4HA
	DD	imagerel ?dtor$4@?0???0_Locinfo@std@@QEAA@PEBD@Z@4HA+28
	DD	imagerel $unwind$?dtor$4@?0???0_Locinfo@std@@QEAA@PEBD@Z@4HA
pdata	ENDS
;	COMDAT pdata
pdata	SEGMENT
$pdata$?dtor$5@?0???0_Locinfo@std@@QEAA@PEBD@Z@4HA DD imagerel ?dtor$5@?0???0_Locinfo@std@@QEAA@PEBD@Z@4HA
	DD	imagerel ?dtor$5@?0???0_Locinfo@std@@QEAA@PEBD@Z@4HA+28
	DD	imagerel $unwind$?dtor$5@?0???0_Locinfo@std@@QEAA@PEBD@Z@4HA
pdata	ENDS
;	COMDAT pdata
pdata	SEGMENT
$pdata$?dtor$6@?0???0_Locinfo@std@@QEAA@PEBD@Z@4HA DD imagerel ?dtor$6@?0???0_Locinfo@std@@QEAA@PEBD@Z@4HA
	DD	imagerel ?dtor$6@?0???0_Locinfo@std@@QEAA@PEBD@Z@4HA+28
	DD	imagerel $unwind$?dtor$6@?0???0_Locinfo@std@@QEAA@PEBD@Z@4HA
pdata	ENDS
;	COMDAT pdata
pdata	SEGMENT
$pdata$??1_Locinfo@std@@QEAA@XZ DD imagerel $LN3
	DD	imagerel $LN3+140
	DD	imagerel $unwind$??1_Locinfo@std@@QEAA@XZ
pdata	ENDS
;	COMDAT pdata
pdata	SEGMENT
$pdata$?_Getctype@_Locinfo@std@@QEBA?AU_Ctypevec@@XZ DD imagerel $LN3
	DD	imagerel $LN3+53
	DD	imagerel $unwind$?_Getctype@_Locinfo@std@@QEBA?AU_Ctypevec@@XZ
pdata	ENDS
;	COMDAT pdata
pdata	SEGMENT
$pdata$?_Getcvt@_Locinfo@std@@QEBA?AU_Cvtvec@@XZ DD imagerel $LN3
	DD	imagerel $LN3+53
	DD	imagerel $unwind$?_Getcvt@_Locinfo@std@@QEBA?AU_Cvtvec@@XZ
pdata	ENDS
;	COMDAT pdata
pdata	SEGMENT
$pdata$?_Getlconv@_Locinfo@std@@QEBAPEBUlconv@@XZ DD imagerel $LN3
	DD	imagerel $LN3+19
	DD	imagerel $unwind$?_Getlconv@_Locinfo@std@@QEBAPEBUlconv@@XZ
pdata	ENDS
;	COMDAT pdata
pdata	SEGMENT
$pdata$??1?$_Yarn@D@std@@QEAA@XZ DD imagerel $LN3
	DD	imagerel $LN3+24
	DD	imagerel $unwind$??1?$_Yarn@D@std@@QEAA@XZ
pdata	ENDS
;	COMDAT pdata
pdata	SEGMENT
$pdata$?c_str@?$_Yarn@D@std@@QEBAPEBDXZ DD imagerel $LN5
	DD	imagerel $LN5+56
	DD	imagerel $unwind$?c_str@?$_Yarn@D@std@@QEBAPEBDXZ
pdata	ENDS
;	COMDAT pdata
pdata	SEGMENT
$pdata$?_Tidy@?$_Yarn@D@std@@AEAAXXZ DD imagerel $LN4
	DD	imagerel $LN4+50
	DD	imagerel $unwind$?_Tidy@?$_Yarn@D@std@@AEAAXXZ
pdata	ENDS
;	COMDAT pdata
pdata	SEGMENT
$pdata$??1?$_Yarn@_W@std@@QEAA@XZ DD imagerel $LN3
	DD	imagerel $LN3+24
	DD	imagerel $unwind$??1?$_Yarn@_W@std@@QEAA@XZ
pdata	ENDS
;	COMDAT pdata
pdata	SEGMENT
$pdata$?_Tidy@?$_Yarn@_W@std@@AEAAXXZ DD imagerel $LN4
	DD	imagerel $LN4+50
	DD	imagerel $unwind$?_Tidy@?$_Yarn@_W@std@@AEAAXXZ
pdata	ENDS
;	COMDAT pdata
pdata	SEGMENT
$pdata$??Bid@locale@std@@QEAA_KXZ DD imagerel $LN6
	DD	imagerel $LN6+95
	DD	imagerel $unwind$??Bid@locale@std@@QEAA_KXZ
pdata	ENDS
;	COMDAT pdata
pdata	SEGMENT
$pdata$??0facet@locale@std@@IEAA@_K@Z DD imagerel $LN4
	DD	imagerel $LN4+61
	DD	imagerel $unwind$??0facet@locale@std@@IEAA@_K@Z
pdata	ENDS
;	COMDAT pdata
pdata	SEGMENT
$pdata$??1facet@locale@std@@MEAA@XZ DD imagerel $LN3
	DD	imagerel $LN3+39
	DD	imagerel $unwind$??1facet@locale@std@@MEAA@XZ
pdata	ENDS
;	COMDAT pdata
pdata	SEGMENT
$pdata$??_Gfacet@locale@std@@MEAAPEAXI@Z DD imagerel $LN4
	DD	imagerel $LN4+59
	DD	imagerel $unwind$??_Gfacet@locale@std@@MEAAPEAXI@Z
pdata	ENDS
;	COMDAT pdata
pdata	SEGMENT
$pdata$??0locale@std@@QEAA@AEBV01@@Z DD imagerel $LN3
	DD	imagerel $LN3+66
	DD	imagerel $unwind$??0locale@std@@QEAA@AEBV01@@Z
pdata	ENDS
;	COMDAT pdata
pdata	SEGMENT
$pdata$??1locale@std@@QEAA@XZ DD imagerel $LN6
