; Listing generated by Microsoft (R) Optimizing Compiler Version 19.33.31629.0 

include listing.inc

INCLUDELIB LIBCMT
INCLUDELIB OLDNAMES

CONST	SEGMENT
$SG55993 DB	'fan warning: ', 00H
$SG56016 DB	00H
	ORG $+1
$SG56003 DB	'fan warning:', 00H
	ORG $+3
$SG56013 DB	'pause', 00H
	ORG $+2
$SG56092 DB	'stacktrace not supported', 00H
CONST	ENDS
PUBLIC	??2@YAPEAX_KPEAX@Z				; operator new
PUBLIC	?is_constant_evaluated@std@@YA_NXZ		; std::is_constant_evaluated
PUBLIC	?_Fnv1a_append_bytes@std@@YA_K_KQEBE_K@Z	; std::_Fnv1a_append_bytes
PUBLIC	?max@?$numeric_limits@_J@std@@SA_JXZ		; std::numeric_limits<__int64>::max
PUBLIC	??0exception@std@@QEAA@QEBDH@Z			; std::exception::exception
PUBLIC	??0exception@std@@QEAA@AEBV01@@Z		; std::exception::exception
PUBLIC	??1exception@std@@UEAA@XZ			; std::exception::~exception
PUBLIC	?what@exception@std@@UEBAPEBDXZ			; std::exception::what
PUBLIC	??_Gexception@std@@UEAAPEAXI@Z			; std::exception::`scalar deleting destructor'
PUBLIC	??0bad_alloc@std@@AEAA@QEBD@Z			; std::bad_alloc::bad_alloc
PUBLIC	??1bad_alloc@std@@UEAA@XZ			; std::bad_alloc::~bad_alloc
PUBLIC	??0bad_alloc@std@@QEAA@AEBV01@@Z		; std::bad_alloc::bad_alloc
PUBLIC	??_Gbad_alloc@std@@UEAAPEAXI@Z			; std::bad_alloc::`scalar deleting destructor'
PUBLIC	??0bad_array_new_length@std@@QEAA@XZ		; std::bad_array_new_length::bad_array_new_length
PUBLIC	??1bad_array_new_length@std@@UEAA@XZ		; std::bad_array_new_length::~bad_array_new_length
PUBLIC	??0bad_array_new_length@std@@QEAA@AEBV01@@Z	; std::bad_array_new_length::bad_array_new_length
PUBLIC	??_Gbad_array_new_length@std@@UEAAPEAXI@Z	; std::bad_array_new_length::`scalar deleting destructor'
PUBLIC	?_Throw_bad_array_new_length@std@@YAXXZ		; std::_Throw_bad_array_new_length
PUBLIC	??0?$tuple@$$V@std@@QEAA@AEBV01@@Z		; std::tuple<>::tuple<>
PUBLIC	?_Allocate@_Default_allocate_traits@std@@SAPEAX_K@Z ; std::_Default_allocate_traits::_Allocate
PUBLIC	?_Adjust_manually_vector_aligned@std@@YAXAEAPEAXAEA_K@Z ; std::_Adjust_manually_vector_aligned
PUBLIC	?_Adopt@_Iterator_base0@std@@QEAAXPEBX@Z	; std::_Iterator_base0::_Adopt
PUBLIC	?_Floor_of_log_2@std@@YAK_K@Z			; std::_Floor_of_log_2
PUBLIC	?_Ceiling_of_log_2@std@@YAK_K@Z			; std::_Ceiling_of_log_2
PUBLIC	?convert_keys_to_fan@window_input@fan@@YAGG@Z	; fan::window_input::convert_keys_to_fan
PUBLIC	?convert_fan_to_keys@window_input@fan@@YAGG@Z	; fan::window_input::convert_fan_to_keys
PUBLIC	?convert_utfkeys_to_fan@window_input@fan@@YAGG@Z ; fan::window_input::convert_utfkeys_to_fan
PUBLIC	?get_keys@window_input@fan@@YAXAEAV?$unordered_map@G_NU?$hash@G@std@@U?$equal_to@G@2@V?$allocator@U?$pair@$$CBG_N@std@@@2@@std@@G_N@Z ; fan::window_input::get_keys
PUBLIC	??R?$_Conditionally_enabled_hash@G$00@std@@QEBA_KAEBG@Z ; std::_Conditionally_enabled_hash<unsigned short,1>::operator()
PUBLIC	?_Do_hash@?$hash@G@std@@SA_KAEBG@Z		; std::hash<unsigned short>::_Do_hash
PUBLIC	?_Get_max_bucket_size@?$_Uhash_compare@GU?$hash@G@std@@U?$equal_to@G@2@@std@@QEBAAEBMXZ ; std::_Uhash_compare<unsigned short,std::hash<unsigned short>,std::equal_to<unsigned short> >::_Get_max_bucket_size
PUBLIC	??R?$equal_to@G@std@@QEBA_NAEBG0@Z		; std::equal_to<unsigned short>::operator()
PUBLIC	?_Get_first@?$_Compressed_pair@U?$equal_to@G@std@@M$00@std@@QEBAAEBU?$equal_to@G@2@XZ ; std::_Compressed_pair<std::equal_to<unsigned short>,float,1>::_Get_first
PUBLIC	?_Get_first@?$_Compressed_pair@U?$hash@G@std@@V?$_Compressed_pair@U?$equal_to@G@std@@M$00@2@$00@std@@QEBAAEBU?$hash@G@2@XZ ; std::_Compressed_pair<std::hash<unsigned short>,std::_Compressed_pair<std::equal_to<unsigned short>,float,1>,1>::_Get_first
PUBLIC	?deallocate@?$allocator@U?$_List_node@U?$pair@$$CBG_N@std@@PEAX@std@@@std@@QEAAXQEAU?$_List_node@U?$pair@$$CBG_N@std@@PEAX@2@_K@Z ; std::allocator<std::_List_node<std::pair<unsigned short const ,bool>,void *> >::deallocate
PUBLIC	?allocate@?$allocator@U?$_List_node@U?$pair@$$CBG_N@std@@PEAX@std@@@std@@QEAAPEAU?$_List_node@U?$pair@$$CBG_N@std@@PEAX@2@_K@Z ; std::allocator<std::_List_node<std::pair<unsigned short const ,bool>,void *> >::allocate
PUBLIC	?deallocate@?$_Default_allocator_traits@V?$allocator@U?$_List_node@U?$pair@$$CBG_N@std@@PEAX@std@@@std@@@std@@SAXAEAV?$allocator@U?$_List_node@U?$pair@$$CBG_N@std@@PEAX@std@@@2@QEAU?$_List_node@U?$pair@$$CBG_N@std@@PEAX@2@_K@Z ; std::_Default_allocator_traits<std::allocator<std::_List_node<std::pair<unsigned short const ,bool>,void *> > >::deallocate
PUBLIC	?max_size@?$_Default_allocator_traits@V?$allocator@U?$_List_node@U?$pair@$$CBG_N@std@@PEAX@std@@@std@@@std@@SA_KAEBV?$allocator@U?$_List_node@U?$pair@$$CBG_N@std@@PEAX@std@@@2@@Z ; std::_Default_allocator_traits<std::allocator<std::_List_node<std::pair<unsigned short const ,bool>,void *> > >::max_size
PUBLIC	?_Unchecked_begin@?$list@U?$pair@$$CBG_N@std@@V?$allocator@U?$pair@$$CBG_N@std@@@2@@std@@QEAA?AV?$_List_unchecked_iterator@V?$_List_val@U?$_List_simple_types@U?$pair@$$CBG_N@std@@@std@@@std@@@2@XZ ; std::list<std::pair<unsigned short const ,bool>,std::allocator<std::pair<unsigned short const ,bool> > >::_Unchecked_begin
PUBLIC	?_Unchecked_end@?$list@U?$pair@$$CBG_N@std@@V?$allocator@U?$pair@$$CBG_N@std@@@2@@std@@QEAA?AV?$_List_unchecked_iterator@V?$_List_val@U?$_List_simple_types@U?$pair@$$CBG_N@std@@@std@@@std@@@2@XZ ; std::list<std::pair<unsigned short const ,bool>,std::allocator<std::pair<unsigned short const ,bool> > >::_Unchecked_end
PUBLIC	?max_size@?$list@U?$pair@$$CBG_N@std@@V?$allocator@U?$pair@$$CBG_N@std@@@2@@std@@QEBA_KXZ ; std::list<std::pair<unsigned short const ,bool>,std::allocator<std::pair<unsigned short const ,bool> > >::max_size
PUBLIC	?clear@?$list@U?$pair@$$CBG_N@std@@V?$allocator@U?$pair@$$CBG_N@std@@@2@@std@@QEAAXXZ ; std::list<std::pair<unsigned short const ,bool>,std::allocator<std::pair<unsigned short const ,bool> > >::clear
PUBLIC	?_Getal@?$list@U?$pair@$$CBG_N@std@@V?$allocator@U?$pair@$$CBG_N@std@@@2@@std@@AEAAAEAV?$allocator@U?$_List_node@U?$pair@$$CBG_N@std@@PEAX@std@@@2@XZ ; std::list<std::pair<unsigned short const ,bool>,std::allocator<std::pair<unsigned short const ,bool> > >::_Getal
PUBLIC	?_Getal@?$list@U?$pair@$$CBG_N@std@@V?$allocator@U?$pair@$$CBG_N@std@@@2@@std@@AEBAAEBV?$allocator@U?$_List_node@U?$pair@$$CBG_N@std@@PEAX@std@@@2@XZ ; std::list<std::pair<unsigned short const ,bool>,std::allocator<std::pair<unsigned short const ,bool> > >::_Getal
PUBLIC	?_Orphan_non_end@?$_List_val@U?$_List_simple_types@U?$pair@$$CBG_N@std@@@std@@@std@@QEAAXXZ ; std::_List_val<std::_List_simple_types<std::pair<unsigned short const ,bool> > >::_Orphan_non_end
PUBLIC	?_Unchecked_splice@?$_List_val@U?$_List_simple_types@U?$pair@$$CBG_N@std@@@std@@@std@@SAPEAU?$_List_node@U?$pair@$$CBG_N@std@@PEAX@2@QEAU32@00@Z ; std::_List_val<std::_List_simple_types<std::pair<unsigned short const ,bool> > >::_Unchecked_splice
PUBLIC	?_Get_first@?$_Compressed_pair@V?$allocator@U?$_List_node@U?$pair@$$CBG_N@std@@PEAX@std@@@std@@V?$_List_val@U?$_List_simple_types@U?$pair@$$CBG_N@std@@@std@@@2@$00@std@@QEAAAEAV?$allocator@U?$_List_node@U?$pair@$$CBG_N@std@@PEAX@std@@@2@XZ ; std::_Compressed_pair<std::allocator<std::_List_node<std::pair<unsigned short const ,bool>,void *> >,std::_List_val<std::_List_simple_types<std::pair<unsigned short const ,bool> > >,1>::_Get_first
PUBLIC	?_Get_first@?$_Compressed_pair@V?$allocator@U?$_List_node@U?$pair@$$CBG_N@std@@PEAX@std@@@std@@V?$_List_val@U?$_List_simple_types@U?$pair@$$CBG_N@std@@@std@@@2@$00@std@@QEBAAEBV?$allocator@U?$_List_node@U?$pair@$$CBG_N@std@@PEAX@std@@@2@XZ ; std::_Compressed_pair<std::allocator<std::_List_node<std::pair<unsigned short const ,bool>,void *> >,std::_List_val<std::_List_simple_types<std::pair<unsigned short const ,bool> > >,1>::_Get_first
PUBLIC	?_Unchecked_begin@?$_Hash@V?$_Umap_traits@G_NV?$_Uhash_compare@GU?$hash@G@std@@U?$equal_to@G@2@@std@@V?$allocator@U?$pair@$$CBG_N@std@@@2@$0A@@std@@@std@@QEAA?AV?$_List_unchecked_iterator@V?$_List_val@U?$_List_simple_types@U?$pair@$$CBG_N@std@@@std@@@std@@@2@XZ ; std::_Hash<std::_Umap_traits<unsigned short,bool,std::_Uhash_compare<unsigned short,std::hash<unsigned short>,std::equal_to<unsigned short> >,std::allocator<std::pair<unsigned short const ,bool> >,0> >::_Unchecked_begin
PUBLIC	?_Unchecked_end@?$_Hash@V?$_Umap_traits@G_NV?$_Uhash_compare@GU?$hash@G@std@@U?$equal_to@G@2@@std@@V?$allocator@U?$pair@$$CBG_N@std@@@2@$0A@@std@@@std@@QEAA?AV?$_List_unchecked_iterator@V?$_List_val@U?$_List_simple_types@U?$pair@$$CBG_N@std@@@std@@@std@@@2@XZ ; std::_Hash<std::_Umap_traits<unsigned short,bool,std::_Uhash_compare<unsigned short,std::hash<unsigned short>,std::equal_to<unsigned short> >,std::allocator<std::pair<unsigned short const ,bool> >,0> >::_Unchecked_end
PUBLIC	?bucket_count@?$_Hash@V?$_Umap_traits@G_NV?$_Uhash_compare@GU?$hash@G@std@@U?$equal_to@G@2@@std@@V?$allocator@U?$pair@$$CBG_N@std@@@2@$0A@@std@@@std@@QEBA_KXZ ; std::_Hash<std::_Umap_traits<unsigned short,bool,std::_Uhash_compare<unsigned short,std::hash<unsigned short>,std::equal_to<unsigned short> >,std::allocator<std::pair<unsigned short const ,bool> >,0> >::bucket_count
PUBLIC	?bucket@?$_Hash@V?$_Umap_traits@G_NV?$_Uhash_compare@GU?$hash@G@std@@U?$equal_to@G@2@@std@@V?$allocator@U?$pair@$$CBG_N@std@@@2@$0A@@std@@@std@@QEBA_KAEBG@Z ; std::_Hash<std::_Umap_traits<unsigned short,bool,std::_Uhash_compare<unsigned short,std::hash<unsigned short>,std::equal_to<unsigned short> >,std::allocator<std::pair<unsigned short const ,bool> >,0> >::bucket
PUBLIC	?max_load_factor@?$_Hash@V?$_Umap_traits@G_NV?$_Uhash_compare@GU?$hash@G@std@@U?$equal_to@G@2@@std@@V?$allocator@U?$pair@$$CBG_N@std@@@2@$0A@@std@@@std@@QEBAMXZ ; std::_Hash<std::_Umap_traits<unsigned short,bool,std::_Uhash_compare<unsigned short,std::hash<unsigned short>,std::equal_to<unsigned short> >,std::allocator<std::pair<unsigned short const ,bool> >,0> >::max_load_factor
PUBLIC	?_Unchecked_erase@?$_Hash@V?$_Umap_traits@G_NV?$_Uhash_compare@GU?$hash@G@std@@U?$equal_to@G@2@@std@@V?$allocator@U?$pair@$$CBG_N@std@@@2@$0A@@std@@@std@@AEAAPEAU?$_List_node@U?$pair@$$CBG_N@std@@PEAX@2@PEAU32@QEAU32@@Z ; std::_Hash<std::_Umap_traits<unsigned short,bool,std::_Uhash_compare<unsigned short,std::hash<unsigned short>,std::equal_to<unsigned short> >,std::allocator<std::pair<unsigned short const ,bool> >,0> >::_Unchecked_erase
PUBLIC	?clear@?$_Hash@V?$_Umap_traits@G_NV?$_Uhash_compare@GU?$hash@G@std@@U?$equal_to@G@2@@std@@V?$allocator@U?$pair@$$CBG_N@std@@@2@$0A@@std@@@std@@QEAAXXZ ; std::_Hash<std::_Umap_traits<unsigned short,bool,std::_Uhash_compare<unsigned short,std::hash<unsigned short>,std::equal_to<unsigned short> >,std::allocator<std::pair<unsigned short const ,bool> >,0> >::clear
PUBLIC	?_Insert_new_node_before@?$_Hash@V?$_Umap_traits@G_NV?$_Uhash_compare@GU?$hash@G@std@@U?$equal_to@G@2@@std@@V?$allocator@U?$pair@$$CBG_N@std@@@2@$0A@@std@@@std@@IEAAPEAU?$_List_node@U?$pair@$$CBG_N@std@@PEAX@2@_KQEAU32@1@Z ; std::_Hash<std::_Umap_traits<unsigned short,bool,std::_Uhash_compare<unsigned short,std::hash<unsigned short>,std::equal_to<unsigned short> >,std::allocator<std::pair<unsigned short const ,bool> >,0> >::_Insert_new_node_before
PUBLIC	?_Check_max_size@?$_Hash@V?$_Umap_traits@G_NV?$_Uhash_compare@GU?$hash@G@std@@U?$equal_to@G@2@@std@@V?$allocator@U?$pair@$$CBG_N@std@@@2@$0A@@std@@@std@@IEBAXXZ ; std::_Hash<std::_Umap_traits<unsigned short,bool,std::_Uhash_compare<unsigned short,std::hash<unsigned short>,std::equal_to<unsigned short> >,std::allocator<std::pair<unsigned short const ,bool> >,0> >::_Check_max_size
PUBLIC	?_Check_rehash_required_1@?$_Hash@V?$_Umap_traits@G_NV?$_Uhash_compare@GU?$hash@G@std@@U?$equal_to@G@2@@std@@V?$allocator@U?$pair@$$CBG_N@std@@@2@$0A@@std@@@std@@IEBA_NXZ ; std::_Hash<std::_Umap_traits<unsigned short,bool,std::_Uhash_compare<unsigned short,std::hash<unsigned short>,std::equal_to<unsigned short> >,std::allocator<std::pair<unsigned short const ,bool> >,0> >::_Check_rehash_required_1
PUBLIC	?_Rehash_for_1@?$_Hash@V?$_Umap_traits@G_NV?$_Uhash_compare@GU?$hash@G@std@@U?$equal_to@G@2@@std@@V?$allocator@U?$pair@$$CBG_N@std@@@2@$0A@@std@@@std@@IEAAXXZ ; std::_Hash<std::_Umap_traits<unsigned short,bool,std::_Uhash_compare<unsigned short,std::hash<unsigned short>,std::equal_to<unsigned short> >,std::allocator<std::pair<unsigned short const ,bool> >,0> >::_Rehash_for_1
PUBLIC	?_Min_load_factor_buckets@?$_Hash@V?$_Umap_traits@G_NV?$_Uhash_compare@GU?$hash@G@std@@U?$equal_to@G@2@@std@@V?$allocator@U?$pair@$$CBG_N@std@@@2@$0A@@std@@@std@@IEBA_K_K@Z ; std::_Hash<std::_Umap_traits<unsigned short,bool,std::_Uhash_compare<unsigned short,std::hash<unsigned short>,std::equal_to<unsigned short> >,std::allocator<std::pair<unsigned short const ,bool> >,0> >::_Min_load_factor_buckets
PUBLIC	?_Desired_grow_bucket_count@?$_Hash@V?$_Umap_traits@G_NV?$_Uhash_compare@GU?$hash@G@std@@U?$equal_to@G@2@@std@@V?$allocator@U?$pair@$$CBG_N@std@@@2@$0A@@std@@@std@@IEBA_K_K@Z ; std::_Hash<std::_Umap_traits<unsigned short,bool,std::_Uhash_compare<unsigned short,std::hash<unsigned short>,std::equal_to<unsigned short> >,std::allocator<std::pair<unsigned short const ,bool> >,0> >::_Desired_grow_bucket_count
PUBLIC	?_Forced_rehash@?$_Hash@V?$_Umap_traits@G_NV?$_Uhash_compare@GU?$hash@G@std@@U?$equal_to@G@2@@std@@V?$allocator@U?$pair@$$CBG_N@std@@@2@$0A@@std@@@std@@IEAAX_K@Z ; std::_Hash<std::_Umap_traits<unsigned short,bool,std::_Uhash_compare<unsigned short,std::hash<unsigned short>,std::equal_to<unsigned short> >,std::allocator<std::pair<unsigned short const ,bool> >,0> >::_Forced_rehash
PUBLIC	?_Max_bucket_size@?$_Hash@V?$_Umap_traits@G_NV?$_Uhash_compare@GU?$hash@G@std@@U?$equal_to@G@2@@std@@V?$allocator@U?$pair@$$CBG_N@std@@@2@$0A@@std@@@std@@IEBAAEBMXZ ; std::_Hash<std::_Umap_traits<unsigned short,bool,std::_Uhash_compare<unsigned short,std::hash<unsigned short>,std::equal_to<unsigned short> >,std::allocator<std::pair<unsigned short const ,bool> >,0> >::_Max_bucket_size
PUBLIC	?deallocate@?$allocator@V?$_List_unchecked_iterator@V?$_List_val@U?$_List_simple_types@U?$pair@$$CBG_N@std@@@std@@@std@@@std@@@std@@QEAAXQEAV?$_List_unchecked_iterator@V?$_List_val@U?$_List_simple_types@U?$pair@$$CBG_N@std@@@std@@@std@@@2@_K@Z ; std::allocator<std::_List_unchecked_iterator<std::_List_val<std::_List_simple_types<std::pair<unsigned short const ,bool> > > > >::deallocate
PUBLIC	?allocate@?$allocator@V?$_List_unchecked_iterator@V?$_List_val@U?$_List_simple_types@U?$pair@$$CBG_N@std@@@std@@@std@@@std@@@std@@QEAAPEAV?$_List_unchecked_iterator@V?$_List_val@U?$_List_simple_types@U?$pair@$$CBG_N@std@@@std@@@std@@@2@_K@Z ; std::allocator<std::_List_unchecked_iterator<std::_List_val<std::_List_simple_types<std::pair<unsigned short const ,bool> > > > >::allocate
PUBLIC	?max_size@?$_Default_allocator_traits@V?$allocator@V?$_List_unchecked_iterator@V?$_List_val@U?$_List_simple_types@U?$pair@$$CBG_N@std@@@std@@@std@@@std@@@std@@@std@@SA_KAEBV?$allocator@V?$_List_unchecked_iterator@V?$_List_val@U?$_List_simple_types@U?$pair@$$CBG_N@std@@@std@@@std@@@std@@@2@@Z ; std::_Default_allocator_traits<std::allocator<std::_List_unchecked_iterator<std::_List_val<std::_List_simple_types<std::pair<unsigned short const ,bool> > > > > >::max_size
PUBLIC	?size@?$_Hash_vec@V?$allocator@V?$_List_unchecked_iterator@V?$_List_val@U?$_List_simple_types@U?$pair@$$CBG_N@std@@@std@@@std@@@std@@@std@@@std@@QEBA_KXZ ; std::_Hash_vec<std::allocator<std::_List_unchecked_iterator<std::_List_val<std::_List_simple_types<std::pair<unsigned short const ,bool> > > > > >::size
PUBLIC	?max_size@?$_Hash_vec@V?$allocator@V?$_List_unchecked_iterator@V?$_List_val@U?$_List_simple_types@U?$pair@$$CBG_N@std@@@std@@@std@@@std@@@std@@@std@@QEBA_KXZ ; std::_Hash_vec<std::allocator<std::_List_unchecked_iterator<std::_List_val<std::_List_simple_types<std::pair<unsigned short const ,bool> > > > > >::max_size
PUBLIC	?_Assign_grow@?$_Hash_vec@V?$allocator@V?$_List_unchecked_iterator@V?$_List_val@U?$_List_simple_types@U?$pair@$$CBG_N@std@@@std@@@std@@@std@@@std@@@std@@QEAAX_KV?$_List_unchecked_iterator@V?$_List_val@U?$_List_simple_types@U?$pair@$$CBG_N@std@@@std@@@std@@@2@@Z ; std::_Hash_vec<std::allocator<std::_List_unchecked_iterator<std::_List_val<std::_List_simple_types<std::pair<unsigned short const ,bool> > > > > >::_Assign_grow
PUBLIC	?_Get_first@?$_Compressed_pair@V?$allocator@V?$_List_unchecked_iterator@V?$_List_val@U?$_List_simple_types@U?$pair@$$CBG_N@std@@@std@@@std@@@std@@@std@@V?$_Vector_val@U?$_Simple_types@V?$_List_unchecked_iterator@V?$_List_val@U?$_List_simple_types@U?$pair@$$CBG_N@std@@@std@@@std@@@std@@@std@@@2@$00@std@@QEAAAEAV?$allocator@V?$_List_unchecked_iterator@V?$_List_val@U?$_List_simple_types@U?$pair@$$CBG_N@std@@@std@@@std@@@std@@@2@XZ ; std::_Compressed_pair<std::allocator<std::_List_unchecked_iterator<std::_List_val<std::_List_simple_types<std::pair<unsigned short const ,bool> > > > >,std::_Vector_val<std::_Simple_types<std::_List_unchecked_iterator<std::_List_val<std::_List_simple_types<std::pair<unsigned short const ,bool> > > > > >,1>::_Get_first
PUBLIC	?_Get_first@?$_Compressed_pair@V?$allocator@V?$_List_unchecked_iterator@V?$_List_val@U?$_List_simple_types@U?$pair@$$CBG_N@std@@@std@@@std@@@std@@@std@@V?$_Vector_val@U?$_Simple_types@V?$_List_unchecked_iterator@V?$_List_val@U?$_List_simple_types@U?$pair@$$CBG_N@std@@@std@@@std@@@std@@@std@@@2@$00@std@@QEBAAEBV?$allocator@V?$_List_unchecked_iterator@V?$_List_val@U?$_List_simple_types@U?$pair@$$CBG_N@std@@@std@@@std@@@std@@@2@XZ ; std::_Compressed_pair<std::allocator<std::_List_unchecked_iterator<std::_List_val<std::_List_simple_types<std::pair<unsigned short const ,bool> > > > >,std::_Vector_val<std::_Simple_types<std::_List_unchecked_iterator<std::_List_val<std::_List_simple_types<std::pair<unsigned short const ,bool> > > > > >,1>::_Get_first
PUBLIC	??A?$unordered_map@G_NU?$hash@G@std@@U?$equal_to@G@2@V?$allocator@U?$pair@$$CBG_N@std@@@2@@std@@QEAAAEA_N$$QEAG@Z ; std::unordered_map<unsigned short,bool,std::hash<unsigned short>,std::equal_to<unsigned short>,std::allocator<std::pair<unsigned short const ,bool> > >::operator[]
PUBLIC	??A?$unordered_map@G_NU?$hash@G@std@@U?$equal_to@G@2@V?$allocator@U?$pair@$$CBG_N@std@@@2@@std@@QEAAAEA_NAEBG@Z ; std::unordered_map<unsigned short,bool,std::hash<unsigned short>,std::equal_to<unsigned short>,std::allocator<std::pair<unsigned short const ,bool> > >::operator[]
PUBLIC	??$_Try_emplace@AEBG$$V@?$_Hash@V?$_Umap_traits@G_NV?$_Uhash_compare@GU?$hash@G@std@@U?$equal_to@G@2@@std@@V?$allocator@U?$pair@$$CBG_N@std@@@2@$0A@@std@@@std@@IEAA?AU?$pair@PEAU?$_List_node@U?$pair@$$CBG_N@std@@PEAX@std@@_N@1@AEBG@Z ; std::_Hash<std::_Umap_traits<unsigned short,bool,std::_Uhash_compare<unsigned short,std::hash<unsigned short>,std::equal_to<unsigned short> >,std::allocator<std::pair<unsigned short const ,bool> >,0> >::_Try_emplace<unsigned short const &>
PUBLIC	??$move@AEAG@std@@YA$$QEAGAEAG@Z		; std::move<unsigned short &>
PUBLIC	??$_Try_emplace@G$$V@?$_Hash@V?$_Umap_traits@G_NV?$_Uhash_compare@GU?$hash@G@std@@U?$equal_to@G@2@@std@@V?$allocator@U?$pair@$$CBG_N@std@@@2@$0A@@std@@@std@@IEAA?AU?$pair@PEAU?$_List_node@U?$pair@$$CBG_N@std@@PEAX@std@@_N@1@$$QEAG@Z ; std::_Hash<std::_Umap_traits<unsigned short,bool,std::_Uhash_compare<unsigned short,std::hash<unsigned short>,std::equal_to<unsigned short> >,std::allocator<std::pair<unsigned short const ,bool> >,0> >::_Try_emplace<unsigned short>
PUBLIC	??$max@_K@std@@YAAEB_KAEB_K0@Z			; std::max<unsigned __int64>
PUBLIC	??$_Deallocate@$0BA@$0A@@std@@YAXPEAX_K@Z	; std::_Deallocate<16,0>
PUBLIC	??$_Allocate@$0BA@U_Default_allocate_traits@std@@$0A@@std@@YAPEAX_K@Z ; std::_Allocate<16,std::_Default_allocate_traits,0>
PUBLIC	??$min@_K@std@@YAAEB_KAEB_K0@Z			; std::min<unsigned __int64>
PUBLIC	??$?RG@?$_Uhash_compare@GU?$hash@G@std@@U?$equal_to@G@2@@std@@QEBA_KAEBG@Z ; std::_Uhash_compare<unsigned short,std::hash<unsigned short>,std::equal_to<unsigned short> >::operator()<unsigned short>
PUBLIC	??$_Find_last@G@?$_Hash@V?$_Umap_traits@G_NV?$_Uhash_compare@GU?$hash@G@std@@U?$equal_to@G@2@@std@@V?$allocator@U?$pair@$$CBG_N@std@@@2@$0A@@std@@@std@@IEBA?AU?$_Hash_find_last_result@PEAU?$_List_node@U?$pair@$$CBG_N@std@@PEAX@std@@@1@AEBG_K@Z ; std::_Hash<std::_Umap_traits<unsigned short,bool,std::_Uhash_compare<unsigned short,std::hash<unsigned short>,std::equal_to<unsigned short> >,std::allocator<std::pair<unsigned short const ,bool> >,0> >::_Find_last<unsigned short>
PUBLIC	??$forward@AEBG@std@@YAAEBGAEBG@Z		; std::forward<unsigned short const &>
PUBLIC	??$forward_as_tuple@AEBG@std@@YA?AV?$tuple@AEBG@0@AEBG@Z ; std::forward_as_tuple<unsigned short const &>
PUBLIC	??0?$tuple@AEBG@std@@QEAA@$$QEAV01@@Z		; std::tuple<unsigned short const &>::tuple<unsigned short const &>
PUBLIC	??$forward_as_tuple@$$V@std@@YA?AV?$tuple@$$V@0@XZ ; std::forward_as_tuple<>
PUBLIC	??0?$_Alloc_construct_ptr@V?$allocator@U?$_List_node@U?$pair@$$CBG_N@std@@PEAX@std@@@std@@@std@@QEAA@AEAV?$allocator@U?$_List_node@U?$pair@$$CBG_N@std@@PEAX@std@@@1@@Z ; std::_Alloc_construct_ptr<std::allocator<std::_List_node<std::pair<unsigned short const ,bool>,void *> > >::_Alloc_construct_ptr<std::allocator<std::_List_node<std::pair<unsigned short const ,bool>,void *> > >
PUBLIC	?_Release@?$_Alloc_construct_ptr@V?$allocator@U?$_List_node@U?$pair@$$CBG_N@std@@PEAX@std@@@std@@@std@@QEAAPEAU?$_List_node@U?$pair@$$CBG_N@std@@PEAX@2@XZ ; std::_Alloc_construct_ptr<std::allocator<std::_List_node<std::pair<unsigned short const ,bool>,void *> > >::_Release
PUBLIC	?_Allocate@?$_Alloc_construct_ptr@V?$allocator@U?$_List_node@U?$pair@$$CBG_N@std@@PEAX@std@@@std@@@std@@QEAAXXZ ; std::_Alloc_construct_ptr<std::allocator<std::_List_node<std::pair<unsigned short const ,bool>,void *> > >::_Allocate
PUBLIC	??1?$_Alloc_construct_ptr@V?$allocator@U?$_List_node@U?$pair@$$CBG_N@std@@PEAX@std@@@std@@@std@@QEAA@XZ ; std::_Alloc_construct_ptr<std::allocator<std::_List_node<std::pair<unsigned short const ,bool>,void *> > >::~_Alloc_construct_ptr<std::allocator<std::_List_node<std::pair<unsigned short const ,bool>,void *> > >
PUBLIC	??1?$_List_node_emplace_op2@V?$allocator@U?$_List_node@U?$pair@$$CBG_N@std@@PEAX@std@@@std@@@std@@QEAA@XZ ; std::_List_node_emplace_op2<std::allocator<std::_List_node<std::pair<unsigned short const ,bool>,void *> > >::~_List_node_emplace_op2<std::allocator<std::_List_node<std::pair<unsigned short const ,bool>,void *> > >
PUBLIC	??$?0AEBUpiecewise_construct_t@std@@V?$tuple@AEBG@1@V?$tuple@$$V@1@@?$_List_node_emplace_op2@V?$allocator@U?$_List_node@U?$pair@$$CBG_N@std@@PEAX@std@@@std@@@std@@QEAA@AEAV?$allocator@U?$_List_node@U?$pair@$$CBG_N@std@@PEAX@std@@@1@AEBUpiecewise_construct_t@1@$$QEAV?$tuple@AEBG@1@$$QEAV?$tuple@$$V@1@@Z ; std::_List_node_emplace_op2<std::allocator<std::_List_node<std::pair<unsigned short const ,bool>,void *> > >::_List_node_emplace_op2<std::allocator<std::_List_node<std::pair<unsigned short const ,bool>,void *> > ><std::piecewise_construct_t const &,std::tuple<unsigned short const &>,std::tuple<> >
PUBLIC	??$_Kfn@$$CBG_N@?$_Umap_traits@G_NV?$_Uhash_compare@GU?$hash@G@std@@U?$equal_to@G@2@@std@@V?$allocator@U?$pair@$$CBG_N@std@@@2@$0A@@std@@SAAEBGAEBU?$pair@$$CBG_N@1@@Z ; std::_Umap_traits<unsigned short,bool,std::_Uhash_compare<unsigned short,std::hash<unsigned short>,std::equal_to<unsigned short> >,std::allocator<std::pair<unsigned short const ,bool> >,0>::_Kfn<unsigned short const ,bool>
PUBLIC	??$?0AEAPEAU?$_List_node@U?$pair@$$CBG_N@std@@PEAX@std@@_N$0A@@?$pair@PEAU?$_List_node@U?$pair@$$CBG_N@std@@PEAX@std@@_N@std@@QEAA@AEAPEAU?$_List_node@U?$pair@$$CBG_N@std@@PEAX@1@$$QEA_N@Z ; std::pair<std::_List_node<std::pair<unsigned short const ,bool>,void *> *,bool>::pair<std::_List_node<std::pair<unsigned short const ,bool>,void *> *,bool><std::_List_node<std::pair<unsigned short const ,bool>,void *> * &,bool,0>
PUBLIC	??$?0PEAU?$_List_node@U?$pair@$$CBG_N@std@@PEAX@std@@_N$0A@@?$pair@PEAU?$_List_node@U?$pair@$$CBG_N@std@@PEAX@std@@_N@std@@QEAA@$$QEAPEAU?$_List_node@U?$pair@$$CBG_N@std@@PEAX@1@$$QEA_N@Z ; std::pair<std::_List_node<std::pair<unsigned short const ,bool>,void *> *,bool>::pair<std::_List_node<std::pair<unsigned short const ,bool>,void *> *,bool><std::_List_node<std::pair<unsigned short const ,bool>,void *> *,bool,0>
PUBLIC	??$forward@G@std@@YA$$QEAGAEAG@Z		; std::forward<unsigned short>
PUBLIC	??$forward_as_tuple@G@std@@YA?AV?$tuple@$$QEAG@0@$$QEAG@Z ; std::forward_as_tuple<unsigned short>
PUBLIC	??0?$tuple@$$QEAG@std@@QEAA@$$QEAV01@@Z		; std::tuple<unsigned short &&>::tuple<unsigned short &&>
PUBLIC	??$?0AEBUpiecewise_construct_t@std@@V?$tuple@$$QEAG@1@V?$tuple@$$V@1@@?$_List_node_emplace_op2@V?$allocator@U?$_List_node@U?$pair@$$CBG_N@std@@PEAX@std@@@std@@@std@@QEAA@AEAV?$allocator@U?$_List_node@U?$pair@$$CBG_N@std@@PEAX@std@@@1@AEBUpiecewise_construct_t@1@$$QEAV?$tuple@$$QEAG@1@$$QEAV?$tuple@$$V@1@@Z ; std::_List_node_emplace_op2<std::allocator<std::_List_node<std::pair<unsigned short const ,bool>,void *> > >::_List_node_emplace_op2<std::allocator<std::_List_node<std::pair<unsigned short const ,bool>,void *> > ><std::piecewise_construct_t const &,std::tuple<unsigned short &&>,std::tuple<> >
PUBLIC	??$_Allocate_manually_vector_aligned@U_Default_allocate_traits@std@@@std@@YAPEAX_K@Z ; std::_Allocate_manually_vector_aligned<std::_Default_allocate_traits>
PUBLIC	??$addressof@U?$pair@$$CBG_N@std@@@std@@YAPEAU?$pair@$$CBG_N@0@AEAU10@@Z ; std::addressof<std::pair<unsigned short const ,bool> >
PUBLIC	??$destroy@U?$pair@$$CBG_N@std@@@?$_Default_allocator_traits@V?$allocator@U?$_List_node@U?$pair@$$CBG_N@std@@PEAX@std@@@std@@@std@@SAXAEAV?$allocator@U?$_List_node@U?$pair@$$CBG_N@std@@PEAX@std@@@1@QEAU?$pair@$$CBG_N@1@@Z ; std::_Default_allocator_traits<std::allocator<std::_List_node<std::pair<unsigned short const ,bool>,void *> > >::destroy<std::pair<unsigned short const ,bool> >
PUBLIC	??$exchange@PEAU?$_List_node@U?$pair@$$CBG_N@std@@PEAX@std@@$$T@std@@YAPEAU?$_List_node@U?$pair@$$CBG_N@std@@PEAX@0@AEAPEAU10@$$QEA$$T@Z ; std::exchange<std::_List_node<std::pair<unsigned short const ,bool>,void *> *,std::nullptr_t>
PUBLIC	??$_Construct_in_place@PEAU?$_List_node@U?$pair@$$CBG_N@std@@PEAX@std@@AEBQEAU12@@std@@YAXAEAPEAU?$_List_node@U?$pair@$$CBG_N@std@@PEAX@0@AEBQEAU10@@Z ; std::_Construct_in_place<std::_List_node<std::pair<unsigned short const ,bool>,void *> *,std::_List_node<std::pair<unsigned short const ,bool>,void *> * const &>
PUBLIC	??0?$_List_unchecked_const_iterator@V?$_List_val@U?$_List_simple_types@U?$pair@$$CBG_N@std@@@std@@@std@@U_Iterator_base0@2@@std@@QEAA@PEAU?$_List_node@U?$pair@$$CBG_N@std@@PEAX@1@PEBV?$_List_val@U?$_List_simple_types@U?$pair@$$CBG_N@std@@@std@@@1@@Z ; std::_List_unchecked_const_iterator<std::_List_val<std::_List_simple_types<std::pair<unsigned short const ,bool> > >,std::_Iterator_base0>::_List_unchecked_const_iterator<std::_List_val<std::_List_simple_types<std::pair<unsigned short const ,bool> > >,std::_Iterator_base0>
PUBLIC	??D?$_List_unchecked_const_iterator@V?$_List_val@U?$_List_simple_types@U?$pair@$$CBG_N@std@@@std@@@std@@U_Iterator_base0@2@@std@@QEBAAEBU?$pair@$$CBG_N@1@XZ ; std::_List_unchecked_const_iterator<std::_List_val<std::_List_simple_types<std::pair<unsigned short const ,bool> > >,std::_Iterator_base0>::operator*
PUBLIC	??E?$_List_unchecked_const_iterator@V?$_List_val@U?$_List_simple_types@U?$pair@$$CBG_N@std@@@std@@@std@@U_Iterator_base0@2@@std@@QEAAAEAV01@XZ ; std::_List_unchecked_const_iterator<std::_List_val<std::_List_simple_types<std::pair<unsigned short const ,bool> > >,std::_Iterator_base0>::operator++
PUBLIC	??F?$_List_unchecked_const_iterator@V?$_List_val@U?$_List_simple_types@U?$pair@$$CBG_N@std@@@std@@@std@@U_Iterator_base0@2@@std@@QEAAAEAV01@XZ ; std::_List_unchecked_const_iterator<std::_List_val<std::_List_simple_types<std::pair<unsigned short const ,bool> > >,std::_Iterator_base0>::operator--
PUBLIC	??8?$_List_unchecked_const_iterator@V?$_List_val@U?$_List_simple_types@U?$pair@$$CBG_N@std@@@std@@@std@@U_Iterator_base0@2@@std@@QEBA_NAEBV01@@Z ; std::_List_unchecked_const_iterator<std::_List_val<std::_List_simple_types<std::pair<unsigned short const ,bool> > >,std::_Iterator_base0>::operator==
PUBLIC	??D?$_List_unchecked_iterator@V?$_List_val@U?$_List_simple_types@U?$pair@$$CBG_N@std@@@std@@@std@@@std@@QEBAAEAU?$pair@$$CBG_N@1@XZ ; std::_List_unchecked_iterator<std::_List_val<std::_List_simple_types<std::pair<unsigned short const ,bool> > > >::operator*
PUBLIC	??E?$_List_unchecked_iterator@V?$_List_val@U?$_List_simple_types@U?$pair@$$CBG_N@std@@@std@@@std@@@std@@QEAAAEAV01@XZ ; std::_List_unchecked_iterator<std::_List_val<std::_List_simple_types<std::pair<unsigned short const ,bool> > > >::operator++
PUBLIC	??0?$_List_unchecked_iterator@V?$_List_val@U?$_List_simple_types@U?$pair@$$CBG_N@std@@@std@@@std@@@std@@QEAA@PEAU?$_List_node@U?$pair@$$CBG_N@std@@PEAX@1@PEBV?$_List_val@U?$_List_simple_types@U?$pair@$$CBG_N@std@@@std@@@1@@Z ; std::_List_unchecked_iterator<std::_List_val<std::_List_simple_types<std::pair<unsigned short const ,bool> > > >::_List_unchecked_iterator<std::_List_val<std::_List_simple_types<std::pair<unsigned short const ,bool> > > >
PUBLIC	??0_Clear_guard@?$_Hash@V?$_Umap_traits@G_NV?$_Uhash_compare@GU?$hash@G@std@@U?$equal_to@G@2@@std@@V?$allocator@U?$pair@$$CBG_N@std@@@2@$0A@@std@@@std@@QEAA@QEAV12@@Z ; std::_Hash<std::_Umap_traits<unsigned short,bool,std::_Uhash_compare<unsigned short,std::hash<unsigned short>,std::equal_to<unsigned short> >,std::allocator<std::pair<unsigned short const ,bool> >,0> >::_Clear_guard::_Clear_guard
PUBLIC	??1_Clear_guard@?$_Hash@V?$_Umap_traits@G_NV?$_Uhash_compare@GU?$hash@G@std@@U?$equal_to@G@2@@std@@V?$allocator@U?$pair@$$CBG_N@std@@@2@$0A@@std@@@std@@QEAA@XZ ; std::_Hash<std::_Umap_traits<unsigned short,bool,std::_Uhash_compare<unsigned short,std::hash<unsigned short>,std::equal_to<unsigned short> >,std::allocator<std::pair<unsigned short const ,bool> >,0> >::_Clear_guard::~_Clear_guard
PUBLIC	??$?RGG@?$_Uhash_compare@GU?$hash@G@std@@U?$equal_to@G@2@@std@@QEBA_NAEBG0@Z ; std::_Uhash_compare<unsigned short,std::hash<unsigned short>,std::equal_to<unsigned short> >::operator()<unsigned short,unsigned short>
PUBLIC	??$_Destroy_range@PEAV?$_List_unchecked_iterator@V?$_List_val@U?$_List_simple_types@U?$pair@$$CBG_N@std@@@std@@@std@@@std@@PEAV12@@std@@YAXPEAV?$_List_unchecked_iterator@V?$_List_val@U?$_List_simple_types@U?$pair@$$CBG_N@std@@@std@@@std@@@0@QEAV10@@Z ; std::_Destroy_range<std::_List_unchecked_iterator<std::_List_val<std::_List_simple_types<std::pair<unsigned short const ,bool> > > > *,std::_List_unchecked_iterator<std::_List_val<std::_List_simple_types<std::pair<unsigned short const ,bool> > > > *>
PUBLIC	??$uninitialized_fill@PEAV?$_List_unchecked_iterator@V?$_List_val@U?$_List_simple_types@U?$pair@$$CBG_N@std@@@std@@@std@@@std@@V12@@std@@YAXQEAV?$_List_unchecked_iterator@V?$_List_val@U?$_List_simple_types@U?$pair@$$CBG_N@std@@@std@@@std@@@0@0AEBV10@@Z ; std::uninitialized_fill<std::_List_unchecked_iterator<std::_List_val<std::_List_simple_types<std::pair<unsigned short const ,bool> > > > *,std::_List_unchecked_iterator<std::_List_val<std::_List_simple_types<std::pair<unsigned short const ,bool> > > > >
PUBLIC	??$fill@PEAV?$_List_unchecked_iterator@V?$_List_val@U?$_List_simple_types@U?$pair@$$CBG_N@std@@@std@@@std@@@std@@V12@@std@@YAXQEAV?$_List_unchecked_iterator@V?$_List_val@U?$_List_simple_types@U?$pair@$$CBG_N@std@@@std@@@std@@@0@0AEBV10@@Z ; std::fill<std::_List_unchecked_iterator<std::_List_val<std::_List_simple_types<std::pair<unsigned short const ,bool> > > > *,std::_List_unchecked_iterator<std::_List_val<std::_List_simple_types<std::pair<unsigned short const ,bool> > > > >
PUBLIC	??$_Get_size_of_n@$07@std@@YA_K_K@Z		; std::_Get_size_of_n<8>
PUBLIC	??0_Range_eraser@?$_Hash@V?$_Umap_traits@G_NV?$_Uhash_compare@GU?$hash@G@std@@U?$equal_to@G@2@@std@@V?$allocator@U?$pair@$$CBG_N@std@@@2@$0A@@std@@@std@@QEAA@AEAV?$list@U?$pair@$$CBG_N@std@@V?$allocator@U?$pair@$$CBG_N@std@@@2@@2@QEAU?$_List_node@U?$pair@$$CBG_N@std@@PEAX@2@@Z ; std::_Hash<std::_Umap_traits<unsigned short,bool,std::_Uhash_compare<unsigned short,std::hash<unsigned short>,std::equal_to<unsigned short> >,std::allocator<std::pair<unsigned short const ,bool> >,0> >::_Range_eraser::_Range_eraser
PUBLIC	?_Bump_erased@_Range_eraser@?$_Hash@V?$_Umap_traits@G_NV?$_Uhash_compare@GU?$hash@G@std@@U?$equal_to@G@2@@std@@V?$allocator@U?$pair@$$CBG_N@std@@@2@$0A@@std@@@std@@QEAAXXZ ; std::_Hash<std::_Umap_traits<unsigned short,bool,std::_Uhash_compare<unsigned short,std::hash<unsigned short>,std::equal_to<unsigned short> >,std::allocator<std::pair<unsigned short const ,bool> >,0> >::_Range_eraser::_Bump_erased
PUBLIC	??1_Range_eraser@?$_Hash@V?$_Umap_traits@G_NV?$_Uhash_compare@GU?$hash@G@std@@U?$equal_to@G@2@@std@@V?$allocator@U?$pair@$$CBG_N@std@@@2@$0A@@std@@@std@@QEAA@XZ ; std::_Hash<std::_Umap_traits<unsigned short,bool,std::_Uhash_compare<unsigned short,std::hash<unsigned short>,std::equal_to<unsigned short> >,std::allocator<std::pair<unsigned short const ,bool> >,0> >::_Range_eraser::~_Range_eraser
PUBLIC	??$_Free_non_head@V?$allocator@U?$_List_node@U?$pair@$$CBG_N@std@@PEAX@std@@@std@@@?$_List_node@U?$pair@$$CBG_N@std@@PEAX@std@@SAXAEAV?$allocator@U?$_List_node@U?$pair@$$CBG_N@std@@PEAX@std@@@1@PEAU01@@Z ; std::_List_node<std::pair<unsigned short const ,bool>,void *>::_Free_non_head<std::allocator<std::_List_node<std::pair<unsigned short const ,bool>,void *> > >
PUBLIC	??$_Freenode@V?$allocator@U?$_List_node@U?$pair@$$CBG_N@std@@PEAX@std@@@std@@@?$_List_node@U?$pair@$$CBG_N@std@@PEAX@std@@SAXAEAV?$allocator@U?$_List_node@U?$pair@$$CBG_N@std@@PEAX@std@@@1@PEAU01@@Z ; std::_List_node<std::pair<unsigned short const ,bool>,void *>::_Freenode<std::allocator<std::_List_node<std::pair<unsigned short const ,bool>,void *> > >
PUBLIC	??$?0AEBG$0A@@?$tuple@AEBG@std@@QEAA@AEBG@Z	; std::tuple<unsigned short const &>::tuple<unsigned short const &><unsigned short const &,0>
PUBLIC	??$forward@AEBUpiecewise_construct_t@std@@@std@@YAAEBUpiecewise_construct_t@0@AEBU10@@Z ; std::forward<std::piecewise_construct_t const &>
PUBLIC	??$forward@V?$tuple@AEBG@std@@@std@@YA$$QEAV?$tuple@AEBG@0@AEAV10@@Z ; std::forward<std::tuple<unsigned short const &> >
PUBLIC	??$forward@V?$tuple@$$V@std@@@std@@YA$$QEAV?$tuple@$$V@0@AEAV10@@Z ; std::forward<std::tuple<> >
PUBLIC	??$construct@U?$pair@$$CBG_N@std@@AEBUpiecewise_construct_t@2@V?$tuple@AEBG@2@V?$tuple@$$V@2@@?$_Default_allocator_traits@V?$allocator@U?$_List_node@U?$pair@$$CBG_N@std@@PEAX@std@@@std@@@std@@SAXAEAV?$allocator@U?$_List_node@U?$pair@$$CBG_N@std@@PEAX@std@@@1@QEAU?$pair@$$CBG_N@1@AEBUpiecewise_construct_t@1@$$QEAV?$tuple@AEBG@1@$$QEAV?$tuple@$$V@1@@Z ; std::_Default_allocator_traits<std::allocator<std::_List_node<std::pair<unsigned short const ,bool>,void *> > >::construct<std::pair<unsigned short const ,bool>,std::piecewise_construct_t const &,std::tuple<unsigned short const &>,std::tuple<> >
PUBLIC	??$forward@AEAPEAU?$_List_node@U?$pair@$$CBG_N@std@@PEAX@std@@@std@@YAAEAPEAU?$_List_node@U?$pair@$$CBG_N@std@@PEAX@0@AEAPEAU10@@Z ; std::forward<std::_List_node<std::pair<unsigned short const ,bool>,void *> * &>
PUBLIC	??$forward@_N@std@@YA$$QEA_NAEA_N@Z		; std::forward<bool>
PUBLIC	??$forward@PEAU?$_List_node@U?$pair@$$CBG_N@std@@PEAX@std@@@std@@YA$$QEAPEAU?$_List_node@U?$pair@$$CBG_N@std@@PEAX@0@AEAPEAU10@@Z ; std::forward<std::_List_node<std::pair<unsigned short const ,bool>,void *> *>
PUBLIC	??$?0G$$V$0A@@?$tuple@$$QEAG@std@@QEAA@$$QEAG@Z	; std::tuple<unsigned short &&>::tuple<unsigned short &&><unsigned short,0>
PUBLIC	??$forward@V?$tuple@$$QEAG@std@@@std@@YA$$QEAV?$tuple@$$QEAG@0@AEAV10@@Z ; std::forward<std::tuple<unsigned short &&> >
PUBLIC	??$construct@U?$pair@$$CBG_N@std@@AEBUpiecewise_construct_t@2@V?$tuple@$$QEAG@2@V?$tuple@$$V@2@@?$_Default_allocator_traits@V?$allocator@U?$_List_node@U?$pair@$$CBG_N@std@@PEAX@std@@@std@@@std@@SAXAEAV?$allocator@U?$_List_node@U?$pair@$$CBG_N@std@@PEAX@std@@@1@QEAU?$pair@$$CBG_N@1@AEBUpiecewise_construct_t@1@$$QEAV?$tuple@$$QEAG@1@$$QEAV?$tuple@$$V@1@@Z ; std::_Default_allocator_traits<std::allocator<std::_List_node<std::pair<unsigned short const ,bool>,void *> > >::construct<std::pair<unsigned short const ,bool>,std::piecewise_construct_t const &,std::tuple<unsigned short &&>,std::tuple<> >
PUBLIC	??$destroy_at@U?$pair@$$CBG_N@std@@@std@@YAXQEAU?$pair@$$CBG_N@0@@Z ; std::destroy_at<std::pair<unsigned short const ,bool> >
PUBLIC	??$addressof@PEAU?$_List_node@U?$pair@$$CBG_N@std@@PEAX@std@@@std@@YAPEAPEAU?$_List_node@U?$pair@$$CBG_N@std@@PEAX@0@AEAPEAU10@@Z ; std::addressof<std::_List_node<std::pair<unsigned short const ,bool>,void *> *>
PUBLIC	??$forward@AEBQEAU?$_List_node@U?$pair@$$CBG_N@std@@PEAX@std@@@std@@YAAEBQEAU?$_List_node@U?$pair@$$CBG_N@std@@PEAX@0@AEBQEAU10@@Z ; std::forward<std::_List_node<std::pair<unsigned short const ,bool>,void *> * const &>
PUBLIC	??$construct_at@PEAU?$_List_node@U?$pair@$$CBG_N@std@@PEAX@std@@AEBQEAU12@X@std@@YAPEAPEAU?$_List_node@U?$pair@$$CBG_N@std@@PEAX@0@QEAPEAU10@AEBQEAU10@@Z ; std::construct_at<std::_List_node<std::pair<unsigned short const ,bool>,void *> *,std::_List_node<std::pair<unsigned short const ,bool>,void *> * const &,void>
PUBLIC	??$_Voidify_iter@PEAPEAU?$_List_node@U?$pair@$$CBG_N@std@@PEAX@std@@@std@@YAPEAXPEAPEAU?$_List_node@U?$pair@$$CBG_N@std@@PEAX@0@@Z ; std::_Voidify_iter<std::_List_node<std::pair<unsigned short const ,bool>,void *> * *>
PUBLIC	??$_Adl_verify_range@PEAV?$_List_unchecked_iterator@V?$_List_val@U?$_List_simple_types@U?$pair@$$CBG_N@std@@@std@@@std@@@std@@PEAV12@@std@@YAXAEBQEAV?$_List_unchecked_iterator@V?$_List_val@U?$_List_simple_types@U?$pair@$$CBG_N@std@@@std@@@std@@@0@0@Z ; std::_Adl_verify_range<std::_List_unchecked_iterator<std::_List_val<std::_List_simple_types<std::pair<unsigned short const ,bool> > > > *,std::_List_unchecked_iterator<std::_List_val<std::_List_simple_types<std::pair<unsigned short const ,bool> > > > *>
PUBLIC	??$_Get_unwrapped@AEBQEAV?$_List_unchecked_iterator@V?$_List_val@U?$_List_simple_types@U?$pair@$$CBG_N@std@@@std@@@std@@@std@@@std@@YA?A_TAEBQEAV?$_List_unchecked_iterator@V?$_List_val@U?$_List_simple_types@U?$pair@$$CBG_N@std@@@std@@@std@@@0@@Z ; std::_Get_unwrapped<std::_List_unchecked_iterator<std::_List_val<std::_List_simple_types<std::pair<unsigned short const ,bool> > > > * const &>
PUBLIC	??0?$_Uninitialized_backout@PEAV?$_List_unchecked_iterator@V?$_List_val@U?$_List_simple_types@U?$pair@$$CBG_N@std@@@std@@@std@@@std@@@std@@QEAA@PEAV?$_List_unchecked_iterator@V?$_List_val@U?$_List_simple_types@U?$pair@$$CBG_N@std@@@std@@@std@@@1@@Z ; std::_Uninitialized_backout<std::_List_unchecked_iterator<std::_List_val<std::_List_simple_types<std::pair<unsigned short const ,bool> > > > *>::_Uninitialized_backout<std::_List_unchecked_iterator<std::_List_val<std::_List_simple_types<std::pair<unsigned short const ,bool> > > > *>
PUBLIC	??1?$_Uninitialized_backout@PEAV?$_List_unchecked_iterator@V?$_List_val@U?$_List_simple_types@U?$pair@$$CBG_N@std@@@std@@@std@@@std@@@std@@QEAA@XZ ; std::_Uninitialized_backout<std::_List_unchecked_iterator<std::_List_val<std::_List_simple_types<std::pair<unsigned short const ,bool> > > > *>::~_Uninitialized_backout<std::_List_unchecked_iterator<std::_List_val<std::_List_simple_types<std::pair<unsigned short const ,bool> > > > *>
PUBLIC	?_Release@?$_Uninitialized_backout@PEAV?$_List_unchecked_iterator@V?$_List_val@U?$_List_simple_types@U?$pair@$$CBG_N@std@@@std@@@std@@@std@@@std@@QEAAPEAV?$_List_unchecked_iterator@V?$_List_val@U?$_List_simple_types@U?$pair@$$CBG_N@std@@@std@@@std@@@2@XZ ; std::_Uninitialized_backout<std::_List_unchecked_iterator<std::_List_val<std::_List_simple_types<std::pair<unsigned short const ,bool> > > > *>::_Release
PUBLIC	??$_Emplace_back@AEBV?$_List_unchecked_iterator@V?$_List_val@U?$_List_simple_types@U?$pair@$$CBG_N@std@@@std@@@std@@@std@@@?$_Uninitialized_backout@PEAV?$_List_unchecked_iterator@V?$_List_val@U?$_List_simple_types@U?$pair@$$CBG_N@std@@@std@@@std@@@std@@@std@@QEAAXAEBV?$_List_unchecked_iterator@V?$_List_val@U?$_List_simple_types@U?$pair@$$CBG_N@std@@@std@@@std@@@1@@Z ; std::_Uninitialized_backout<std::_List_unchecked_iterator<std::_List_val<std::_List_simple_types<std::pair<unsigned short const ,bool> > > > *>::_Emplace_back<std::_List_unchecked_iterator<std::_List_val<std::_List_simple_types<std::pair<unsigned short const ,bool> > > > const &>
PUBLIC	??$_Freenode0@V?$allocator@U?$_List_node@U?$pair@$$CBG_N@std@@PEAX@std@@@std@@@?$_List_node@U?$pair@$$CBG_N@std@@PEAX@std@@SAXAEAV?$allocator@U?$_List_node@U?$pair@$$CBG_N@std@@PEAX@std@@@1@PEAU01@@Z ; std::_List_node<std::pair<unsigned short const ,bool>,void *>::_Freenode0<std::allocator<std::_List_node<std::pair<unsigned short const ,bool>,void *> > >
PUBLIC	??$_Get_size_of_n@$0BI@@std@@YA_K_K@Z		; std::_Get_size_of_n<24>
PUBLIC	??$_Hash_representation@G@std@@YA_KAEBG@Z	; std::_Hash_representation<unsigned short>
PUBLIC	??$?0U_Exact_args_t@std@@AEBG$$V$0A@@?$tuple@AEBG@std@@QEAA@U_Exact_args_t@1@AEBG@Z ; std::tuple<unsigned short const &>::tuple<unsigned short const &><std::_Exact_args_t,unsigned short const &,0>
PUBLIC	??$?0AEBG$$Z$$V@?$pair@$$CBG_N@std@@QEAA@Upiecewise_construct_t@1@V?$tuple@AEBG@1@V?$tuple@$$V@1@@Z ; std::pair<unsigned short const ,bool>::pair<unsigned short const ,bool><unsigned short const &>
PUBLIC	??$construct_at@U?$pair@$$CBG_N@std@@AEBUpiecewise_construct_t@2@V?$tuple@AEBG@2@V?$tuple@$$V@2@X@std@@YAPEAU?$pair@$$CBG_N@0@QEAU10@AEBUpiecewise_construct_t@0@$$QEAV?$tuple@AEBG@0@$$QEAV?$tuple@$$V@0@@Z ; std::construct_at<std::pair<unsigned short const ,bool>,std::piecewise_construct_t const &,std::tuple<unsigned short const &>,std::tuple<>,void>
PUBLIC	??$_Voidify_iter@PEAU?$pair@$$CBG_N@std@@@std@@YAPEAXPEAU?$pair@$$CBG_N@0@@Z ; std::_Voidify_iter<std::pair<unsigned short const ,bool> *>
PUBLIC	??$?0U_Exact_args_t@std@@G$$V$0A@@?$tuple@$$QEAG@std@@QEAA@U_Exact_args_t@1@$$QEAG@Z ; std::tuple<unsigned short &&>::tuple<unsigned short &&><std::_Exact_args_t,unsigned short,0>
PUBLIC	??$?0$$QEAG$$Z$$V@?$pair@$$CBG_N@std@@QEAA@Upiecewise_construct_t@1@V?$tuple@$$QEAG@1@V?$tuple@$$V@1@@Z ; std::pair<unsigned short const ,bool>::pair<unsigned short const ,bool><unsigned short &&>
PUBLIC	??$construct_at@U?$pair@$$CBG_N@std@@AEBUpiecewise_construct_t@2@V?$tuple@$$QEAG@2@V?$tuple@$$V@2@X@std@@YAPEAU?$pair@$$CBG_N@0@QEAU10@AEBUpiecewise_construct_t@0@$$QEAV?$tuple@$$QEAG@0@$$QEAV?$tuple@$$V@0@@Z ; std::construct_at<std::pair<unsigned short const ,bool>,std::piecewise_construct_t const &,std::tuple<unsigned short &&>,std::tuple<>,void>
PUBLIC	??$forward@AEBV?$_List_unchecked_iterator@V?$_List_val@U?$_List_simple_types@U?$pair@$$CBG_N@std@@@std@@@std@@@std@@@std@@YAAEBV?$_List_unchecked_iterator@V?$_List_val@U?$_List_simple_types@U?$pair@$$CBG_N@std@@@std@@@std@@@0@AEBV10@@Z ; std::forward<std::_List_unchecked_iterator<std::_List_val<std::_List_simple_types<std::pair<unsigned short const ,bool> > > > const &>
PUBLIC	??$_Construct_in_place@V?$_List_unchecked_iterator@V?$_List_val@U?$_List_simple_types@U?$pair@$$CBG_N@std@@@std@@@std@@@std@@AEBV12@@std@@YAXAEAV?$_List_unchecked_iterator@V?$_List_val@U?$_List_simple_types@U?$pair@$$CBG_N@std@@@std@@@std@@@0@AEBV10@@Z ; std::_Construct_in_place<std::_List_unchecked_iterator<std::_List_val<std::_List_simple_types<std::pair<unsigned short const ,bool> > > >,std::_List_unchecked_iterator<std::_List_val<std::_List_simple_types<std::pair<unsigned short const ,bool> > > > const &>
PUBLIC	??$_Destroy_in_place@PEAU?$_List_node@U?$pair@$$CBG_N@std@@PEAX@std@@@std@@YAXAEAPEAU?$_List_node@U?$pair@$$CBG_N@std@@PEAX@0@@Z ; std::_Destroy_in_place<std::_List_node<std::pair<unsigned short const ,bool>,void *> *>
PUBLIC	??$_Fnv1a_append_value@G@std@@YA_K_KAEBG@Z	; std::_Fnv1a_append_value<unsigned short>
PUBLIC	??$?0U_Exact_args_t@std@@$0A@@?$tuple@$$V@std@@QEAA@U_Exact_args_t@1@@Z ; std::tuple<>::tuple<><std::_Exact_args_t,0>
PUBLIC	??$?0AEBG@?$_Tuple_val@AEBG@std@@QEAA@AEBG@Z	; std::_Tuple_val<unsigned short const &>::_Tuple_val<unsigned short const &><unsigned short const &>
PUBLIC	??$?0V?$tuple@AEBG@std@@V?$tuple@$$V@1@$0A@$$Z$S@?$pair@$$CBG_N@std@@QEAA@AEAV?$tuple@AEBG@1@AEAV?$tuple@$$V@1@U?$integer_sequence@_K$0A@@1@U?$integer_sequence@_K$S@1@@Z ; std::pair<unsigned short const ,bool>::pair<unsigned short const ,bool><std::tuple<unsigned short const &>,std::tuple<>,0>
PUBLIC	??$?0G@?$_Tuple_val@$$QEAG@std@@QEAA@$$QEAG@Z	; std::_Tuple_val<unsigned short &&>::_Tuple_val<unsigned short &&><unsigned short>
PUBLIC	??$?0V?$tuple@$$QEAG@std@@V?$tuple@$$V@1@$0A@$$Z$S@?$pair@$$CBG_N@std@@QEAA@AEAV?$tuple@$$QEAG@1@AEAV?$tuple@$$V@1@U?$integer_sequence@_K$0A@@1@U?$integer_sequence@_K$S@1@@Z ; std::pair<unsigned short const ,bool>::pair<unsigned short const ,bool><std::tuple<unsigned short &&>,std::tuple<>,0>
PUBLIC	??$addressof@V?$_List_unchecked_iterator@V?$_List_val@U?$_List_simple_types@U?$pair@$$CBG_N@std@@@std@@@std@@@std@@@std@@YAPEAV?$_List_unchecked_iterator@V?$_List_val@U?$_List_simple_types@U?$pair@$$CBG_N@std@@@std@@@std@@@0@AEAV10@@Z ; std::addressof<std::_List_unchecked_iterator<std::_List_val<std::_List_simple_types<std::pair<unsigned short const ,bool> > > > >
PUBLIC	??$construct_at@V?$_List_unchecked_iterator@V?$_List_val@U?$_List_simple_types@U?$pair@$$CBG_N@std@@@std@@@std@@@std@@AEBV12@X@std@@YAPEAV?$_List_unchecked_iterator@V?$_List_val@U?$_List_simple_types@U?$pair@$$CBG_N@std@@@std@@@std@@@0@QEAV10@AEBV10@@Z ; std::construct_at<std::_List_unchecked_iterator<std::_List_val<std::_List_simple_types<std::pair<unsigned short const ,bool> > > >,std::_List_unchecked_iterator<std::_List_val<std::_List_simple_types<std::pair<unsigned short const ,bool> > > > const &,void>
PUBLIC	??$_Voidify_iter@PEAV?$_List_unchecked_iterator@V?$_List_val@U?$_List_simple_types@U?$pair@$$CBG_N@std@@@std@@@std@@@std@@@std@@YAPEAXPEAV?$_List_unchecked_iterator@V?$_List_val@U?$_List_simple_types@U?$pair@$$CBG_N@std@@@std@@@std@@@0@@Z ; std::_Voidify_iter<std::_List_unchecked_iterator<std::_List_val<std::_List_simple_types<std::pair<unsigned short const ,bool> > > > *>
PUBLIC	??$move@AEAV?$tuple@AEBG@std@@@std@@YA$$QEAV?$tuple@AEBG@0@AEAV10@@Z ; std::move<std::tuple<unsigned short const &> &>
PUBLIC	??$_Tuple_get@$0A@AEBG@std@@YA$$QEA_P$$QEAV?$tuple@AEBG@0@@Z ; std::_Tuple_get<0,unsigned short const &>
PUBLIC	??$move@AEAV?$tuple@$$QEAG@std@@@std@@YA$$QEAV?$tuple@$$QEAG@0@AEAV10@@Z ; std::move<std::tuple<unsigned short &&> &>
PUBLIC	??$_Tuple_get@$0A@$$QEAG@std@@YA$$QEA_P$$QEAV?$tuple@$$QEAG@0@@Z ; std::_Tuple_get<0,unsigned short &&>
PUBLIC	?piecewise_construct@std@@3Upiecewise_construct_t@1@B ; std::piecewise_construct
PUBLIC	??_7exception@std@@6B@				; std::exception::`vftable'
PUBLIC	??_C@_0BC@EOODALEL@Unknown?5exception@		; `string'
PUBLIC	??_7bad_alloc@std@@6B@				; std::bad_alloc::`vftable'
PUBLIC	??_7bad_array_new_length@std@@6B@		; std::bad_array_new_length::`vftable'
PUBLIC	??_C@_0BF@KINCDENJ@bad?5array?5new?5length@	; `string'
PUBLIC	_TI3?AVbad_array_new_length@std@@
PUBLIC	_CTA3?AVbad_array_new_length@std@@
PUBLIC	??_R0?AVbad_array_new_length@std@@@8		; std::bad_array_new_length `RTTI Type Descriptor'
PUBLIC	_CT??_R0?AVbad_array_new_length@std@@@8??0bad_array_new_length@std@@QEAA@AEBV01@@Z24
PUBLIC	??_R0?AVbad_alloc@std@@@8			; std::bad_alloc `RTTI Type Descriptor'
PUBLIC	_CT??_R0?AVbad_alloc@std@@@8??0bad_alloc@std@@QEAA@AEBV01@@Z24
PUBLIC	??_R0?AVexception@std@@@8			; std::exception `RTTI Type Descriptor'
PUBLIC	_CT??_R0?AVexception@std@@@8??0exception@std@@QEAA@AEBV01@@Z24
PUBLIC	?_Min_buckets@?$_Hash@V?$_Umap_traits@G_NV?$_Uhash_compare@GU?$hash@G@std@@U?$equal_to@G@2@@std@@V?$allocator@U?$pair@$$CBG_N@std@@@2@$0A@@std@@@std@@2_KB ; std::_Hash<std::_Umap_traits<unsigned short,bool,std::_Uhash_compare<unsigned short,std::hash<unsigned short>,std::equal_to<unsigned short> >,std::allocator<std::pair<unsigned short const ,bool> >,0> >::_Min_buckets
PUBLIC	??_C@_0BL@GOIGLPKN@unordered_map?1set?5too?5long@ ; `string'
PUBLIC	??_C@_0BK@OGNNAFAB@invalid?5hash?5bucket?5count@ ; `string'
PUBLIC	??_R4exception@std@@6B@				; std::exception::`RTTI Complete Object Locator'
PUBLIC	??_R3exception@std@@8				; std::exception::`RTTI Class Hierarchy Descriptor'
PUBLIC	??_R2exception@std@@8				; std::exception::`RTTI Base Class Array'
PUBLIC	??_R1A@?0A@EA@exception@std@@8			; std::exception::`RTTI Base Class Descriptor at (0,-1,0,64)'
PUBLIC	??_R4bad_alloc@std@@6B@				; std::bad_alloc::`RTTI Complete Object Locator'
PUBLIC	??_R3bad_alloc@std@@8				; std::bad_alloc::`RTTI Class Hierarchy Descriptor'
PUBLIC	??_R2bad_alloc@std@@8				; std::bad_alloc::`RTTI Base Class Array'
PUBLIC	??_R1A@?0A@EA@bad_alloc@std@@8			; std::bad_alloc::`RTTI Base Class Descriptor at (0,-1,0,64)'
PUBLIC	??_R4bad_array_new_length@std@@6B@		; std::bad_array_new_length::`RTTI Complete Object Locator'
PUBLIC	??_R3bad_array_new_length@std@@8		; std::bad_array_new_length::`RTTI Class Hierarchy Descriptor'
PUBLIC	??_R2bad_array_new_length@std@@8		; std::bad_array_new_length::`RTTI Base Class Array'
PUBLIC	??_R1A@?0A@EA@bad_array_new_length@std@@8	; std::bad_array_new_length::`RTTI Base Class Descriptor at (0,-1,0,64)'
PUBLIC	__real@5f000000
EXTRN	??2@YAPEAX_K@Z:PROC				; operator new
EXTRN	??3@YAXPEAX@Z:PROC				; operator delete
EXTRN	??3@YAXPEAX_K@Z:PROC				; operator delete
EXTRN	_invalid_parameter_noinfo_noreturn:PROC
EXTRN	ceilf:PROC
EXTRN	?_Xlength_error@std@@YAXPEBD@Z:PROC		; std::_Xlength_error
EXTRN	__std_exception_copy:PROC
EXTRN	__std_exception_destroy:PROC
EXTRN	??_Eexception@std@@UEAAPEAXI@Z:PROC		; std::exception::`vector deleting destructor'
EXTRN	??_Ebad_alloc@std@@UEAAPEAXI@Z:PROC		; std::bad_alloc::`vector deleting destructor'
EXTRN	??_Ebad_array_new_length@std@@UEAAPEAXI@Z:PROC	; std::bad_array_new_length::`vector deleting destructor'
EXTRN	_CxxThrowException:PROC
EXTRN	__CxxFrameHandler4:PROC
EXTRN	??_7type_info@@6B@:BYTE				; type_info::`vftable'
EXTRN	__ImageBase:BYTE
EXTRN	_fltused:DWORD
;	COMDAT pdata
pdata	SEGMENT
$pdata$?_Fnv1a_append_bytes@std@@YA_K_KQEBE_K@Z DD imagerel $LN6
	DD	imagerel $LN6+124
	DD	imagerel $unwind$?_Fnv1a_append_bytes@std@@YA_K_KQEBE_K@Z
pdata	ENDS
;	COMDAT pdata
pdata	SEGMENT
$pdata$??0exception@std@@QEAA@QEBDH@Z DD imagerel $LN3
	DD	imagerel $LN3+73
	DD	imagerel $unwind$??0exception@std@@QEAA@QEBDH@Z
pdata	ENDS
;	COMDAT pdata
pdata	SEGMENT
$pdata$??0exception@std@@QEAA@AEBV01@@Z DD imagerel $LN3
	DD	imagerel $LN3+88
	DD	imagerel $unwind$??0exception@std@@QEAA@AEBV01@@Z
pdata	ENDS
;	COMDAT pdata
pdata	SEGMENT
$pdata$??1exception@std@@UEAA@XZ DD imagerel $LN3
	DD	imagerel $LN3+46
	DD	imagerel $unwind$??1exception@std@@UEAA@XZ
pdata	ENDS
;	COMDAT pdata
pdata	SEGMENT
$pdata$?what@exception@std@@UEBAPEBDXZ DD imagerel $LN5
	DD	imagerel $LN5+56
	DD	imagerel $unwind$?what@exception@std@@UEBAPEBDXZ
pdata	ENDS
;	COMDAT pdata
pdata	SEGMENT
$pdata$??_Gexception@std@@UEAAPEAXI@Z DD imagerel $LN4
	DD	imagerel $LN4+59
	DD	imagerel $unwind$??_Gexception@std@@UEAAPEAXI@Z
pdata	ENDS
;	COMDAT pdata
pdata	SEGMENT
$pdata$??0bad_alloc@std@@AEAA@QEBD@Z DD imagerel $LN3
	DD	imagerel $LN3+60
	DD	imagerel $unwind$??0bad_alloc@std@@AEAA@QEBD@Z
pdata	ENDS
;	COMDAT pdata
pdata	SEGMENT
$pdata$??1bad_alloc@std@@UEAA@XZ DD imagerel $LN3
	DD	imagerel $LN3+24
	DD	imagerel $unwind$??1bad_alloc@std@@UEAA@XZ
pdata	ENDS
;	COMDAT pdata
pdata	SEGMENT
$pdata$??0bad_alloc@std@@QEAA@AEBV01@@Z DD imagerel $LN3
	DD	imagerel $LN3+54
	DD	imagerel $unwind$??0bad_alloc@std@@QEAA@AEBV01@@Z
pdata	ENDS
;	COMDAT pdata
pdata	SEGMENT
$pdata$??_Gbad_alloc@std@@UEAAPEAXI@Z DD imagerel $LN4
	DD	imagerel $LN4+59
	DD	imagerel $unwind$??_Gbad_alloc@std@@UEAAPEAXI@Z
pdata	ENDS
;	COMDAT pdata
pdata	SEGMENT
$pdata$??0bad_array_new_length@std@@QEAA@XZ DD imagerel $LN3
	DD	imagerel $LN3+51
	DD	imagerel $unwind$??0bad_array_new_length@std@@QEAA@XZ
pdata	ENDS
;	COMDAT pdata
pdata	SEGMENT
$pdata$??1bad_array_new_length@std@@UEAA@XZ DD imagerel $LN3
	DD	imagerel $LN3+24
	DD	imagerel $unwind$??1bad_array_new_length@std@@UEAA@XZ
pdata	ENDS
;	COMDAT pdata
pdata	SEGMENT
$pdata$??0bad_array_new_length@std@@QEAA@AEBV01@@Z DD imagerel $LN3
	DD	imagerel $LN3+54
	DD	imagerel $unwind$??0bad_array_new_length@std@@QEAA@AEBV01@@Z
pdata	ENDS
;	COMDAT pdata
pdata	SEGMENT
$pdata$??_Gbad_array_new_length@std@@UEAAPEAXI@Z DD imagerel $LN4
	DD	imagerel $LN4+59
	DD	imagerel $unwind$??_Gbad_array_new_length@std@@UEAAPEAXI@Z
pdata	ENDS
;	COMDAT pdata
pdata	SEGMENT
$pdata$?_Throw_bad_array_new_length@std@@YAXXZ DD imagerel $LN3
	DD	imagerel $LN3+36
	DD	imagerel $unwind$?_Throw_bad_array_new_length@std@@YAXXZ
pdata	ENDS
;	COMDAT pdata
pdata	SEGMENT
$pdata$?_Allocate@_Default_allocate_traits@std@@SAPEAX_K@Z DD imagerel $LN3
	DD	imagerel $LN3+24
	DD	imagerel $unwind$?_Allocate@_Default_allocate_traits@std@@SAPEAX_K@Z
pdata	ENDS
;	COMDAT pdata
pdata	SEGMENT
$pdata$?_Adjust_manually_vector_aligned@std@@YAXAEAPEAXAEA_K@Z DD imagerel $LN11
	DD	imagerel $LN11+153
	DD	imagerel $unwind$?_Adjust_manually_vector_aligned@std@@YAXAEAPEAXAEA_K@Z
pdata	ENDS
;	COMDAT pdata
pdata	SEGMENT
$pdata$?_Floor_of_log_2@std@@YAK_K@Z DD imagerel $LN3
	DD	imagerel $LN3+43
	DD	imagerel $unwind$?_Floor_of_log_2@std@@YAK_K@Z
pdata	ENDS
;	COMDAT pdata
pdata	SEGMENT
$pdata$?_Ceiling_of_log_2@std@@YAK_K@Z DD imagerel $LN3
	DD	imagerel $LN3+32
	DD	imagerel $unwind$?_Ceiling_of_log_2@std@@YAK_K@Z
pdata	ENDS
;	COMDAT pdata
pdata	SEGMENT
$pdata$?convert_keys_to_fan@window_input@fan@@YAGG@Z DD imagerel $LN120
	DD	imagerel $LN120+1791
	DD	imagerel $unwind$?convert_keys_to_fan@window_input@fan@@YAGG@Z
pdata	ENDS
;	COMDAT pdata
pdata	SEGMENT
$pdata$?convert_fan_to_keys@window_input@fan@@YAGG@Z DD imagerel $LN118
	DD	imagerel $LN118+1644
	DD	imagerel $unwind$?convert_fan_to_keys@window_input@fan@@YAGG@Z
pdata	ENDS
;	COMDAT pdata
pdata	SEGMENT
$pdata$?convert_utfkeys_to_fan@window_input@fan@@YAGG@Z DD imagerel $LN116
	DD	imagerel $LN116+1732
	DD	imagerel $unwind$?convert_utfkeys_to_fan@window_input@fan@@YAGG@Z
pdata	ENDS
;	COMDAT pdata
pdata	SEGMENT
$pdata$?get_keys@window_input@fan@@YAXAEAV?$unordered_map@G_NU?$hash@G@std@@U?$equal_to@G@2@V?$allocator@U?$pair@$$CBG_N@std@@@2@@std@@G_N@Z DD imagerel $LN12
	DD	imagerel $LN12+228
	DD	imagerel $unwind$?get_keys@window_input@fan@@YAXAEAV?$unordered_map@G_NU?$hash@G@std@@U?$equal_to@G@2@V?$allocator@U?$pair@$$CBG_N@std@@@2@@std@@G_N@Z
pdata	ENDS
;	COMDAT pdata
pdata	SEGMENT
$pdata$??R?$_Conditionally_enabled_hash@G$00@std@@QEBA_KAEBG@Z DD imagerel $LN3
	DD	imagerel $LN3+29
	DD	imagerel $unwind$??R?$_Conditionally_enabled_hash@G$00@std@@QEBA_KAEBG@Z
pdata	ENDS
;	COMDAT pdata
pdata	SEGMENT
$pdata$?_Do_hash@?$hash@G@std@@SA_KAEBG@Z DD imagerel $LN3
	DD	imagerel $LN3+24
	DD	imagerel $unwind$?_Do_hash@?$hash@G@std@@SA_KAEBG@Z
pdata	ENDS
;	COMDAT pdata
pdata	SEGMENT
$pdata$??R?$equal_to@G@std@@QEBA_NAEBG0@Z DD imagerel $LN5
	DD	imagerel $LN5+64
	DD	imagerel $unwind$??R?$equal_to@G@std@@QEBA_NAEBG0@Z
pdata	ENDS
;	COMDAT pdata
pdata	SEGMENT
$pdata$?deallocate@?$allocator@U?$_List_node@U?$pair@$$CBG_N@std@@PEAX@std@@@std@@QEAAXQEAU?$_List_node@U?$pair@$$CBG_N@std@@PEAX@2@_K@Z DD imagerel $LN3
	DD	imagerel $LN3+43
	DD	imagerel $unwind$?deallocate@?$allocator@U?$_List_node@U?$pair@$$CBG_N@std@@PEAX@std@@@std@@QEAAXQEAU?$_List_node@U?$pair@$$CBG_N@std@@PEAX@2@_K@Z
pdata	ENDS
;	COMDAT pdata
pdata	SEGMENT
$pdata$?allocate@?$allocator@U?$_List_node@U?$pair@$$CBG_N@std@@PEAX@std@@@std@@QEAAPEAU?$_List_node@U?$pair@$$CBG_N@std@@PEAX@2@_K@Z DD imagerel $LN3
	DD	imagerel $LN3+37
	DD	imagerel $unwind$?allocate@?$allocator@U?$_List_node@U?$pair@$$CBG_N@std@@PEAX@std@@@std@@QEAAPEAU?$_List_node@U?$pair@$$CBG_N@std@@PEAX@2@_K@Z
pdata	ENDS
;	COMDAT pdata
pdata	SEGMENT
$pdata$?deallocate@?$_Default_allocator_traits@V?$allocator@U?$_List_node@U?$pair@$$CBG_N@std@@PEAX@std@@@std@@@std@@SAXAEAV?$allocator@U?$_List_node@U?$pair@$$CBG_N@std@@PEAX@std@@@2@QEAU?$_List_node@U?$pair@$$CBG_N@std@@PEAX@2@_K@Z DD imagerel $LN5
	DD	imagerel $LN5+77
	DD	imagerel $unwind$?deallocate@?$_Default_allocator_traits@V?$allocator@U?$_List_node@U?$pair@$$CBG_N@std@@PEAX@std@@@std@@@std@@SAXAEAV?$allocator@U?$_List_node@U?$pair@$$CBG_N@std@@PEAX@std@@@2@QEAU?$_List_node@U?$pair@$$CBG_N@std@@PEAX@2@_K@Z
pdata	ENDS
;	COMDAT pdata
pdata	SEGMENT
$pdata$?_Unchecked_begin@?$list@U?$pair@$$CBG_N@std@@V?$allocator@U?$pair@$$CBG_N@std@@@2@@std@@QEAA?AV?$_List_unchecked_iterator@V?$_List_val@U?$_List_simple_types@U?$pair@$$CBG_N@std@@@std@@@std@@@2@XZ DD imagerel $LN3
	DD	imagerel $LN3+48
	DD	imagerel $unwind$?_Unchecked_begin@?$list@U?$pair@$$CBG_N@std@@V?$allocator@U?$pair@$$CBG_N@std@@@2@@std@@QEAA?AV?$_List_unchecked_iterator@V?$_List_val@U?$_List_simple_types@U?$pair@$$CBG_N@std@@@std@@@std@@@2@XZ
pdata	ENDS
;	COMDAT pdata
pdata	SEGMENT
$pdata$?_Unchecked_end@?$list@U?$pair@$$CBG_N@std@@V?$allocator@U?$pair@$$CBG_N@std@@@2@@std@@QEAA?AV?$_List_unchecked_iterator@V?$_List_val@U?$_List_simple_types@U?$pair@$$CBG_N@std@@@std@@@std@@@2@XZ DD imagerel $LN3
	DD	imagerel $LN3+45
	DD	imagerel $unwind$?_Unchecked_end@?$list@U?$pair@$$CBG_N@std@@V?$allocator@U?$pair@$$CBG_N@std@@@2@@std@@QEAA?AV?$_List_unchecked_iterator@V?$_List_val@U?$_List_simple_types@U?$pair@$$CBG_N@std@@@std@@@std@@@2@XZ
pdata	ENDS
;	COMDAT pdata
pdata	SEGMENT
$pdata$?max_size@?$list@U?$pair@$$CBG_N@std@@V?$allocator@U?$pair@$$CBG_N@std@@@2@@std@@QEBA_KXZ DD imagerel $LN3
	DD	imagerel $LN3+65
	DD	imagerel $unwind$?max_size@?$list@U?$pair@$$CBG_N@std@@V?$allocator@U?$pair@$$CBG_N@std@@@2@@std@@QEBA_KXZ
pdata	ENDS
;	COMDAT pdata
pdata	SEGMENT
$pdata$?clear@?$list@U?$pair@$$CBG_N@std@@V?$allocator@U?$pair@$$CBG_N@std@@@2@@std@@QEAAXXZ DD imagerel $LN3
	DD	imagerel $LN3+129
	DD	imagerel $unwind$?clear@?$list@U?$pair@$$CBG_N@std@@V?$allocator@U?$pair@$$CBG_N@std@@@2@@std@@QEAAXXZ
pdata	ENDS
;	COMDAT pdata
pdata	SEGMENT
$pdata$?_Getal@?$list@U?$pair@$$CBG_N@std@@V?$allocator@U?$pair@$$CBG_N@std@@@2@@std@@AEAAAEAV?$allocator@U?$_List_node@U?$pair@$$CBG_N@std@@PEAX@std@@@2@XZ DD imagerel $LN3
	DD	imagerel $LN3+27
	DD	imagerel $unwind$?_Getal@?$list@U?$pair@$$CBG_N@std@@V?$allocator@U?$pair@$$CBG_N@std@@@2@@std@@AEAAAEAV?$allocator@U?$_List_node@U?$pair@$$CBG_N@std@@PEAX@std@@@2@XZ
pdata	ENDS
;	COMDAT pdata
pdata	SEGMENT
$pdata$?_Getal@?$list@U?$pair@$$CBG_N@std@@V?$allocator@U?$pair@$$CBG_N@std@@@2@@std@@AEBAAEBV?$allocator@U?$_List_node@U?$pair@$$CBG_N@std@@PEAX@std@@@2@XZ DD imagerel $LN3
	DD	imagerel $LN3+27
	DD	imagerel $unwind$?_Getal@?$list@U?$pair@$$CBG_N@std@@V?$allocator@U?$pair@$$CBG_N@std@@@2@@std@@AEBAAEBV?$allocator@U?$_List_node@U?$pair@$$CBG_N@std@@PEAX@std@@@2@XZ
pdata	ENDS
;	COMDAT pdata
pdata	SEGMENT
$pdata$?_Unchecked_splice@?$_List_val@U?$_List_simple_types@U?$pair@$$CBG_N@std@@@std@@@std@@SAPEAU?$_List_node@U?$pair@$$CBG_N@std@@PEAX@2@QEAU32@00@Z DD imagerel $LN3
	DD	imagerel $LN3+149
	DD	imagerel $unwind$?_Unchecked_splice@?$_List_val@U?$_List_simple_types@U?$pair@$$CBG_N@std@@@std@@@std@@SAPEAU?$_List_node@U?$pair@$$CBG_N@std@@PEAX@2@QEAU32@00@Z
pdata	ENDS
;	COMDAT pdata
pdata	SEGMENT
$pdata$?_Unchecked_begin@?$_Hash@V?$_Umap_traits@G_NV?$_Uhash_compare@GU?$hash@G@std@@U?$equal_to@G@2@@std@@V?$allocator@U?$pair@$$CBG_N@std@@@2@$0A@@std@@@std@@QEAA?AV?$_List_unchecked_iterator@V?$_List_val@U?$_List_simple_types@U?$pair@$$CBG_N@std@@@std@@@std@@@2@XZ DD imagerel $LN3
	DD	imagerel $LN3+53
	DD	imagerel $unwind$?_Unchecked_begin@?$_Hash@V?$_Umap_traits@G_NV?$_Uhash_compare@GU?$hash@G@std@@U?$equal_to@G@2@@std@@V?$allocator@U?$pair@$$CBG_N@std@@@2@$0A@@std@@@std@@QEAA?AV?$_List_unchecked_iterator@V?$_List_val@U?$_List_simple_types@U?$pair@$$CBG_N@std@@@std@@@std@@@2@XZ
pdata	ENDS
;	COMDAT pdata
pdata	SEGMENT
$pdata$?_Unchecked_end@?$_Hash@V?$_Umap_traits@G_NV?$_Uhash_compare@GU?$hash@G@std@@U?$equal_to@G@2@@std@@V?$allocator@U?$pair@$$CBG_N@std@@@2@$0A@@std@@@std@@QEAA?AV?$_List_unchecked_iterator@V?$_List_val@U?$_List_simple_types@U?$pair@$$CBG_N@std@@@std@@@std@@@2@XZ DD imagerel $LN3
	DD	imagerel $LN3+53
	DD	imagerel $unwind$?_Unchecked_end@?$_Hash@V?$_Umap_traits@G_NV?$_Uhash_compare@GU?$hash@G@std@@U?$equal_to@G@2@@std@@V?$allocator@U?$pair@$$CBG_N@std@@@2@$0A@@std@@@std@@QEAA?AV?$_List_unchecked_iterator@V?$_List_val@U?$_List_simple_types@U?$pair@$$CBG_N@std@@@std@@@std@@@2@XZ
pdata	ENDS
;	COMDAT pdata
pdata	SEGMENT
$pdata$?bucket@?$_Hash@V?$_Umap_traits@G_NV?$_Uhash_compare@GU?$hash@G@std@@U?$equal_to@G@2@@std@@V?$allocator@U?$pair@$$CBG_N@std@@@2@$0A@@std@@@std@@QEBA_KAEBG@Z DD imagerel $LN3
	DD	imagerel $LN3+53
	DD	imagerel $unwind$?bucket@?$_Hash@V?$_Umap_traits@G_NV?$_Uhash_compare@GU?$hash@G@std@@U?$equal_to@G@2@@std@@V?$allocator@U?$pair@$$CBG_N@std@@@2@$0A@@std@@@std@@QEBA_KAEBG@Z
pdata	ENDS
;	COMDAT pdata
pdata	SEGMENT
$pdata$?max_load_factor@?$_Hash@V?$_Umap_traits@G_NV?$_Uhash_compare@GU?$hash@G@std@@U?$equal_to@G@2@@std@@V?$allocator@U?$pair@$$CBG_N@std@@@2@$0A@@std@@@std@@QEBAMXZ DD imagerel $LN3
	DD	imagerel $LN3+28
	DD	imagerel $unwind$?max_load_factor@?$_Hash@V?$_Umap_traits@G_NV?$_Uhash_compare@GU?$hash@G@std@@U?$equal_to@G@2@@std@@V?$allocator@U?$pair@$$CBG_N@std@@@2@$0A@@std@@@std@@QEBAMXZ
pdata	ENDS
;	COMDAT pdata
pdata	SEGMENT
$pdata$?_Unchecked_erase@?$_Hash@V?$_Umap_traits@G_NV?$_Uhash_compare@GU?$hash@G@std@@U?$equal_to@G@2@@std@@V?$allocator@U?$pair@$$CBG_N@std@@@2@$0A@@std@@@std@@AEAAPEAU?$_List_node@U?$pair@$$CBG_N@std@@PEAX@2@PEAU32@QEAU32@@Z DD imagerel $LN25
	DD	imagerel $LN25+780
	DD	imagerel $unwind$?_Unchecked_erase@?$_Hash@V?$_Umap_traits@G_NV?$_Uhash_compare@GU?$hash@G@std@@U?$equal_to@G@2@@std@@V?$allocator@U?$pair@$$CBG_N@std@@@2@$0A@@std@@@std@@AEAAPEAU?$_List_node@U?$pair@$$CBG_N@std@@PEAX@2@PEAU32@QEAU32@@Z
pdata	ENDS
;	COMDAT pdata
pdata	SEGMENT
$pdata$?clear@?$_Hash@V?$_Umap_traits@G_NV?$_Uhash_compare@GU?$hash@G@std@@U?$equal_to@G@2@@std@@V?$allocator@U?$pair@$$CBG_N@std@@@2@$0A@@std@@@std@@QEAAXXZ DD imagerel $LN5
	DD	imagerel $LN5+193
	DD	imagerel $unwind$?clear@?$_Hash@V?$_Umap_traits@G_NV?$_Uhash_compare@GU?$hash@G@std@@U?$equal_to@G@2@@std@@V?$allocator@U?$pair@$$CBG_N@std@@@2@$0A@@std@@@std@@QEAAXXZ
pdata	ENDS
;	COMDAT pdata
pdata	SEGMENT
$pdata$?_Insert_new_node_before@?$_Hash@V?$_Umap_traits@G_NV?$_Uhash_compare@GU?$hash@G@std@@U?$equal_to@G@2@@std@@V?$allocator@U?$pair@$$CBG_N@std@@@2@$0A@@std@@@std@@IEAAPEAU?$_List_node@U?$pair@$$CBG_N@std@@PEAX@2@_KQEAU32@1@Z DD imagerel $LN8
	DD	imagerel $LN8+335
	DD	imagerel $unwind$?_Insert_new_node_before@?$_Hash@V?$_Umap_traits@G_NV?$_Uhash_compare@GU?$hash@G@std@@U?$equal_to@G@2@@std@@V?$allocator@U?$pair@$$CBG_N@std@@@2@$0A@@std@@@std@@IEAAPEAU?$_List_node@U?$pair@$$CBG_N@std@@PEAX@2@_KQEAU32@1@Z
pdata	ENDS
;	COMDAT pdata
pdata	SEGMENT
$pdata$?_Check_max_size@?$_Hash@V?$_Umap_traits@G_NV?$_Uhash_compare@GU?$hash@G@std@@U?$equal_to@G@2@@std@@V?$allocator@U?$pair@$$CBG_N@std@@@2@$0A@@std@@@std@@IEBAXXZ DD imagerel $LN4
	DD	imagerel $LN4+64
	DD	imagerel $unwind$?_Check_max_size@?$_Hash@V?$_Umap_traits@G_NV?$_Uhash_compare@GU?$hash@G@std@@U?$equal_to@G@2@@std@@V?$allocator@U?$pair@$$CBG_N@std@@@2@$0A@@std@@@std@@IEBAXXZ
pdata	ENDS
;	COMDAT pdata
pdata	SEGMENT
$pdata$?_Check_rehash_required_1@?$_Hash@V?$_Umap_traits@G_NV?$_Uhash_compare@GU?$hash@G@std@@U?$equal_to@G@2@@std@@V?$allocator@U?$pair@$$CBG_N@std@@@2@$0A@@std@@@std@@IEBA_NXZ DD imagerel $LN9
	DD	imagerel $LN9+205
	DD	imagerel $unwind$?_Check_rehash_required_1@?$_Hash@V?$_Umap_traits@G_NV?$_Uhash_compare@GU?$hash@G@std@@U?$equal_to@G@2@@std@@V?$allocator@U?$pair@$$CBG_N@std@@@2@$0A@@std@@@std@@IEBA_NXZ
pdata	ENDS
;	COMDAT pdata
pdata	SEGMENT
$pdata$?_Rehash_for_1@?$_Hash@V?$_Umap_traits@G_NV?$_Uhash_compare@GU?$hash@G@std@@U?$equal_to@G@2@@std@@V?$allocator@U?$pair@$$CBG_N@std@@@2@$0A@@std@@@std@@IEAAXXZ DD imagerel $LN3
	DD	imagerel $LN3+69
	DD	imagerel $unwind$?_Rehash_for_1@?$_Hash@V?$_Umap_traits@G_NV?$_Uhash_compare@GU?$hash@G@std@@U?$equal_to@G@2@@std@@V?$allocator@U?$pair@$$CBG_N@std@@@2@$0A@@std@@@std@@IEAAXXZ
pdata	ENDS
;	COMDAT pdata
pdata	SEGMENT
$pdata$?_Min_load_factor_buckets@?$_Hash@V?$_Umap_traits@G_NV?$_Uhash_compare@GU?$hash@G@std@@U?$equal_to@G@2@@std@@V?$allocator@U?$pair@$$CBG_N@std@@@2@$0A@@std@@@std@@IEBA_K_K@Z DD imagerel $LN6
	DD	imagerel $LN6+153
	DD	imagerel $unwind$?_Min_load_factor_buckets@?$_Hash@V?$_Umap_traits@G_NV?$_Uhash_compare@GU?$hash@G@std@@U?$equal_to@G@2@@std@@V?$allocator@U?$pair@$$CBG_N@std@@@2@$0A@@std@@@std@@IEBA_K_K@Z
pdata	ENDS
;	COMDAT pdata
pdata	SEGMENT
$pdata$?_Desired_grow_bucket_count@?$_Hash@V?$_Umap_traits@G_NV?$_Uhash_compare@GU?$hash@G@std@@U?$equal_to@G@2@@std@@V?$allocator@U?$pair@$$CBG_N@std@@@2@$0A@@std@@@std@@IEBA_K_K@Z DD imagerel $LN5
	DD	imagerel $LN5+141
	DD	imagerel $unwind$?_Desired_grow_bucket_count@?$_Hash@V?$_Umap_traits@G_NV?$_Uhash_compare@GU?$hash@G@std@@U?$equal_to@G@2@@std@@V?$allocator@U?$pair@$$CBG_N@std@@@2@$0A@@std@@@std@@IEBA_K_K@Z
pdata	ENDS
;	COMDAT pdata
pdata	SEGMENT
$pdata$?_Forced_rehash@?$_Hash@V?$_Umap_traits@G_NV?$_Uhash_compare@GU?$hash@G@std@@U?$equal_to@G@2@@std@@V?$allocator@U?$pair@$$CBG_N@std@@@2@$0A@@std@@@std@@IEAAX_K@Z DD imagerel $LN17
	DD	imagerel $LN17+864
	DD	imagerel $unwind$?_Forced_rehash@?$_Hash@V?$_Umap_traits@G_NV?$_Uhash_compare@GU?$hash@G@std@@U?$equal_to@G@2@@std@@V?$allocator@U?$pair@$$CBG_N@std@@@2@$0A@@std@@@std@@IEAAX_K@Z
pdata	ENDS
;	COMDAT pdata
pdata	SEGMENT
$pdata$?dtor$0@?0??_Forced_rehash@?$_Hash@V?$_Umap_traits@G_NV?$_Uhash_compare@GU?$hash@G@std@@U?$equal_to@G@2@@std@@V?$allocator@U?$pair@$$CBG_N@std@@@2@$0A@@std@@@std@@IEAAX_K@Z@4HA DD imagerel ?dtor$0@?0??_Forced_rehash@?$_Hash@V?$_Umap_traits@G_NV?$_Uhash_compare@GU?$hash@G@std@@U?$equal_to@G@2@@std@@V?$allocator@U?$pair@$$CBG_N@std@@@2@$0A@@std@@@std@@IEAAX_K@Z@4HA
	DD	imagerel ?dtor$0@?0??_Forced_rehash@?$_Hash@V?$_Umap_traits@G_NV?$_Uhash_compare@GU?$hash@G@std@@U?$equal_to@G@2@@std@@V?$allocator@U?$pair@$$CBG_N@std@@@2@$0A@@std@@@std@@IEAAX_K@Z@4HA+24
	DD	imagerel $unwind$?dtor$0@?0??_Forced_rehash@?$_Hash@V?$_Umap_traits@G_NV?$_Uhash_compare@GU?$hash@G@std@@U?$equal_to@G@2@@std@@V?$allocator@U?$pair@$$CBG_N@std@@@2@$0A@@std@@@std@@IEAAX_K@Z@4HA
pdata	ENDS
;	COMDAT pdata
pdata	SEGMENT
$pdata$?_Max_bucket_size@?$_Hash@V?$_Umap_traits@G_NV?$_Uhash_compare@GU?$hash@G@std@@U?$equal_to@G@2@@std@@V?$allocator@U?$pair@$$CBG_N@std@@@2@$0A@@std@@@std@@IEBAAEBMXZ DD imagerel $LN3
	DD	imagerel $LN3+27
	DD	imagerel $unwind$?_Max_bucket_size@?$_Hash@V?$_Umap_traits@G_NV?$_Uhash_compare@GU?$hash@G@std@@U?$equal_to@G@2@@std@@V?$allocator@U?$pair@$$CBG_N@std@@@2@$0A@@std@@@std@@IEBAAEBMXZ
pdata	ENDS
;	COMDAT pdata
pdata	SEGMENT
$pdata$?deallocate@?$allocator@V?$_List_unchecked_iterator@V?$_List_val@U?$_List_simple_types@U?$pair@$$CBG_N@std@@@std@@@std@@@std@@@std@@QEAAXQEAV?$_List_unchecked_iterator@V?$_List_val@U?$_List_simple_types@U?$pair@$$CBG_N@std@@@std@@@std@@@2@_K@Z DD imagerel $LN3
	DD	imagerel $LN3+46
	DD	imagerel $unwind$?deallocate@?$allocator@V?$_List_unchecked_iterator@V?$_List_val@U?$_List_simple_types@U?$pair@$$CBG_N@std@@@std@@@std@@@std@@@std@@QEAAXQEAV?$_List_unchecked_iterator@V?$_List_val@U?$_List_simple_types@U?$pair@$$CBG_N@std@@@std@@@std@@@2@_K@Z
pdata	ENDS
;	COMDAT pdata
pdata	SEGMENT
$pdata$?allocate@?$allocator@V?$_List_unchecked_iterator@V?$_List_val@U?$_List_simple_types@U?$pair@$$CBG_N@std@@@std@@@std@@@std@@@std@@QEAAPEAV?$_List_unchecked_iterator@V?$_List_val@U?$_List_simple_types@U?$pair@$$CBG_N@std@@@std@@@std@@@2@_K@Z DD imagerel $LN3
	DD	imagerel $LN3+37
	DD	imagerel $unwind$?allocate@?$allocator@V?$_List_unchecked_iterator@V?$_List_val@U?$_List_simple_types@U?$pair@$$CBG_N@std@@@std@@@std@@@std@@@std@@QEAAPEAV?$_List_unchecked_iterator@V?$_List_val@U?$_List_simple_types@U?$pair@$$CBG_N@std@@@std@@@std@@@2@_K@Z
pdata	ENDS
;	COMDAT pdata
pdata	SEGMENT
$pdata$?max_size@?$_Hash_vec@V?$allocator@V?$_List_unchecked_iterator@V?$_List_val@U?$_List_simple_types@U?$pair@$$CBG_N@std@@@std@@@std@@@std@@@std@@@std@@QEBA_KXZ DD imagerel $LN3
	DD	imagerel $LN3+68
	DD	imagerel $unwind$?max_size@?$_Hash_vec@V?$allocator@V?$_List_unchecked_iterator@V?$_List_val@U?$_List_simple_types@U?$pair@$$CBG_N@std@@@std@@@std@@@std@@@std@@@std@@QEBA_KXZ
pdata	ENDS
;	COMDAT pdata
pdata	SEGMENT
$pdata$?_Assign_grow@?$_Hash_vec@V?$allocator@V?$_List_unchecked_iterator@V?$_List_val@U?$_List_simple_types@U?$pair@$$CBG_N@std@@@std@@@std@@@std@@@std@@@std@@QEAAX_KV?$_List_unchecked_iterator@V?$_List_val@U?$_List_simple_types@U?$pair@$$CBG_N@std@@@std@@@std@@@2@@Z DD imagerel $LN6
	DD	imagerel $LN6+255
	DD	imagerel $unwind$?_Assign_grow@?$_Hash_vec@V?$allocator@V?$_List_unchecked_iterator@V?$_List_val@U?$_List_simple_types@U?$pair@$$CBG_N@std@@@std@@@std@@@std@@@std@@@std@@QEAAX_KV?$_List_unchecked_iterator@V?$_List_val@U?$_List_simple_types@U?$pair@$$CBG_N@std@@@std@@@std@@@2@@Z
pdata	ENDS
;	COMDAT pdata
pdata	SEGMENT
$pdata$??A?$unordered_map@G_NU?$hash@G@std@@U?$equal_to@G@2@V?$allocator@U?$pair@$$CBG_N@std@@@2@@std@@QEAAAEA_N$$QEAG@Z DD imagerel $LN3
	DD	imagerel $LN3+54
	DD	imagerel $unwind$??A?$unordered_map@G_NU?$hash@G@std@@U?$equal_to@G@2@V?$allocator@U?$pair@$$CBG_N@std@@@2@@std@@QEAAAEA_N$$QEAG@Z
pdata	ENDS
;	COMDAT pdata
pdata	SEGMENT
$pdata$??A?$unordered_map@G_NU?$hash@G@std@@U?$equal_to@G@2@V?$allocator@U?$pair@$$CBG_N@std@@@2@@std@@QEAAAEA_NAEBG@Z DD imagerel $LN3
	DD	imagerel $LN3+46
	DD	imagerel $unwind$??A?$unordered_map@G_NU?$hash@G@std@@U?$equal_to@G@2@V?$allocator@U?$pair@$$CBG_N@std@@@2@@std@@QEAAAEA_NAEBG@Z
pdata	ENDS
;	COMDAT pdata
pdata	SEGMENT
$pdata$??$_Try_emplace@AEBG$$V@?$_Hash@V?$_Umap_traits@G_NV?$_Uhash_compare@GU?$hash@G@std@@U?$equal_to@G@2@@std@@V?$allocator@U?$pair@$$CBG_N@std@@@2@$0A@@std@@@std@@IEAA?AU?$pair@PEAU?$_List_node@U?$pair@$$CBG_N@std@@PEAX@std@@_N@1@AEBG@Z DD imagerel $LN6
	DD	imagerel $LN6+479
	DD	imagerel $unwind$??$_Try_emplace@AEBG$$V@?$_Hash@V?$_Umap_traits@G_NV?$_Uhash_compare@GU?$hash@G@std@@U?$equal_to@G@2@@std@@V?$allocator@U?$pair@$$CBG_N@std@@@2@$0A@@std@@@std@@IEAA?AU?$pair@PEAU?$_List_node@U?$pair@$$CBG_N@std@@PEAX@std@@_N@1@AEBG@Z
pdata	ENDS
;	COMDAT pdata
pdata	SEGMENT
$pdata$?dtor$0@?0???$_Try_emplace@AEBG$$V@?$_Hash@V?$_Umap_traits@G_NV?$_Uhash_compare@GU?$hash@G@std@@U?$equal_to@G@2@@std@@V?$allocator@U?$pair@$$CBG_N@std@@@2@$0A@@std@@@std@@IEAA?AU?$pair@PEAU?$_List_node@U?$pair@$$CBG_N@std@@PEAX@std@@_N@1@AEBG@Z@4HA DD imagerel ?dtor$0@?0???$_Try_emplace@AEBG$$V@?$_Hash@V?$_Umap_traits@G_NV?$_Uhash_compare@GU?$hash@G@std@@U?$equal_to@G@2@@std@@V?$allocator@U?$pair@$$CBG_N@std@@@2@$0A@@std@@@std@@IEAA?AU?$pair@PEAU?$_List_node@U?$pair@$$CBG_N@std@@PEAX@std@@_N@1@AEBG@Z@4HA
	DD	imagerel ?dtor$0@?0???$_Try_emplace@AEBG$$V@?$_Hash@V?$_Umap_traits@G_NV?$_Uhash_compare@GU?$hash@G@std@@U?$equal_to@G@2@@std@@V?$allocator@U?$pair@$$CBG_N@std@@@2@$0A@@std@@@std@@IEAA?AU?$pair@PEAU?$_List_node@U?$pair@$$CBG_N@std@@PEAX@std@@_N@1@AEBG@Z@4HA+27
	DD	imagerel $unwind$?dtor$0@?0???$_Try_emplace@AEBG$$V@?$_Hash@V?$_Umap_traits@G_NV?$_Uhash_compare@GU?$hash@G@std@@U?$equal_to@G@2@@std@@V?$allocator@U?$pair@$$CBG_N@std@@@2@$0A@@std@@@std@@IEAA?AU?$pair@PEAU?$_List_node@U?$pair@$$CBG_N@std@@PEAX@std@@_N@1@AEBG@Z@4HA
pdata	ENDS
;	COMDAT pdata
pdata	SEGMENT
$pdata$??$_Try_emplace@G$$V@?$_Hash@V?$_Umap_traits@G_NV?$_Uhash_compare@GU?$hash@G@std@@U?$equal_to@G@2@@std@@V?$allocator@U?$pair@$$CBG_N@std@@@2@$0A@@std@@@std@@IEAA?AU?$pair@PEAU?$_List_node@U?$pair@$$CBG_N@std@@PEAX@std@@_N@1@$$QEAG@Z DD imagerel $LN6
	DD	imagerel $LN6+479
	DD	imagerel $unwind$??$_Try_emplace@G$$V@?$_Hash@V?$_Umap_traits@G_NV?$_Uhash_compare@GU?$hash@G@std@@U?$equal_to@G@2@@std@@V?$allocator@U?$pair@$$CBG_N@std@@@2@$0A@@std@@@std@@IEAA?AU?$pair@PEAU?$_List_node@U?$pair@$$CBG_N@std@@PEAX@std@@_N@1@$$QEAG@Z
pdata	ENDS
;	COMDAT pdata
pdata	SEGMENT
$pdata$?dtor$0@?0???$_Try_emplace@G$$V@?$_Hash@V?$_Umap_traits@G_NV?$_Uhash_compare@GU?$hash@G@std@@U?$equal_to@G@2@@std@@V?$allocator@U?$pair@$$CBG_N@std@@@2@$0A@@std@@@std@@IEAA?AU?$pair@PEAU?$_List_node@U?$pair@$$CBG_N@std@@PEAX@std@@_N@1@$$QEAG@Z@4HA DD imagerel ?dtor$0@?0???$_Try_emplace@G$$V@?$_Hash@V?$_Umap_traits@G_NV?$_Uhash_compare@GU?$hash@G@std@@U?$equal_to@G@2@@std@@V?$allocator@U?$pair@$$CBG_N@std@@@2@$0A@@std@@@std@@IEAA?AU?$pair@PEAU?$_List_node@U?$pair@$$CBG_N@std@@PEAX@std@@_N@1@$$QEAG@Z@4HA
	DD	imagerel ?dtor$0@?0???$_Try_emplace@G$$V@?$_Hash@V?$_Umap_traits@G_NV?$_Uhash_compare@GU?$hash@G@std@@U?$equal_to@G@2@@std@@V?$allocator@U?$pair@$$CBG_N@std@@@2@$0A@@std@@@std@@IEAA?AU?$pair@PEAU?$_List_node@U?$pair@$$CBG_N@std@@PEAX@std@@_N@1@$$QEAG@Z@4HA+27
	DD	imagerel $unwind$?dtor$0@?0???$_Try_emplace@G$$V@?$_Hash@V?$_Umap_traits@G_NV?$_Uhash_compare@GU?$hash@G@std@@U?$equal_to@G@2@@std@@V?$allocator@U?$pair@$$CBG_N@std@@@2@$0A@@std@@@std@@IEAA?AU?$pair@PEAU?$_List_node@U?$pair@$$CBG_N@std@@PEAX@std@@_N@1@$$QEAG@Z@4HA
pdata	ENDS
;	COMDAT pdata
pdata	SEGMENT
$pdata$??$max@_K@std@@YAAEB_KAEB_K0@Z DD imagerel $LN5
	DD	imagerel $LN5+71
	DD	imagerel $unwind$??$max@_K@std@@YAAEB_KAEB_K0@Z
pdata	ENDS
;	COMDAT pdata
pdata	SEGMENT
$pdata$??$_Deallocate@$0BA@$0A@@std@@YAXPEAX_K@Z DD imagerel $LN6
	DD	imagerel $LN6+85
	DD	imagerel $unwind$??$_Deallocate@$0BA@$0A@@std@@YAXPEAX_K@Z
pdata	ENDS
;	COMDAT pdata
pdata	SEGMENT
$pdata$??$_Allocate@$0BA@U_Default_allocate_traits@std@@$0A@@std@@YAPEAX_K@Z DD imagerel $LN6
	DD	imagerel $LN6+71
	DD	imagerel $unwind$??$_Allocate@$0BA@U_Default_allocate_traits@std@@$0A@@std@@YAPEAX_K@Z
pdata	ENDS
;	COMDAT pdata
pdata	SEGMENT
$pdata$??$min@_K@std@@YAAEB_KAEB_K0@Z DD imagerel $LN5
	DD	imagerel $LN5+71
	DD	imagerel $unwind$??$min@_K@std@@YAAEB_KAEB_K0@Z
pdata	ENDS
;	COMDAT pdata
pdata	SEGMENT
$pdata$??$?RG@?$_Uhash_compare@GU?$hash@G@std@@U?$equal_to@G@2@@std@@QEBA_KAEBG@Z DD imagerel $LN3
	DD	imagerel $LN3+52
	DD	imagerel $unwind$??$?RG@?$_Uhash_compare@GU?$hash@G@std@@U?$equal_to@G@2@@std@@QEBA_KAEBG@Z
pdata	ENDS
;	COMDAT pdata
pdata	SEGMENT
$pdata$??$_Find_last@G@?$_Hash@V?$_Umap_traits@G_NV?$_Uhash_compare@GU?$hash@G@std@@U?$equal_to@G@2@@std@@V?$allocator@U?$pair@$$CBG_N@std@@@2@$0A@@std@@@std@@IEBA?AU?$_Hash_find_last_result@PEAU?$_List_node@U?$pair@$$CBG_N@std@@PEAX@std@@@1@AEBG_K@Z DD imagerel $LN9
	DD	imagerel $LN9+322
	DD	imagerel $unwind$??$_Find_last@G@?$_Hash@V?$_Umap_traits@G_NV?$_Uhash_compare@GU?$hash@G@std@@U?$equal_to@G@2@@std@@V?$allocator@U?$pair@$$CBG_N@std@@@2@$0A@@std@@@std@@IEBA?AU?$_Hash_find_last_result@PEAU?$_List_node@U?$pair@$$CBG_N@std@@PEAX@std@@@1@AEBG_K@Z
pdata	ENDS
;	COMDAT pdata
pdata	SEGMENT
$pdata$??$forward_as_tuple@AEBG@std@@YA?AV?$tuple@AEBG@0@AEBG@Z DD imagerel $LN3
	DD	imagerel $LN3+47
	DD	imagerel $unwind$??$forward_as_tuple@AEBG@std@@YA?AV?$tuple@AEBG@0@AEBG@Z
pdata	ENDS
;	COMDAT pdata
pdata	SEGMENT
$pdata$??0?$tuple@AEBG@std@@QEAA@$$QEAV01@@Z DD imagerel $LN3
	DD	imagerel $LN3+55
	DD	imagerel $unwind$??0?$tuple@AEBG@std@@QEAA@$$QEAV01@@Z
pdata	ENDS
;	COMDAT pdata
pdata	SEGMENT
$pdata$?_Release@?$_Alloc_construct_ptr@V?$allocator@U?$_List_node@U?$pair@$$CBG_N@std@@PEAX@std@@@std@@@std@@QEAAPEAU?$_List_node@U?$pair@$$CBG_N@std@@PEAX@2@XZ DD imagerel $LN3
	DD	imagerel $LN3+45
	DD	imagerel $unwind$?_Release@?$_Alloc_construct_ptr@V?$allocator@U?$_List_node@U?$pair@$$CBG_N@std@@PEAX@std@@@std@@@std@@QEAAPEAU?$_List_node@U?$pair@$$CBG_N@std@@PEAX@2@XZ
pdata	ENDS
;	COMDAT pdata
pdata	SEGMENT
$pdata$?_Allocate@?$_Alloc_construct_ptr@V?$allocator@U?$_List_node@U?$pair@$$CBG_N@std@@PEAX@std@@@std@@@std@@QEAAXXZ DD imagerel $LN3
	DD	imagerel $LN3+64
	DD	imagerel $unwind$?_Allocate@?$_Alloc_construct_ptr@V?$allocator@U?$_List_node@U?$pair@$$CBG_N@std@@PEAX@std@@@std@@@std@@QEAAXXZ
pdata	ENDS
;	COMDAT pdata
pdata	SEGMENT
$pdata$??1?$_Alloc_construct_ptr@V?$allocator@U?$_List_node@U?$pair@$$CBG_N@std@@PEAX@std@@@std@@@std@@QEAA@XZ DD imagerel $LN4
	DD	imagerel $LN4+65
	DD	imagerel $unwind$??1?$_Alloc_construct_ptr@V?$allocator@U?$_List_node@U?$pair@$$CBG_N@std@@PEAX@std@@@std@@@std@@QEAA@XZ
pdata	ENDS
;	COMDAT pdata
pdata	SEGMENT
$pdata$??1?$_List_node_emplace_op2@V?$allocator@U?$_List_node@U?$pair@$$CBG_N@std@@PEAX@std@@@std@@@std@@QEAA@XZ DD imagerel $LN4
	DD	imagerel $LN4+91
	DD	imagerel $unwind$??1?$_List_node_emplace_op2@V?$allocator@U?$_List_node@U?$pair@$$CBG_N@std@@PEAX@std@@@std@@@std@@QEAA@XZ
pdata	ENDS
;	COMDAT pdata
pdata	SEGMENT
$pdata$??$?0AEBUpiecewise_construct_t@std@@V?$tuple@AEBG@1@V?$tuple@$$V@1@@?$_List_node_emplace_op2@V?$allocator@U?$_List_node@U?$pair@$$CBG_N@std@@PEAX@std@@@std@@@std@@QEAA@AEAV?$allocator@U?$_List_node@U?$pair@$$CBG_N@std@@PEAX@std@@@1@AEBUpiecewise_construct_t@1@$$QEAV?$tuple@AEBG@1@$$QEAV?$tuple@$$V@1@@Z DD imagerel $LN4
	DD	imagerel $LN4+189
	DD	imagerel $unwind$??$?0AEBUpiecewise_construct_t@std@@V?$tuple@AEBG@1@V?$tuple@$$V@1@@?$_List_node_emplace_op2@V?$allocator@U?$_List_node@U?$pair@$$CBG_N@std@@PEAX@std@@@std@@@std@@QEAA@AEAV?$allocator@U?$_List_node@U?$pair@$$CBG_N@std@@PEAX@std@@@1@AEBUpiecewise_construct_t@1@$$QEAV?$tuple@AEBG@1@$$QEAV?$tuple@$$V@1@@Z
pdata	ENDS
;	COMDAT pdata
pdata	SEGMENT
$pdata$?dtor$0@?0???$?0AEBUpiecewise_construct_t@std@@V?$tuple@AEBG@1@V?$tuple@$$V@1@@?$_List_node_emplace_op2@V?$allocator@U?$_List_node@U?$pair@$$CBG_N@std@@PEAX@std@@@std@@@std@@QEAA@AEAV?$allocator@U?$_List_node@U?$pair@$$CBG_N@std@@PEAX@std@@@1@AEBUpiecewise_construct_t@1@$$QEAV?$tuple@AEBG@1@$$QEAV?$tuple@$$V@1@@Z@4HA DD imagerel ?dtor$0@?0???$?0AEBUpiecewise_construct_t@std@@V?$tuple@AEBG@1@V?$tuple@$$V@1@@?$_List_node_emplace_op2@V?$allocator@U?$_List_node@U?$pair@$$CBG_N@std@@PEAX@std@@@std@@@std@@QEAA@AEAV?$allocator@U?$_List_node@U?$pair@$$CBG_N@std@@PEAX@std@@@1@AEBUpiecewise_construct_t@1@$$QEAV?$tuple@AEBG@1@$$QEAV?$tuple@$$V@1@@Z@4HA
	DD	imagerel ?dtor$0@?0???$?0AEBUpiecewise_construct_t@std@@V?$tuple@AEBG@1@V?$tuple@$$V@1@@?$_List_node_emplace_op2@V?$allocator@U?$_List_node@U?$pair@$$CBG_N@std@@PEAX@std@@@std@@@std@@QEAA@AEAV?$allocator@U?$_List_node@U?$pair@$$CBG_N@std@@PEAX@std@@@1@AEBUpiecewise_construct_t@1@$$QEAV?$tuple@AEBG@1@$$QEAV?$tuple@$$V@1@@Z@4HA+24
	DD	imagerel $unwind$?dtor$0@?0???$?0AEBUpiecewise_construct_t@std@@V?$tuple@AEBG@1@V?$tuple@$$V@1@@?$_List_node_emplace_op2@V?$allocator@U?$_List_node@U?$pair@$$CBG_N@std@@PEAX@std@@@std@@@std@@QEAA@AEAV?$allocator@U?$_List_node@U?$pair@$$CBG_N@std@@PEAX@std@@@1@AEBUpiecewise_construct_t@1@$$QEAV?$tuple@AEBG@1@$$QEAV?$tuple@$$V@1@@Z@4HA
pdata	ENDS
;	COMDAT pdata
pdata	SEGMENT
$pdata$??$?0AEAPEAU?$_List_node@U?$pair@$$CBG_N@std@@PEAX@std@@_N$0A@@?$pair@PEAU?$_List_node@U?$pair@$$CBG_N@std@@PEAX@std@@_N@std@@QEAA@AEAPEAU?$_List_node@U?$pair@$$CBG_N@std@@PEAX@1@$$QEA_N@Z DD imagerel $LN3
	DD	imagerel $LN3+71
	DD	imagerel $unwind$??$?0AEAPEAU?$_List_node@U?$pair@$$CBG_N@std@@PEAX@std@@_N$0A@@?$pair@PEAU?$_List_node@U?$pair@$$CBG_N@std@@PEAX@std@@_N@std@@QEAA@AEAPEAU?$_List_node@U?$pair@$$CBG_N@std@@PEAX@1@$$QEA_N@Z
pdata	ENDS
;	COMDAT pdata
pdata	SEGMENT
$pdata$??$?0PEAU?$_List_node@U?$pair@$$CBG_N@std@@PEAX@std@@_N$0A@@?$pair@PEAU?$_List_node@U?$pair@$$CBG_N@std@@PEAX@std@@_N@std@@QEAA@$$QEAPEAU?$_List_node@U?$pair@$$CBG_N@std@@PEAX@1@$$QEA_N@Z DD imagerel $LN3
	DD	imagerel $LN3+71
	DD	imagerel $unwind$??$?0PEAU?$_List_node@U?$pair@$$CBG_N@std@@PEAX@std@@_N$0A@@?$pair@PEAU?$_List_node@U?$pair@$$CBG_N@std@@PEAX@std@@_N@std@@QEAA@$$QEAPEAU?$_List_node@U?$pair@$$CBG_N@std@@PEAX@1@$$QEA_N@Z
pdata	ENDS
;	COMDAT pdata
pdata	SEGMENT
$pdata$??$forward_as_tuple@G@std@@YA?AV?$tuple@$$QEAG@0@$$QEAG@Z DD imagerel $LN3
	DD	imagerel $LN3+47
	DD	imagerel $unwind$??$forward_as_tuple@G@std@@YA?AV?$tuple@$$QEAG@0@$$QEAG@Z
pdata	ENDS
;	COMDAT pdata
pdata	SEGMENT
$pdata$??0?$tuple@$$QEAG@std@@QEAA@$$QEAV01@@Z DD imagerel $LN3
	DD	imagerel $LN3+55
	DD	imagerel $unwind$??0?$tuple@$$QEAG@std@@QEAA@$$QEAV01@@Z
pdata	ENDS
;	COMDAT pdata
pdata	SEGMENT
$pdata$??$?0AEBUpiecewise_construct_t@std@@V?$tuple@$$QEAG@1@V?$tuple@$$V@1@@?$_List_node_emplace_op2@V?$allocator@U?$_List_node@U?$pair@$$CBG_N@std@@PEAX@std@@@std@@@std@@QEAA@AEAV?$allocator@U?$_List_node@U?$pair@$$CBG_N@std@@PEAX@std@@@1@AEBUpiecewise_construct_t@1@$$QEAV?$tuple@$$QEAG@1@$$QEAV?$tuple@$$V@1@@Z DD imagerel $LN4
	DD	imagerel $LN4+189
	DD	imagerel $unwind$??$?0AEBUpiecewise_construct_t@std@@V?$tuple@$$QEAG@1@V?$tuple@$$V@1@@?$_List_node_emplace_op2@V?$allocator@U?$_List_node@U?$pair@$$CBG_N@std@@PEAX@std@@@std@@@std@@QEAA@AEAV?$allocator@U?$_List_node@U?$pair@$$CBG_N@std@@PEAX@std@@@1@AEBUpiecewise_construct_t@1@$$QEAV?$tuple@$$QEAG@1@$$QEAV?$tuple@$$V@1@@Z
pdata	ENDS
;	COMDAT pdata
pdata	SEGMENT
$pdata$?dtor$0@?0???$?0AEBUpiecewise_construct_t@std@@V?$tuple@$$QEAG@1@V?$tuple@$$V@1@@?$_List_node_emplace_op2@V?$allocator@U?$_List_node@U?$pair@$$CBG_N@std@@PEAX@std@@@std@@@std@@QEAA@AEAV?$allocator@U?$_List_node@U?$pair@$$CBG_N@std@@PEAX@std@@@1@AEBUpiecewise_construct_t@1@$$QEAV?$tuple@$$QEAG@1@$$QEAV?$tuple@$$V@1@@Z@4HA DD imagerel ?dtor$0@?0???$?0AEBUpiecewise_construct_t@std@@V?$tuple@$$QEAG@1@V?$tuple@$$V@1@@?$_List_node_emplace_op2@V?$allocator@U?$_List_node@U?$pair@$$CBG_N@std@@PEAX@std@@@std@@@std@@QEAA@AEAV?$allocator@U?$_List_node@U?$pair@$$CBG_N@std@@PEAX@std@@@1@AEBUpiecewise_construct_t@1@$$QEAV?$tuple@$$QEAG@1@$$QEAV?$tuple@$$V@1@@Z@4HA
	DD	imagerel ?dtor$0@?0???$?0AEBUpiecewise_construct_t@std@@V?$tuple@$$QEAG@1@V?$tuple@$$V@1@@?$_List_node_emplace_op2@V?$allocator@U?$_List_node@U?$pair@$$CBG_N@std@@PEAX@std@@@std@@@std@@QEAA@AEAV?$allocator@U?$_List_node@U?$pair@$$CBG_N@std@@PEAX@std@@@1@AEBUpiecewise_construct_t@1@$$QEAV?$tuple@$$QEAG@1@$$QEAV?$tuple@$$V@1@@Z@4HA+24
	DD	imagerel $unwind$?dtor$0@?0???$?0AEBUpiecewise_construct_t@std@@V?$tuple@$$QEAG@1@V?$tuple@$$V@1@@?$_List_node_emplace_op2@V?$allocator@U?$_List_node@U?$pair@$$CBG_N@std@@PEAX@std@@@std@@@std@@QEAA@AEAV?$allocator@U?$_List_node@U?$pair@$$CBG_N@std@@PEAX@std@@@1@AEBUpiecewise_construct_t@1@$$QEAV?$tuple@$$QEAG@1@$$QEAV?$tuple@$$V@1@@Z@4HA
pdata	ENDS
;	COMDAT pdata
pdata	SEGMENT
$pdata$??$_Allocate_manually_vector_aligned@U_Default_allocate_traits@std@@@std@@YAPEAX_K@Z DD imagerel $LN12
	DD	imagerel $LN12+133
	DD	imagerel $unwind$??$_Allocate_manually_vector_aligned@U_Default_allocate_traits@std@@@std@@YAPEAX_K@Z
pdata	ENDS
;	COMDAT pdata
pdata	SEGMENT
$pdata$??$destroy@U?$pair@$$CBG_N@std@@@?$_Default_allocator_traits@V?$allocator@U?$_List_node@U?$pair@$$CBG_N@std@@PEAX@std@@@std@@@std@@SAXAEAV?$allocator@U?$_List_node@U?$pair@$$CBG_N@std@@PEAX@std@@@1@QEAU?$pair@$$CBG_N@1@@Z DD imagerel $LN3
	DD	imagerel $LN3+29
	DD	imagerel $unwind$??$destroy@U?$pair@$$CBG_N@std@@@?$_Default_allocator_traits@V?$allocator@U?$_List_node@U?$pair@$$CBG_N@std@@PEAX@std@@@std@@@std@@SAXAEAV?$allocator@U?$_List_node@U?$pair@$$CBG_N@std@@PEAX@std@@@1@QEAU?$pair@$$CBG_N@1@@Z
pdata	ENDS
;	COMDAT pdata
pdata	SEGMENT
$pdata$??$exchange@PEAU?$_List_node@U?$pair@$$CBG_N@std@@PEAX@std@@$$T@std@@YAPEAU?$_List_node@U?$pair@$$CBG_N@std@@PEAX@0@AEAPEAU10@$$QEA$$T@Z DD imagerel $LN3
	DD	imagerel $LN3+51
	DD	imagerel $unwind$??$exchange@PEAU?$_List_node@U?$pair@$$CBG_N@std@@PEAX@std@@$$T@std@@YAPEAU?$_List_node@U?$pair@$$CBG_N@std@@PEAX@0@AEAPEAU10@$$QEA$$T@Z
pdata	ENDS
;	COMDAT pdata
pdata	SEGMENT
$pdata$??$_Construct_in_place@PEAU?$_List_node@U?$pair@$$CBG_N@std@@PEAX@std@@AEBQEAU12@@std@@YAXAEAPEAU?$_List_node@U?$pair@$$CBG_N@std@@PEAX@0@AEBQEAU10@@Z DD imagerel $LN5
	DD	imagerel $LN5+135
	DD	imagerel $unwind$??$_Construct_in_place@PEAU?$_List_node@U?$pair@$$CBG_N@std@@PEAX@std@@AEBQEAU12@@std@@YAXAEAPEAU?$_List_node@U?$pair@$$CBG_N@std@@PEAX@0@AEBQEAU10@@Z
pdata	ENDS
;	COMDAT pdata
pdata	SEGMENT
$pdata$??0?$_List_unchecked_const_iterator@V?$_List_val@U?$_List_simple_types@U?$pair@$$CBG_N@std@@@std@@@std@@U_Iterator_base0@2@@std@@QEAA@PEAU?$_List_node@U?$pair@$$CBG_N@std@@PEAX@1@PEBV?$_List_val@U?$_List_simple_types@U?$pair@$$CBG_N@std@@@std@@@1@@Z DD imagerel $LN3
	DD	imagerel $LN3+57
	DD	imagerel $unwind$??0?$_List_unchecked_const_iterator@V?$_List_val@U?$_List_simple_types@U?$pair@$$CBG_N@std@@@std@@@std@@U_Iterator_base0@2@@std@@QEAA@PEAU?$_List_node@U?$pair@$$CBG_N@std@@PEAX@1@PEBV?$_List_val@U?$_List_simple_types@U?$pair@$$CBG_N@std@@@std@@@1@@Z
pdata	ENDS
;	COMDAT pdata
pdata	SEGMENT
$pdata$??8?$_List_unchecked_const_iterator@V?$_List_val@U?$_List_simple_types@U?$pair@$$CBG_N@std@@@std@@@std@@U_Iterator_base0@2@@std@@QEBA_NAEBV01@@Z DD imagerel $LN5
	DD	imagerel $LN5+57
	DD	imagerel $unwind$??8?$_List_unchecked_const_iterator@V?$_List_val@U?$_List_simple_types@U?$pair@$$CBG_N@std@@@std@@@std@@U_Iterator_base0@2@@std@@QEBA_NAEBV01@@Z
pdata	ENDS
;	COMDAT pdata
pdata	SEGMENT
$pdata$??D?$_List_unchecked_iterator@V?$_List_val@U?$_List_simple_types@U?$pair@$$CBG_N@std@@@std@@@std@@@std@@QEBAAEAU?$pair@$$CBG_N@1@XZ DD imagerel $LN3
	DD	imagerel $LN3+24
	DD	imagerel $unwind$??D?$_List_unchecked_iterator@V?$_List_val@U?$_List_simple_types@U?$pair@$$CBG_N@std@@@std@@@std@@@std@@QEBAAEAU?$pair@$$CBG_N@1@XZ
pdata	ENDS
;	COMDAT pdata
pdata	SEGMENT
$pdata$??E?$_List_unchecked_iterator@V?$_List_val@U?$_List_simple_types@U?$pair@$$CBG_N@std@@@std@@@std@@@std@@QEAAAEAV01@XZ DD imagerel $LN3
	DD	imagerel $LN3+29
	DD	imagerel $unwind$??E?$_List_unchecked_iterator@V?$_List_val@U?$_List_simple_types@U?$pair@$$CBG_N@std@@@std@@@std@@@std@@QEAAAEAV01@XZ
pdata	ENDS
;	COMDAT pdata
pdata	SEGMENT
$pdata$??0?$_List_unchecked_iterator@V?$_List_val@U?$_List_simple_types@U?$pair@$$CBG_N@std@@@std@@@std@@@std@@QEAA@PEAU?$_List_node@U?$pair@$$CBG_N@std@@PEAX@1@PEBV?$_List_val@U?$_List_simple_types@U?$pair@$$CBG_N@std@@@std@@@1@@Z DD imagerel $LN3
	DD	imagerel $LN3+49
	DD	imagerel $unwind$??0?$_List_unchecked_iterator@V?$_List_val@U?$_List_simple_types@U?$pair@$$CBG_N@std@@@std@@@std@@@std@@QEAA@PEAU?$_List_node@U?$pair@$$CBG_N@std@@PEAX@1@PEBV?$_List_val@U?$_List_simple_types@U?$pair@$$CBG_N@std@@@std@@@1@@Z
pdata	ENDS
;	COMDAT pdata
pdata	SEGMENT
$pdata$??1_Clear_guard@?$_Hash@V?$_Umap_traits@G_NV?$_Uhash_compare@GU?$hash@G@std@@U?$equal_to@G@2@@std@@V?$allocator@U?$pair@$$CBG_N@std@@@2@$0A@@std@@@std@@QEAA@XZ DD imagerel $LN4
	DD	imagerel $LN4+38
	DD	imagerel $unwind$??1_Clear_guard@?$_Hash@V?$_Umap_traits@G_NV?$_Uhash_compare@GU?$hash@G@std@@U?$equal_to@G@2@@std@@V?$allocator@U?$pair@$$CBG_N@std@@@2@$0A@@std@@@std@@QEAA@XZ
pdata	ENDS
;	COMDAT pdata
pdata	SEGMENT
$pdata$??$?RGG@?$_Uhash_compare@GU?$hash@G@std@@U?$equal_to@G@2@@std@@QEBA_NAEBG0@Z DD imagerel $LN5
	DD	imagerel $LN5+92
	DD	imagerel $unwind$??$?RGG@?$_Uhash_compare@GU?$hash@G@std@@U?$equal_to@G@2@@std@@QEBA_NAEBG0@Z
pdata	ENDS
;	COMDAT pdata
pdata	SEGMENT
$pdata$??$uninitialized_fill@PEAV?$_List_unchecked_iterator@V?$_List_val@U?$_List_simple_types@U?$pair@$$CBG_N@std@@@std@@@std@@@std@@V12@@std@@YAXQEAV?$_List_unchecked_iterator@V?$_List_val@U?$_List_simple_types@U?$pair@$$CBG_N@std@@@std@@@std@@@0@0AEBV10@@Z DD imagerel $LN6
	DD	imagerel $LN6+135
	DD	imagerel $unwind$??$uninitialized_fill@PEAV?$_List_unchecked_iterator@V?$_List_val@U?$_List_simple_types@U?$pair@$$CBG_N@std@@@std@@@std@@@std@@V12@@std@@YAXQEAV?$_List_unchecked_iterator@V?$_List_val@U?$_List_simple_types@U?$pair@$$CBG_N@std@@@std@@@std@@@0@0AEBV10@@Z
pdata	ENDS
;	COMDAT pdata
pdata	SEGMENT
$pdata$?dtor$0@?0???$uninitialized_fill@PEAV?$_List_unchecked_iterator@V?$_List_val@U?$_List_simple_types@U?$pair@$$CBG_N@std@@@std@@@std@@@std@@V12@@std@@YAXQEAV?$_List_unchecked_iterator@V?$_List_val@U?$_List_simple_types@U?$pair@$$CBG_N@std@@@std@@@std@@@0@0AEBV10@@Z@4HA DD imagerel ?dtor$0@?0???$uninitialized_fill@PEAV?$_List_unchecked_iterator@V?$_List_val@U?$_List_simple_types@U?$pair@$$CBG_N@std@@@std@@@std@@@std@@V12@@std@@YAXQEAV?$_List_unchecked_iterator@V?$_List_val@U?$_List_simple_types@U?$pair@$$CBG_N@std@@@std@@@std@@@0@0AEBV10@@Z@4HA
	DD	imagerel ?dtor$0@?0???$uninitialized_fill@PEAV?$_List_unchecked_iterator@V?$_List_val@U?$_List_simple_types@U?$pair@$$CBG_N@std@@@std@@@std@@@std@@V12@@std@@YAXQEAV?$_List_unchecked_iterator@V?$_List_val@U?$_List_simple_types@U?$pair@$$CBG_N@std@@@std@@@std@@@0@0AEBV10@@Z@4HA+24
	DD	imagerel $unwind$?dtor$0@?0???$uninitialized_fill@PEAV?$_List_unchecked_iterator@V?$_List_val@U?$_List_simple_types@U?$pair@$$CBG_N@std@@@std@@@std@@@std@@V12@@std@@YAXQEAV?$_List_unchecked_iterator@V?$_List_val@U?$_List_simple_types@U?$pair@$$CBG_N@std@@@std@@@std@@@0@0AEBV10@@Z@4HA
pdata	ENDS
;	COMDAT pdata
pdata	SEGMENT
$pdata$??$fill@PEAV?$_List_unchecked_iterator@V?$_List_val@U?$_List_simple_types@U?$pair@$$CBG_N@std@@@std@@@std@@@std@@V12@@std@@YAXQEAV?$_List_unchecked_iterator@V?$_List_val@U?$_List_simple_types@U?$pair@$$CBG_N@std@@@std@@@std@@@0@0AEBV10@@Z DD imagerel $LN7
	DD	imagerel $LN7+123
	DD	imagerel $unwind$??$fill@PEAV?$_List_unchecked_iterator@V?$_List_val@U?$_List_simple_types@U?$pair@$$CBG_N@std@@@std@@@std@@@std@@V12@@std@@YAXQEAV?$_List_unchecked_iterator@V?$_List_val@U?$_List_simple_types@U?$pair@$$CBG_N@std@@@std@@@std@@@0@0AEBV10@@Z
pdata	ENDS
;	COMDAT pdata
pdata	SEGMENT
$pdata$??$_Get_size_of_n@$07@std@@YA_K_K@Z DD imagerel $LN4
	DD	imagerel $LN4+65
	DD	imagerel $unwind$??$_Get_size_of_n@$07@std@@YA_K_K@Z
pdata	ENDS
;	COMDAT pdata
pdata	SEGMENT
$pdata$?_Bump_erased@_Range_eraser@?$_Hash@V?$_Umap_traits@G_NV?$_Uhash_compare@GU?$hash@G@std@@U?$equal_to@G@2@@std@@V?$allocator@U?$pair@$$CBG_N@std@@@2@$0A@@std@@@std@@QEAAXXZ DD imagerel $LN3
	DD	imagerel $LN3+98
	DD	imagerel $unwind$?_Bump_erased@_Range_eraser@?$_Hash@V?$_Umap_traits@G_NV?$_Uhash_compare@GU?$hash@G@std@@U?$equal_to@G@2@@std@@V?$allocator@U?$pair@$$CBG_N@std@@@2@$0A@@std@@@std@@QEAAXXZ
pdata	ENDS
;	COMDAT pdata
pdata	SEGMENT
$pdata$??$_Free_non_head@V?$allocator@U?$_List_node@U?$pair@$$CBG_N@std@@PEAX@std@@@std@@@?$_List_node@U?$pair@$$CBG_N@std@@PEAX@std@@SAXAEAV?$allocator@U?$_List_node@U?$pair@$$CBG_N@std@@PEAX@std@@@1@PEAU01@@Z DD imagerel $LN6
	DD	imagerel $LN6+98
	DD	imagerel $unwind$??$_Free_non_head@V?$allocator@U?$_List_node@U?$pair@$$CBG_N@std@@PEAX@std@@@std@@@?$_List_node@U?$pair@$$CBG_N@std@@PEAX@std@@SAXAEAV?$allocator@U?$_List_node@U?$pair@$$CBG_N@std@@PEAX@std@@@1@PEAU01@@Z
pdata	ENDS
;	COMDAT pdata
pdata	SEGMENT
$pdata$??$_Freenode@V?$allocator@U?$_List_node@U?$pair@$$CBG_N@std@@PEAX@std@@@std@@@?$_List_node@U?$pair@$$CBG_N@std@@PEAX@std@@SAXAEAV?$allocator@U?$_List_node@U?$pair@$$CBG_N@std@@PEAX@std@@@1@PEAU01@@Z DD imagerel $LN3
	DD	imagerel $LN3+65
	DD	imagerel $unwind$??$_Freenode@V?$allocator@U?$_List_node@U?$pair@$$CBG_N@std@@PEAX@std@@@std@@@?$_List_node@U?$pair@$$CBG_N@std@@PEAX@std@@SAXAEAV?$allocator@U?$_List_node@U?$pair@$$CBG_N@std@@PEAX@std@@@1@PEAU01@@Z
pdata	ENDS
;	COMDAT pdata
pdata	SEGMENT
$pdata$??$?0AEBG$0A@@?$tuple@AEBG@std@@QEAA@AEBG@Z DD imagerel $LN3
	DD	imagerel $LN3+44
	DD	imagerel $unwind$??$?0AEBG$0A@@?$tuple@AEBG@std@@QEAA@AEBG@Z
pdata	ENDS
;	COMDAT pdata
pdata	SEGMENT
$pdata$??$construct@U?$pair@$$CBG_N@std@@AEBUpiecewise_construct_t@2@V?$tuple@AEBG@2@V?$tuple@$$V@2@@?$_Default_allocator_traits@V?$allocator@U?$_List_node@U?$pair@$$CBG_N@std@@PEAX@std@@@std@@@std@@SAXAEAV?$allocator@U?$_List_node@U?$pair@$$CBG_N@std@@PEAX@std@@@1@QEAU?$pair@$$CBG_N@1@AEBUpiecewise_construct_t@1@$$QEAV?$tuple@AEBG@1@$$QEAV?$tuple@$$V@1@@Z DD imagerel $LN5
	DD	imagerel $LN5+304
	DD	imagerel $unwind$??$construct@U?$pair@$$CBG_N@std@@AEBUpiecewise_construct_t@2@V?$tuple@AEBG@2@V?$tuple@$$V@2@@?$_Default_allocator_traits@V?$allocator@U?$_List_node@U?$pair@$$CBG_N@std@@PEAX@std@@@std@@@std@@SAXAEAV?$allocator@U?$_List_node@U?$pair@$$CBG_N@std@@PEAX@std@@@1@QEAU?$pair@$$CBG_N@1@AEBUpiecewise_construct_t@1@$$QEAV?$tuple@AEBG@1@$$QEAV?$tuple@$$V@1@@Z
pdata	ENDS
;	COMDAT pdata
pdata	SEGMENT
$pdata$??$?0G$$V$0A@@?$tuple@$$QEAG@std@@QEAA@$$QEAG@Z DD imagerel $LN3
	DD	imagerel $LN3+68
	DD	imagerel $unwind$??$?0G$$V$0A@@?$tuple@$$QEAG@std@@QEAA@$$QEAG@Z
pdata	ENDS
;	COMDAT pdata
pdata	SEGMENT
$pdata$??$construct@U?$pair@$$CBG_N@std@@AEBUpiecewise_construct_t@2@V?$tuple@$$QEAG@2@V?$tuple@$$V@2@@?$_Default_allocator_traits@V?$allocator@U?$_List_node@U?$pair@$$CBG_N@std@@PEAX@std@@@std@@@std@@SAXAEAV?$allocator@U?$_List_node@U?$pair@$$CBG_N@std@@PEAX@std@@@1@QEAU?$pair@$$CBG_N@1@AEBUpiecewise_construct_t@1@$$QEAV?$tuple@$$QEAG@1@$$QEAV?$tuple@$$V@1@@Z DD imagerel $LN5
	DD	imagerel $LN5+304
	DD	imagerel $unwind$??$construct@U?$pair@$$CBG_N@std@@AEBUpiecewise_construct_t@2@V?$tuple@$$QEAG@2@V?$tuple@$$V@2@@?$_Default_allocator_traits@V?$allocator@U?$_List_node@U?$pair@$$CBG_N@std@@PEAX@std@@@std@@@std@@SAXAEAV?$allocator@U?$_List_node@U?$pair@$$CBG_N@std@@PEAX@std@@@1@QEAU?$pair@$$CBG_N@1@AEBUpiecewise_construct_t@1@$$QEAV?$tuple@$$QEAG@1@$$QEAV?$tuple@$$V@1@@Z
pdata	ENDS
;	COMDAT pdata
pdata	SEGMENT
$pdata$??$construct_at@PEAU?$_List_node@U?$pair@$$CBG_N@std@@PEAX@std@@AEBQEAU12@X@std@@YAPEAPEAU?$_List_node@U?$pair@$$CBG_N@std@@PEAX@0@QEAPEAU10@AEBQEAU10@@Z DD imagerel $LN3
	DD	imagerel $LN3+73
	DD	imagerel $unwind$??$construct_at@PEAU?$_List_node@U?$pair@$$CBG_N@std@@PEAX@std@@AEBQEAU12@X@std@@YAPEAPEAU?$_List_node@U?$pair@$$CBG_N@std@@PEAX@0@QEAPEAU10@AEBQEAU10@@Z
pdata	ENDS
;	COMDAT pdata
pdata	SEGMENT
$pdata$??1?$_Uninitialized_backout@PEAV?$_List_unchecked_iterator@V?$_List_val@U?$_List_simple_types@U?$pair@$$CBG_N@std@@@std@@@std@@@std@@@std@@QEAA@XZ DD imagerel $LN3
	DD	imagerel $LN3+36
	DD	imagerel $unwind$??1?$_Uninitialized_backout@PEAV?$_List_unchecked_iterator@V?$_List_val@U?$_List_simple_types@U?$pair@$$CBG_N@std@@@std@@@std@@@std@@@std@@QEAA@XZ
pdata	ENDS
;	COMDAT pdata
pdata	SEGMENT
$pdata$??$_Emplace_back@AEBV?$_List_unchecked_iterator@V?$_List_val@U?$_List_simple_types@U?$pair@$$CBG_N@std@@@std@@@std@@@std@@@?$_Uninitialized_backout@PEAV?$_List_unchecked_iterator@V?$_List_val@U?$_List_simple_types@U?$pair@$$CBG_N@std@@@std@@@std@@@std@@@std@@QEAAXAEBV?$_List_unchecked_iterator@V?$_List_val@U?$_List_simple_types@U?$pair@$$CBG_N@std@@@std@@@std@@@1@@Z DD imagerel $LN3
	DD	imagerel $LN3+85
	DD	imagerel $unwind$??$_Emplace_back@AEBV?$_List_unchecked_iterator@V?$_List_val@U?$_List_simple_types@U?$pair@$$CBG_N@std@@@std@@@std@@@std@@@?$_Uninitialized_backout@PEAV?$_List_unchecked_iterator@V?$_List_val@U?$_List_simple_types@U?$pair@$$CBG_N@std@@@std@@@std@@@std@@@std@@QEAAXAEBV?$_List_unchecked_iterator@V?$_List_val@U?$_List_simple_types@U?$pair@$$CBG_N@std@@@std@@@std@@@1@@Z
pdata	ENDS
;	COMDAT pdata
pdata	SEGMENT
$pdata$??$_Freenode0@V?$allocator@U?$_List_node@U?$pair@$$CBG_N@std@@PEAX@std@@@std@@@?$_List_node@U?$pair@$$CBG_N@std@@PEAX@std@@SAXAEAV?$allocator@U?$_List_node@U?$pair@$$CBG_N@std@@PEAX@std@@@1@PEAU01@@Z DD imagerel $LN3
	DD	imagerel $LN3+71
	DD	imagerel $unwind$??$_Freenode0@V?$allocator@U?$_List_node@U?$pair@$$CBG_N@std@@PEAX@std@@@std@@@?$_List_node@U?$pair@$$CBG_N@std@@PEAX@std@@SAXAEAV?$allocator@U?$_List_node@U?$pair@$$CBG_N@std@@PEAX@std@@@1@PEAU01@@Z
pdata	ENDS
;	COMDAT pdata
pdata	SEGMENT
$pdata$??$_Get_size_of_n@$0BI@@std@@YA_K_K@Z DD imagerel $LN4
	DD	imagerel $LN4+62
	DD	imagerel $unwind$??$_Get_size_of_n@$0BI@@std@@YA_K_K@Z
pdata	ENDS
;	COMDAT pdata
pdata	SEGMENT
$pdata$??$_Hash_representation@G@std@@YA_KAEBG@Z DD imagerel $LN3
	DD	imagerel $LN3+34
	DD	imagerel $unwind$??$_Hash_representation@G@std@@YA_KAEBG@Z
pdata	ENDS
;	COMDAT pdata
pdata	SEGMENT
$pdata$??$?0U_Exact_args_t@std@@AEBG$$V$0A@@?$tuple@AEBG@std@@QEAA@U_Exact_args_t@1@AEBG@Z DD imagerel $LN3
	DD	imagerel $LN3+76
	DD	imagerel $unwind$??$?0U_Exact_args_t@std@@AEBG$$V$0A@@?$tuple@AEBG@std@@QEAA@U_Exact_args_t@1@AEBG@Z
pdata	ENDS
;	COMDAT pdata
pdata	SEGMENT
$pdata$??$?0AEBG$$Z$$V@?$pair@$$CBG_N@std@@QEAA@Upiecewise_construct_t@1@V?$tuple@AEBG@1@V?$tuple@$$V@1@@Z DD imagerel $LN3
	DD	imagerel $LN3+104
	DD	imagerel $unwind$??$?0AEBG$$Z$$V@?$pair@$$CBG_N@std@@QEAA@Upiecewise_construct_t@1@V?$tuple@AEBG@1@V?$tuple@$$V@1@@Z
pdata	ENDS
;	COMDAT pdata
pdata	SEGMENT
$pdata$??$construct_at@U?$pair@$$CBG_N@std@@AEBUpiecewise_construct_t@2@V?$tuple@AEBG@2@V?$tuple@$$V@2@X@std@@YAPEAU?$pair@$$CBG_N@0@QEAU10@AEBUpiecewise_construct_t@0@$$QEAV?$tuple@AEBG@0@$$QEAV?$tuple@$$V@0@@Z DD imagerel $LN3
	DD	imagerel $LN3+199
	DD	imagerel $unwind$??$construct_at@U?$pair@$$CBG_N@std@@AEBUpiecewise_construct_t@2@V?$tuple@AEBG@2@V?$tuple@$$V@2@X@std@@YAPEAU?$pair@$$CBG_N@0@QEAU10@AEBUpiecewise_construct_t@0@$$QEAV?$tuple@AEBG@0@$$QEAV?$tuple@$$V@0@@Z
pdata	ENDS
;	COMDAT pdata
pdata	SEGMENT
$pdata$??$?0U_Exact_args_t@std@@G$$V$0A@@?$tuple@$$QEAG@std@@QEAA@U_Exact_args_t@1@$$QEAG@Z DD imagerel $LN3
	DD	imagerel $LN3+76
	DD	imagerel $unwind$??$?0U_Exact_args_t@std@@G$$V$0A@@?$tuple@$$QEAG@std@@QEAA@U_Exact_args_t@1@$$QEAG@Z
pdata	ENDS
;	COMDAT pdata
pdata	SEGMENT
$pdata$??$?0$$QEAG$$Z$$V@?$pair@$$CBG_N@std@@QEAA@Upiecewise_construct_t@1@V?$tuple@$$QEAG@1@V?$tuple@$$V@1@@Z DD imagerel $LN3
	DD	imagerel $LN3+104
	DD	imagerel $unwind$??$?0$$QEAG$$Z$$V@?$pair@$$CBG_N@std@@QEAA@Upiecewise_construct_t@1@V?$tuple@$$QEAG@1@V?$tuple@$$V@1@@Z
pdata	ENDS
;	COMDAT pdata
pdata	SEGMENT
$pdata$??$construct_at@U?$pair@$$CBG_N@std@@AEBUpiecewise_construct_t@2@V?$tuple@$$QEAG@2@V?$tuple@$$V@2@X@std@@YAPEAU?$pair@$$CBG_N@0@QEAU10@AEBUpiecewise_construct_t@0@$$QEAV?$tuple@$$QEAG@0@$$QEAV?$tuple@$$V@0@@Z DD imagerel $LN3
	DD	imagerel $LN3+199
	DD	imagerel $unwind$??$construct_at@U?$pair@$$CBG_N@std@@AEBUpiecewise_construct_t@2@V?$tuple@$$QEAG@2@V?$tuple@$$V@2@X@std@@YAPEAU?$pair@$$CBG_N@0@QEAU10@AEBUpiecewise_construct_t@0@$$QEAV?$tuple@$$QEAG@0@$$QEAV?$tuple@$$V@0@@Z
pdata	ENDS
;	COMDAT pdata
pdata	SEGMENT
$pdata$??$_Construct_in_place@V?$_List_unchecked_iterator@V?$_List_val@U?$_List_simple_types@U?$pair@$$CBG_N@std@@@std@@@std@@@std@@AEBV12@@std@@YAXAEAV?$_List_unchecked_iterator@V?$_List_val@U?$_List_simple_types@U?$pair@$$CBG_N@std@@@std@@@std@@@0@AEBV10@@Z DD imagerel $LN5
	DD	imagerel $LN5+135
	DD	imagerel $unwind$??$_Construct_in_place@V?$_List_unchecked_iterator@V?$_List_val@U?$_List_simple_types@U?$pair@$$CBG_N@std@@@std@@@std@@@std@@AEBV12@@std@@YAXAEAV?$_List_unchecked_iterator@V?$_List_val@U?$_List_simple_types@U?$pair@$$CBG_N@std@@@std@@@std@@@0@AEBV10@@Z
pdata	ENDS
;	COMDAT pdata
pdata	SEGMENT
$pdata$??$_Fnv1a_append_value@G@std@@YA_K_KAEBG@Z DD imagerel $LN3
	DD	imagerel $LN3+40
	DD	imagerel $unwind$??$_Fnv1a_append_value@G@std@@YA_K_KAEBG@Z
pdata	ENDS
;	COMDAT pdata
pdata	SEGMENT
$pdata$??$?0AEBG@?$_Tuple_val@AEBG@std@@QEAA@AEBG@Z DD imagerel $LN3
	DD	imagerel $LN3+42
	DD	imagerel $unwind$??$?0AEBG@?$_Tuple_val@AEBG@std@@QEAA@AEBG@Z
pdata	ENDS
;	COMDAT pdata
pdata	SEGMENT
$pdata$??$?0V?$tuple@AEBG@std@@V?$tuple@$$V@1@$0A@$$Z$S@?$pair@$$CBG_N@std@@QEAA@AEAV?$tuple@AEBG@1@AEAV?$tuple@$$V@1@U?$integer_sequence@_K$0A@@1@U?$integer_sequence@_K$S@1@@Z DD imagerel $LN3
	DD	imagerel $LN3+72
	DD	imagerel $unwind$??$?0V?$tuple@AEBG@std@@V?$tuple@$$V@1@$0A@$$Z$S@?$pair@$$CBG_N@std@@QEAA@AEAV?$tuple@AEBG@1@AEAV?$tuple@$$V@1@U?$integer_sequence@_K$0A@@1@U?$integer_sequence@_K$S@1@@Z
pdata	ENDS
;	COMDAT pdata
pdata	SEGMENT
$pdata$??$?0G@?$_Tuple_val@$$QEAG@std@@QEAA@$$QEAG@Z DD imagerel $LN3
	DD	imagerel $LN3+42
	DD	imagerel $unwind$??$?0G@?$_Tuple_val@$$QEAG@std@@QEAA@$$QEAG@Z
pdata	ENDS
;	COMDAT pdata
pdata	SEGMENT
$pdata$??$?0V?$tuple@$$QEAG@std@@V?$tuple@$$V@1@$0A@$$Z$S@?$pair@$$CBG_N@std@@QEAA@AEAV?$tuple@$$QEAG@1@AEAV?$tuple@$$V@1@U?$integer_sequence@_K$0A@@1@U?$integer_sequence@_K$S@1@@Z DD imagerel $LN3
	DD	imagerel $LN3+72
	DD	imagerel $unwind$??$?0V?$tuple@$$QEAG@std@@V?$tuple@$$V@1@$0A@$$Z$S@?$pair@$$CBG_N@std@@QEAA@AEAV?$tuple@$$QEAG@1@AEAV?$tuple@$$V@1@U?$integer_sequence@_K$0A@@1@U?$integer_sequence@_K$S@1@@Z
pdata	ENDS
;	COMDAT pdata
pdata	SEGMENT
$pdata$??$construct_at@V?$_List_unchecked_iterator@V?$_List_val@U?$_List_simple_types@U?$pair@$$CBG_N@std@@@std@@@std@@@std@@AEBV12@X@std@@YAPEAV?$_List_unchecked_iterator@V?$_List_val@U?$_List_simple_types@U?$pair@$$CBG_N@std@@@std@@@std@@@0@QEAV10@AEBV10@@Z DD imagerel $LN3
	DD	imagerel $LN3+73
	DD	imagerel $unwind$??$construct_at@V?$_List_unchecked_iterator@V?$_List_val@U?$_List_simple_types@U?$pair@$$CBG_N@std@@@std@@@std@@@std@@AEBV12@X@std@@YAPEAV?$_List_unchecked_iterator@V?$_List_val@U?$_List_simple_types@U?$pair@$$CBG_N@std@@@std@@@std@@@0@QEAV10@AEBV10@@Z
pdata	ENDS
;	COMDAT __real@5f000000
CONST	SEGMENT
__real@5f000000 DD 05f000000r			; 9.22337e+18
CONST	ENDS
;	COMDAT ??_R1A@?0A@EA@bad_array_new_length@std@@8
rdata$r	SEGMENT
??_R1A@?0A@EA@bad_array_new_length@std@@8 DD imagerel ??_R0?AVbad_array_new_length@std@@@8 ; std::bad_array_new_length::`RTTI Base Class Descriptor at (0,-1,0,64)'
	DD	02H
	DD	00H
	DD	0ffffffffH
	DD	00H
	DD	040H
	DD	imagerel ??_R3bad_array_new_length@std@@8
rdata$r	ENDS
;	COMDAT ??_R2bad_array_new_length@std@@8
rdata$r	SEGMENT
??_R2bad_array_new_length@std@@8 DD imagerel ??_R1A@?0A@EA@bad_array_new_length@std@@8 ; std::bad_array_new_length::`RTTI Base Class Array'
	DD	imagerel ??_R1A@?0A@EA@bad_alloc@std@@8
	DD	imagerel ??_R1A@?0A@EA@exception@std@@8
	ORG $+3
rdata$r	ENDS
;	COMDAT ??_R3bad_array_new_length@std@@8
rdata$r	SEGMENT
??_R3bad_array_new_length@std@@8 DD 00H			; std::bad_array_new_length::`RTTI Class Hierarchy Descriptor'
	DD	00H
	DD	03H
	DD	imagerel ??_R2bad_array_new_length@std@@8
rdata$r	ENDS
;	COMDAT ??_R4bad_array_new_length@std@@6B@
rdata$r	SEGMENT
??_R4bad_array_new_length@std@@6B@ DD 01H		; std::bad_array_new_length::`RTTI Complete Object Locator'
	DD	00H
	DD	00H
	DD	imagerel ??_R0?AVbad_array_new_length@std@@@8
	DD	imagerel ??_R3bad_array_new_length@std@@8
	DD	imagerel ??_R4bad_array_new_length@std@@6B@
rdata$r	ENDS
;	COMDAT ??_R1A@?0A@EA@bad_alloc@std@@8
rdata$r	SEGMENT
??_R1A@?0A@EA@bad_alloc@std@@8 DD imagerel ??_R0?AVbad_alloc@std@@@8 ; std::bad_alloc::`RTTI Base Class Descriptor at (0,-1,0,64)'
	DD	01H
	DD	00H
	DD	0ffffffffH
	DD	00H
	DD	040H
	DD	imagerel ??_R3bad_alloc@std@@8
rdata$r	ENDS
;	COMDAT ??_R2bad_alloc@std@@8
rdata$r	SEGMENT
??_R2bad_alloc@std@@8 DD imagerel ??_R1A@?0A@EA@bad_alloc@std@@8 ; std::bad_alloc::`RTTI Base Class Array'
	DD	imagerel ??_R1A@?0A@EA@exception@std@@8
	ORG $+3
rdata$r	ENDS
;	COMDAT ??_R3bad_alloc@std@@8
rdata$r	SEGMENT
??_R3bad_alloc@std@@8 DD 00H				; std::bad_alloc::`RTTI Class Hierarchy Descriptor'
	DD	00H
	DD	02H
	DD	imagerel ??_R2bad_alloc@std@@8
rdata$r	ENDS
;	COMDAT ??_R4bad_alloc@std@@6B@
rdata$r	SEGMENT
??_R4bad_alloc@std@@6B@ DD 01H				; std::bad_alloc::`RTTI Complete Object Locator'
	DD	00H
	DD	00H
	DD	imagerel ??_R0?AVbad_alloc@std@@@8
	DD	imagerel ??_R3bad_alloc@std@@8
	DD	imagerel ??_R4bad_alloc@std@@6B@
rdata$r	ENDS
;	COMDAT ??_R1A@?0A@EA@exception@std@@8
rdata$r	SEGMENT
??_R1A@?0A@EA@exception@std@@8 DD imagerel ??_R0?AVexception@std@@@8 ; std::exception::`RTTI Base Class Descriptor at (0,-1,0,64)'
	DD	00H
	DD	00H
	DD	0ffffffffH
	DD	00H
	DD	040H
	DD	imagerel ??_R3exception@std@@8
rdata$r	ENDS
;	COMDAT ??_R2exception@std@@8
rdata$r	SEGMENT
??_R2exception@std@@8 DD imagerel ??_R1A@?0A@EA@exception@std@@8 ; std::exception::`RTTI Base Class Array'
	ORG $+3
rdata$r	ENDS
;	COMDAT ??_R3exception@std@@8
rdata$r	SEGMENT
??_R3exception@std@@8 DD 00H				; std::exception::`RTTI Class Hierarchy Descriptor'
	DD	00H
	DD	01H
	DD	imagerel ??_R2exception@std@@8
rdata$r	ENDS
;	COMDAT ??_R4exception@std@@6B@
rdata$r	SEGMENT
??_R4exception@std@@6B@ DD 01H				; std::exception::`RTTI Complete Object Locator'
	DD	00H
	DD	00H
	DD	imagerel ??_R0?AVexception@std@@@8
	DD	imagerel ??_R3exception@std@@8
	DD	imagerel ??_R4exception@std@@6B@
rdata$r	ENDS
;	COMDAT ??_C@_0BK@OGNNAFAB@invalid?5hash?5bucket?5count@
CONST	SEGMENT
??_C@_0BK@OGNNAFAB@invalid?5hash?5bucket?5count@ DB 'invalid hash bucket '
	DB	'count', 00H					; `string'
CONST	ENDS
;	COMDAT ??_C@_0BL@GOIGLPKN@unordered_map?1set?5too?5long@
CONST	SEGMENT
??_C@_0BL@GOIGLPKN@unordered_map?1set?5too?5long@ DB 'unordered_map/set t'
	DB	'oo long', 00H				; `string'
CONST	ENDS
;	COMDAT ?_Min_buckets@?$_Hash@V?$_Umap_traits@G_NV?$_Uhash_compare@GU?$hash@G@std@@U?$equal_to@G@2@@std@@V?$allocator@U?$pair@$$CBG_N@std@@@2@$0A@@std@@@std@@2_KB
CONST	SEGMENT
?_Min_buckets@?$_Hash@V?$_Umap_traits@G_NV?$_Uhash_compare@GU?$hash@G@std@@U?$equal_to@G@2@@std@@V?$allocator@U?$pair@$$CBG_N@std@@@2@$0A@@std@@@std@@2_KB DQ 0000000000000008H ; std::_Hash<std::_Umap_traits<unsigned short,bool,std::_Uhash_compare<unsigned short,std::hash<unsigned short>,std::equal_to<unsigned short> >,std::allocator<std::pair<unsigned short const ,bool> >,0> >::_Min_buckets
CONST	ENDS
;	COMDAT _CT??_R0?AVexception@std@@@8??0exception@std@@QEAA@AEBV01@@Z24
xdata$x	SEGMENT
_CT??_R0?AVexception@std@@@8??0exception@std@@QEAA@AEBV01@@Z24 DD 00H
	DD	imagerel ??_R0?AVexception@std@@@8
	DD	00H
	DD	0ffffffffH
	ORG $+4
	DD	018H
	DD	imagerel ??0exception@std@@QEAA@AEBV01@@Z
xdata$x	ENDS
;	COMDAT ??_R0?AVexception@std@@@8
data$r	SEGMENT
??_R0?AVexception@std@@@8 DQ FLAT:??_7type_info@@6B@	; std::exception `RTTI Type Descriptor'
	DQ	0000000000000000H
	DB	'.?AVexception@std@@', 00H
data$r	ENDS
;	COMDAT _CT??_R0?AVbad_alloc@std@@@8??0bad_alloc@std@@QEAA@AEBV01@@Z24
xdata$x	SEGMENT
_CT??_R0?AVbad_alloc@std@@@8??0bad_alloc@std@@QEAA@AEBV01@@Z24 DD 010H
	DD	imagerel ??_R0?AVbad_alloc@std@@@8
	DD	00H
	DD	0ffffffffH
	ORG $+4
	DD	018H
	DD	imagerel ??0bad_alloc@std@@QEAA@AEBV01@@Z
xdata$x	ENDS
;	COMDAT ??_R0?AVbad_alloc@std@@@8
data$r	SEGMENT
??_R0?AVbad_alloc@std@@@8 DQ FLAT:??_7type_info@@6B@	; std::bad_alloc `RTTI Type Descriptor'
	DQ	0000000000000000H
	DB	'.?AVbad_alloc@std@@', 00H
data$r	ENDS
;	COMDAT _CT??_R0?AVbad_array_new_length@std@@@8??0bad_array_new_length@std@@QEAA@AEBV01@@Z24
xdata$x	SEGMENT
_CT??_R0?AVbad_array_new_length@std@@@8??0bad_array_new_length@std@@QEAA@AEBV01@@Z24 DD 00H
	DD	imagerel ??_R0?AVbad_array_new_length@std@@@8
	DD	00H
	DD	0ffffffffH
	ORG $+4
	DD	018H
	DD	imagerel ??0bad_array_new_length@std@@QEAA@AEBV01@@Z
xdata$x	ENDS
;	COMDAT ??_R0?AVbad_array_new_length@std@@@8
data$r	SEGMENT
??_R0?AVbad_array_new_length@std@@@8 DQ FLAT:??_7type_info@@6B@ ; std::bad_array_new_length `RTTI Type Descriptor'
	DQ	0000000000000000H
	DB	'.?AVbad_array_new_length@std@@', 00H
data$r	ENDS
;	COMDAT _CTA3?AVbad_array_new_length@std@@
xdata$x	SEGMENT
_CTA3?AVbad_array_new_length@std@@ DD 03H
	DD	imagerel _CT??_R0?AVbad_array_new_length@std@@@8??0bad_array_new_length@std@@QEAA@AEBV01@@Z24
	DD	imagerel _CT??_R0?AVbad_alloc@std@@@8??0bad_alloc@std@@QEAA@AEBV01@@Z24
	DD	imagerel _CT??_R0?AVexception@std@@@8??0exception@std@@QEAA@AEBV01@@Z24
xdata$x	ENDS
;	COMDAT _TI3?AVbad_array_new_length@std@@
xdata$x	SEGMENT
_TI3?AVbad_array_new_length@std@@ DD 00H
	DD	imagerel ??1bad_array_new_length@std@@UEAA@XZ
	DD	00H
	DD	imagerel _CTA3?AVbad_array_new_length@std@@
xdata$x	ENDS
;	COMDAT ??_C@_0BF@KINCDENJ@bad?5array?5new?5length@
CONST	SEGMENT
??_C@_0BF@KINCDENJ@bad?5array?5new?5length@ DB 'bad array new length', 00H ; `string'
CONST	ENDS
;	COMDAT ??_7bad_array_new_length@std@@6B@
CONST	SEGMENT
??_7bad_array_new_length@std@@6B@ DQ FLAT:??_R4bad_array_new_length@std@@6B@ ; std::bad_array_new_length::`vftable'
	DQ	FLAT:??_Ebad_array_new_length@std@@UEAAPEAXI@Z
	DQ	FLAT:?what@exception@std@@UEBAPEBDXZ
CONST	ENDS
;	COMDAT ??_7bad_alloc@std@@6B@
CONST	SEGMENT
??_7bad_alloc@std@@6B@ DQ FLAT:??_R4bad_alloc@std@@6B@	; std::bad_alloc::`vftable'
	DQ	FLAT:??_Ebad_alloc@std@@UEAAPEAXI@Z
	DQ	FLAT:?what@exception@std@@UEBAPEBDXZ
CONST	ENDS
;	COMDAT ??_C@_0BC@EOODALEL@Unknown?5exception@
CONST	SEGMENT
??_C@_0BC@EOODALEL@Unknown?5exception@ DB 'Unknown exception', 00H ; `string'
CONST	ENDS
;	COMDAT ??_7exception@std@@6B@
CONST	SEGMENT
??_7exception@std@@6B@ DQ FLAT:??_R4exception@std@@6B@	; std::exception::`vftable'
	DQ	FLAT:??_Eexception@std@@UEAAPEAXI@Z
	DQ	FLAT:?what@exception@std@@UEBAPEBDXZ
CONST	ENDS
;	COMDAT ?piecewise_construct@std@@3Upiecewise_construct_t@1@B
CONST	SEGMENT
?piecewise_construct@std@@3Upiecewise_construct_t@1@B	ORG $+1 ; std::piecewise_construct
CONST	ENDS
;	COMDAT xdata
xdata	SEGMENT
$unwind$??$construct_at@V?$_List_unchecked_iterator@V?$_List_val@U?$_List_simple_types@U?$pair@$$CBG_N@std@@@std@@@std@@@std@@AEBV12@X@std@@YAPEAV?$_List_unchecked_iterator@V?$_List_val@U?$_List_simple_types@U?$pair@$$CBG_N@std@@@std@@@std@@@0@QEAV10@AEBV10@@Z DD 010e01H
	DD	0620eH
xdata	ENDS
;	COMDAT xdata
xdata	SEGMENT
$unwind$??$?0V?$tuple@$$QEAG@std@@V?$tuple@$$V@1@$0A@$$Z$S@?$pair@$$CBG_N@std@@QEAA@AEAV?$tuple@$$QEAG@1@AEAV?$tuple@$$V@1@U?$integer_sequence@_K$0A@@1@U?$integer_sequence@_K$S@1@@Z DD 011801H
	DD	04218H
xdata	ENDS
;	COMDAT xdata
xdata	SEGMENT
$unwind$??$?0G@?$_Tuple_val@$$QEAG@std@@QEAA@$$QEAG@Z DD 010e01H
	DD	0420eH
xdata	ENDS
;	COMDAT xdata
xdata	SEGMENT
$unwind$??$?0V?$tuple@AEBG@std@@V?$tuple@$$V@1@$0A@$$Z$S@?$pair@$$CBG_N@std@@QEAA@AEAV?$tuple@AEBG@1@AEAV?$tuple@$$V@1@U?$integer_sequence@_K$0A@@1@U?$integer_sequence@_K$S@1@@Z DD 011801H
	DD	04218H
xdata	ENDS
;	COMDAT xdata
xdata	SEGMENT
$unwind$??$?0AEBG@?$_Tuple_val@AEBG@std@@QEAA@AEBG@Z DD 010e01H
	DD	0420eH
xdata	ENDS
;	COMDAT xdata
xdata	SEGMENT
$unwind$??$_Fnv1a_append_value@G@std@@YA_K_KAEBG@Z DD 010e01H
	DD	0420eH
xdata	ENDS
;	COMDAT xdata
xdata	SEGMENT
$unwind$??$_Construct_in_place@V?$_List_unchecked_iterator@V?$_List_val@U?$_List_simple_types@U?$pair@$$CBG_N@std@@@std@@@std@@@std@@AEBV12@@std@@YAXAEAV?$_List_unchecked_iterator@V?$_List_val@U?$_List_simple_types@U?$pair@$$CBG_N@std@@@std@@@std@@@0@AEBV10@@Z DD 010e01H
	DD	0820eH
xdata	ENDS
;	COMDAT xdata
xdata	SEGMENT
$unwind$??$construct_at@U?$pair@$$CBG_N@std@@AEBUpiecewise_construct_t@2@V?$tuple@$$QEAG@2@V?$tuple@$$V@2@X@std@@YAPEAU?$pair@$$CBG_N@0@QEAU10@AEBUpiecewise_construct_t@0@$$QEAV?$tuple@$$QEAG@0@$$QEAV?$tuple@$$V@0@@Z DD 011801H
	DD	0c218H
xdata	ENDS
;	COMDAT xdata
xdata	SEGMENT
$unwind$??$?0$$QEAG$$Z$$V@?$pair@$$CBG_N@std@@QEAA@Upiecewise_construct_t@1@V?$tuple@$$QEAG@1@V?$tuple@$$V@1@@Z DD 021801H
	DD	070147218H
xdata	ENDS
;	COMDAT xdata
xdata	SEGMENT
$unwind$??$?0U_Exact_args_t@std@@G$$V$0A@@?$tuple@$$QEAG@std@@QEAA@U_Exact_args_t@1@$$QEAG@Z DD 011201H
	DD	06212H
xdata	ENDS
;	COMDAT xdata
xdata	SEGMENT
$unwind$??$construct_at@U?$pair@$$CBG_N@std@@AEBUpiecewise_construct_t@2@V?$tuple@AEBG@2@V?$tuple@$$V@2@X@std@@YAPEAU?$pair@$$CBG_N@0@QEAU10@AEBUpiecewise_construct_t@0@$$QEAV?$tuple@AEBG@0@$$QEAV?$tuple@$$V@0@@Z DD 011801H
	DD	0c218H
xdata	ENDS
;	COMDAT xdata
xdata	SEGMENT
$unwind$??$?0AEBG$$Z$$V@?$pair@$$CBG_N@std@@QEAA@Upiecewise_construct_t@1@V?$tuple@AEBG@1@V?$tuple@$$V@1@@Z DD 021801H
	DD	070147218H
xdata	ENDS
;	COMDAT xdata
xdata	SEGMENT
$unwind$??$?0U_Exact_args_t@std@@AEBG$$V$0A@@?$tuple@AEBG@std@@QEAA@U_Exact_args_t@1@AEBG@Z DD 011201H
	DD	06212H
xdata	ENDS
;	COMDAT xdata
xdata	SEGMENT
$unwind$??$_Hash_representation@G@std@@YA_KAEBG@Z DD 010901H
	DD	04209H
xdata	ENDS
;	COMDAT xdata
xdata	SEGMENT
$unwind$??$_Get_size_of_n@$0BI@@std@@YA_K_K@Z DD 010901H
	DD	06209H
xdata	ENDS
;	COMDAT xdata
xdata	SEGMENT
$ip2state$??$_Freenode0@V?$allocator@U?$_List_node@U?$pair@$$CBG_N@std@@PEAX@std@@@std@@@?$_List_node@U?$pair@$$CBG_N@std@@PEAX@std@@SAXAEAV?$allocator@U?$_List_node@U?$pair@$$CBG_N@std@@PEAX@std@@@1@PEAU01@@Z DB 02H
	DB	00H
	DB	00H
xdata	ENDS
;	COMDAT xdata
xdata	SEGMENT
$cppxdata$??$_Freenode0@V?$allocator@U?$_List_node@U?$pair@$$CBG_N@std@@PEAX@std@@@std@@@?$_List_node@U?$pair@$$CBG_N@std@@PEAX@std@@SAXAEAV?$allocator@U?$_List_node@U?$pair@$$CBG_N@std@@PEAX@std@@@1@PEAU01@@Z DB 060H
	DD	imagerel $ip2state$??$_Freenode0@V?$allocator@U?$_List_node@U?$pair@$$CBG_N@std@@PEAX@std@@@std@@@?$_List_node@U?$pair@$$CBG_N@std@@PEAX@std@@SAXAEAV?$allocator@U?$_List_node@U?$pair@$$CBG_N@std@@PEAX@std@@@1@PEAU01@@Z
xdata	ENDS
;	COMDAT xdata
xdata	SEGMENT
$unwind$??$_Freenode0@V?$allocator@U?$_List_node@U?$pair@$$CBG_N@std@@PEAX@std@@@std@@@?$_List_node@U?$pair@$$CBG_N@std@@PEAX@std@@SAXAEAV?$allocator@U?$_List_node@U?$pair@$$CBG_N@std@@PEAX@std@@@1@PEAU01@@Z DD 010e19H
	DD	0420eH
	DD	imagerel __CxxFrameHandler4
	DD	imagerel $cppxdata$??$_Freenode0@V?$allocator@U?$_List_node@U?$pair@$$CBG_N@std@@PEAX@std@@@std@@@?$_List_node@U?$pair@$$CBG_N@std@@PEAX@std@@SAXAEAV?$allocator@U?$_List_node@U?$pair@$$CBG_N@std@@PEAX@std@@@1@PEAU01@@Z
xdata	ENDS
;	COMDAT xdata
xdata	SEGMENT
$unwind$??$_Emplace_back@AEBV?$_List_unchecked_iterator@V?$_List_val@U?$_List_simple_types@U?$pair@$$CBG_N@std@@@std@@@std@@@std@@@?$_Uninitialized_backout@PEAV?$_List_unchecked_iterator@V?$_List_val@U?$_List_simple_types@U?$pair@$$CBG_N@std@@@std@@@std@@@std@@@std@@QEAAXAEBV?$_List_unchecked_iterator@V?$_List_val@U?$_List_simple_types@U?$pair@$$CBG_N@std@@@std@@@std@@@1@@Z DD 010e01H
	DD	0620eH
xdata	ENDS
;	COMDAT xdata
xdata	SEGMENT
$unwind$??1?$_Uninitialized_backout@PEAV?$_List_unchecked_iterator@V?$_List_val@U?$_List_simple_types@U?$pair@$$CBG_N@std@@@std@@@std@@@std@@@std@@QEAA@XZ DD 010901H
	DD	04209H
xdata	ENDS
;	COMDAT xdata
xdata	SEGMENT
$unwind$??$construct_at@PEAU?$_List_node@U?$pair@$$CBG_N@std@@PEAX@std@@AEBQEAU12@X@std@@YAPEAPEAU?$_List_node@U?$pair@$$CBG_N@std@@PEAX@0@QEAPEAU10@AEBQEAU10@@Z DD 010e01H
	DD	0620eH
xdata	ENDS
;	COMDAT xdata
xdata	SEGMENT
$unwind$??$construct@U?$pair@$$CBG_N@std@@AEBUpiecewise_construct_t@2@V?$tuple@$$QEAG@2@V?$tuple@$$V@2@@?$_Default_allocator_traits@V?$allocator@U?$_List_node@U?$pair@$$CBG_N@std@@PEAX@std@@@std@@@std@@SAXAEAV?$allocator@U?$_List_node@U?$pair@$$CBG_N@std@@PEAX@std@@@1@QEAU?$pair@$$CBG_N@1@AEBUpiecewise_construct_t@1@$$QEAV?$tuple@$$QEAG@1@$$QEAV?$tuple@$$V@1@@Z DD 011801H
	DD	0e218H
xdata	ENDS
;	COMDAT xdata
xdata	SEGMENT
$ip2state$??$?0G$$V$0A@@?$tuple@$$QEAG@std@@QEAA@$$QEAG@Z DB 02H
	DB	00H
	DB	00H
xdata	ENDS
;	COMDAT xdata
xdata	SEGMENT
$cppxdata$??$?0G$$V$0A@@?$tuple@$$QEAG@std@@QEAA@$$QEAG@Z DB 060H
	DD	imagerel $ip2state$??$?0G$$V$0A@@?$tuple@$$QEAG@std@@QEAA@$$QEAG@Z
xdata	ENDS
;	COMDAT xdata
xdata	SEGMENT
$unwind$??$?0G$$V$0A@@?$tuple@$$QEAG@std@@QEAA@$$QEAG@Z DD 010e19H
	DD	0620eH
	DD	imagerel __CxxFrameHandler4
	DD	imagerel $cppxdata$??$?0G$$V$0A@@?$tuple@$$QEAG@std@@QEAA@$$QEAG@Z
xdata	ENDS
;	COMDAT xdata
xdata	SEGMENT
$unwind$??$construct@U?$pair@$$CBG_N@std@@AEBUpiecewise_construct_t@2@V?$tuple@AEBG@2@V?$tuple@$$V@2@@?$_Default_allocator_traits@V?$allocator@U?$_List_node@U?$pair@$$CBG_N@std@@PEAX@std@@@std@@@std@@SAXAEAV?$allocator@U?$_List_node@U?$pair@$$CBG_N@std@@PEAX@std@@@1@QEAU?$pair@$$CBG_N@1@AEBUpiecewise_construct_t@1@$$QEAV?$tuple@AEBG@1@$$QEAV?$tuple@$$V@1@@Z DD 011801H
	DD	0e218H
xdata	ENDS
;	COMDAT xdata
xdata	SEGMENT
$ip2state$??$?0AEBG$0A@@?$tuple@AEBG@std@@QEAA@AEBG@Z DB 02H
	DB	00H
	DB	00H
xdata	ENDS
;	COMDAT xdata
xdata	SEGMENT
$cppxdata$??$?0AEBG$0A@@?$tuple@AEBG@std@@QEAA@AEBG@Z DB 060H
	DD	imagerel $ip2state$??$?0AEBG$0A@@?$tuple@AEBG@std@@QEAA@AEBG@Z
xdata	ENDS
;	COMDAT xdata
xdata	SEGMENT
$unwind$??$?0AEBG$0A@@?$tuple@AEBG@std@@QEAA@AEBG@Z DD 010e19H
	DD	0620eH
	DD	imagerel __CxxFrameHandler4
	DD	imagerel $cppxdata$??$?0AEBG$0A@@?$tuple@AEBG@std@@QEAA@AEBG@Z
xdata	ENDS
;	COMDAT xdata
xdata	SEGMENT
$ip2state$??$_Freenode@V?$allocator@U?$_List_node@U?$pair@$$CBG_N@std@@PEAX@std@@@std@@@?$_List_node@U?$pair@$$CBG_N@std@@PEAX@std@@SAXAEAV?$allocator@U?$_List_node@U?$pair@$$CBG_N@std@@PEAX@std@@@1@PEAU01@@Z DB 02H
	DB	00H
	DB	00H
xdata	ENDS
;	COMDAT xdata
xdata	SEGMENT
$cppxdata$??$_Freenode@V?$allocator@U?$_List_node@U?$pair@$$CBG_N@std@@PEAX@std@@@std@@@?$_List_node@U?$pair@$$CBG_N@std@@PEAX@std@@SAXAEAV?$allocator@U?$_List_node@U?$pair@$$CBG_N@std@@PEAX@std@@@1@PEAU01@@Z DB 060H
	DD	imagerel $ip2state$??$_Freenode@V?$allocator@U?$_List_node@U?$pair@$$CBG_N@std@@PEAX@std@@@std@@@?$_List_node@U?$pair@$$CBG_N@std@@PEAX@std@@SAXAEAV?$allocator@U?$_List_node@U?$pair@$$CBG_N@std@@PEAX@std@@@1@PEAU01@@Z
xdata	ENDS
;	COMDAT xdata
xdata	SEGMENT
$unwind$??$_Freenode@V?$allocator@U?$_List_node@U?$pair@$$CBG_N@std@@PEAX@std@@@std@@@?$_List_node@U?$pair@$$CBG_N@std@@PEAX@std@@SAXAEAV?$allocator@U?$_List_node@U?$pair@$$CBG_N@std@@PEAX@std@@@1@PEAU01@@Z DD 010e19H
	DD	0420eH
	DD	imagerel __CxxFrameHandler4
	DD	imagerel $cppxdata$??$_Freenode@V?$allocator@U?$_List_node@U?$pair@$$CBG_N@std@@PEAX@std@@@std@@@?$_List_node@U?$pair@$$CBG_N@std@@PEAX@std@@SAXAEAV?$allocator@U?$_List_node@U?$pair@$$CBG_N@std@@PEAX@std@@@1@PEAU01@@Z
xdata	ENDS
;	COMDAT xdata
xdata	SEGMENT
$unwind$??$_Free_non_head@V?$allocator@U?$_List_node@U?$pair@$$CBG_N@std@@PEAX@std@@@std@@@?$_List_node@U?$pair@$$CBG_N@std@@PEAX@std@@SAXAEAV?$allocator@U?$_List_node@U?$pair@$$CBG_N@std@@PEAX@std@@@1@PEAU01@@Z DD 010e01H
	DD	0620eH
xdata	ENDS
;	COMDAT xdata
xdata	SEGMENT
$unwind$?_Bump_erased@_Range_eraser@?$_Hash@V?$_Umap_traits@G_NV?$_Uhash_compare@GU?$hash@G@std@@U?$equal_to@G@2@@std@@V?$allocator@U?$pair@$$CBG_N@std@@@2@$0A@@std@@@std@@QEAAXXZ DD 010901H
	DD	06209H
xdata	ENDS
;	COMDAT xdata
xdata	SEGMENT
$unwind$??$_Get_size_of_n@$07@std@@YA_K_K@Z DD 010901H
	DD	06209H
xdata	ENDS
;	COMDAT xdata
xdata	SEGMENT
$unwind$??$fill@PEAV?$_List_unchecked_iterator@V?$_List_val@U?$_List_simple_types@U?$pair@$$CBG_N@std@@@std@@@std@@@std@@V12@@std@@YAXQEAV?$_List_unchecked_iterator@V?$_List_val@U?$_List_simple_types@U?$pair@$$CBG_N@std@@@std@@@std@@@0@0AEBV10@@Z DD 011301H
	DD	06213H
xdata	ENDS
;	COMDAT xdata
xdata	SEGMENT
$unwind$?dtor$0@?0???$uninitialized_fill@PEAV?$_List_unchecked_iterator@V?$_List_val@U?$_List_simple_types@U?$pair@$$CBG_N@std@@@std@@@std@@@std@@V12@@std@@YAXQEAV?$_List_unchecked_iterator@V?$_List_val@U?$_List_simple_types@U?$pair@$$CBG_N@std@@@std@@@std@@@0@0AEBV10@@Z@4HA DD 020601H
	DD	050023206H
xdata	ENDS
;	COMDAT xdata
xdata	SEGMENT
$ip2state$??$uninitialized_fill@PEAV?$_List_unchecked_iterator@V?$_List_val@U?$_List_simple_types@U?$pair@$$CBG_N@std@@@std@@@std@@@std@@V12@@std@@YAXQEAV?$_List_unchecked_iterator@V?$_List_val@U?$_List_simple_types@U?$pair@$$CBG_N@std@@@std@@@std@@@0@0AEBV10@@Z DB 06H
	DB	00H
	DB	00H
	DB	0a0H
	DB	02H
	DB	'P'
	DB	00H
xdata	ENDS
;	COMDAT xdata
xdata	SEGMENT
$stateUnwindMap$??$uninitialized_fill@PEAV?$_List_unchecked_iterator@V?$_List_val@U?$_List_simple_types@U?$pair@$$CBG_N@std@@@std@@@std@@@std@@V12@@std@@YAXQEAV?$_List_unchecked_iterator@V?$_List_val@U?$_List_simple_types@U?$pair@$$CBG_N@std@@@std@@@std@@@0@0AEBV10@@Z DB 02H
	DB	0eH
	DD	imagerel ?dtor$0@?0???$uninitialized_fill@PEAV?$_List_unchecked_iterator@V?$_List_val@U?$_List_simple_types@U?$pair@$$CBG_N@std@@@std@@@std@@@std@@V12@@std@@YAXQEAV?$_List_unchecked_iterator@V?$_List_val@U?$_List_simple_types@U?$pair@$$CBG_N@std@@@std@@@std@@@0@0AEBV10@@Z@4HA
xdata	ENDS
;	COMDAT xdata
xdata	SEGMENT
$cppxdata$??$uninitialized_fill@PEAV?$_List_unchecked_iterator@V?$_List_val@U?$_List_simple_types@U?$pair@$$CBG_N@std@@@std@@@std@@@std@@V12@@std@@YAXQEAV?$_List_unchecked_iterator@V?$_List_val@U?$_List_simple_types@U?$pair@$$CBG_N@std@@@std@@@std@@@0@0AEBV10@@Z DB 028H
	DD	imagerel $stateUnwindMap$??$uninitialized_fill@PEAV?$_List_unchecked_iterator@V?$_List_val@U?$_List_simple_types@U?$pair@$$CBG_N@std@@@std@@@std@@@std@@V12@@std@@YAXQEAV?$_List_unchecked_iterator@V?$_List_val@U?$_List_simple_types@U?$pair@$$CBG_N@std@@@std@@@std@@@0@0AEBV10@@Z
	DD	imagerel $ip2state$??$uninitialized_fill@PEAV?$_List_unchecked_iterator@V?$_List_val@U?$_List_simple_types@U?$pair@$$CBG_N@std@@@std@@@std@@@std@@V12@@std@@YAXQEAV?$_List_unchecked_iterator@V?$_List_val@U?$_List_simple_types@U?$pair@$$CBG_N@std@@@std@@@std@@@0@0AEBV10@@Z
xdata	ENDS
;	COMDAT xdata
xdata	SEGMENT
$unwind$??$uninitialized_fill@PEAV?$_List_unchecked_iterator@V?$_List_val@U?$_List_simple_types@U?$pair@$$CBG_N@std@@@std@@@std@@@std@@V12@@std@@YAXQEAV?$_List_unchecked_iterator@V?$_List_val@U?$_List_simple_types@U?$pair@$$CBG_N@std@@@std@@@std@@@0@0AEBV10@@Z DD 011311H
	DD	08213H
	DD	imagerel __CxxFrameHandler4
	DD	imagerel $cppxdata$??$uninitialized_fill@PEAV?$_List_unchecked_iterator@V?$_List_val@U?$_List_simple_types@U?$pair@$$CBG_N@std@@@std@@@std@@@std@@V12@@std@@YAXQEAV?$_List_unchecked_iterator@V?$_List_val@U?$_List_simple_types@U?$pair@$$CBG_N@std@@@std@@@std@@@0@0AEBV10@@Z
xdata	ENDS
;	COMDAT xdata
xdata	SEGMENT
$unwind$??$?RGG@?$_Uhash_compare@GU?$hash@G@std@@U?$equal_to@G@2@@std@@QEBA_NAEBG0@Z DD 011301H
	DD	06213H
xdata	ENDS
;	COMDAT xdata
xdata	SEGMENT
$unwind$??1_Clear_guard@?$_Hash@V?$_Umap_traits@G_NV?$_Uhash_compare@GU?$hash@G@std@@U?$equal_to@G@2@@std@@V?$allocator@U?$pair@$$CBG_N@std@@@2@$0A@@std@@@std@@QEAA@XZ DD 010901H
	DD	04209H
xdata	ENDS
;	COMDAT xdata
xdata	SEGMENT
$unwind$??0?$_List_unchecked_iterator@V?$_List_val@U?$_List_simple_types@U?$pair@$$CBG_N@std@@@std@@@std@@@std@@QEAA@PEAU?$_List_node@U?$pair@$$CBG_N@std@@PEAX@1@PEBV?$_List_val@U?$_List_simple_types@U?$pair@$$CBG_N@std@@@std@@@1@@Z DD 011301H
	DD	04213H
xdata	ENDS
;	COMDAT xdata
xdata	SEGMENT
$unwind$??E?$_List_unchecked_iterator@V?$_List_val@U?$_List_simple_types@U?$pair@$$CBG_N@std@@@std@@@std@@@std@@QEAAAEAV01@XZ DD 010901H
	DD	04209H
xdata	ENDS
;	COMDAT xdata
xdata	SEGMENT
$unwind$??D?$_List_unchecked_iterator@V?$_List_val@U?$_List_simple_types@U?$pair@$$CBG_N@std@@@std@@@std@@@std@@QEBAAEAU?$pair@$$CBG_N@1@XZ DD 010901H
	DD	04209H
xdata	ENDS
;	COMDAT xdata
xdata	SEGMENT
$unwind$??8?$_List_unchecked_const_iterator@V?$_List_val@U?$_List_simple_types@U?$pair@$$CBG_N@std@@@std@@@std@@U_Iterator_base0@2@@std@@QEBA_NAEBV01@@Z DD 010e01H
	DD	0220eH
xdata	ENDS
;	COMDAT xdata
xdata	SEGMENT
$unwind$??0?$_List_unchecked_const_iterator@V?$_List_val@U?$_List_simple_types@U?$pair@$$CBG_N@std@@@std@@@std@@U_Iterator_base0@2@@std@@QEAA@PEAU?$_List_node@U?$pair@$$CBG_N@std@@PEAX@1@PEBV?$_List_val@U?$_List_simple_types@U?$pair@$$CBG_N@std@@@std@@@1@@Z DD 011301H
	DD	04213H
xdata	ENDS
;	COMDAT xdata
xdata	SEGMENT
$unwind$??$_Construct_in_place@PEAU?$_List_node@U?$pair@$$CBG_N@std@@PEAX@std@@AEBQEAU12@@std@@YAXAEAPEAU?$_List_node@U?$pair@$$CBG_N@std@@PEAX@0@AEBQEAU10@@Z DD 010e01H
	DD	0820eH
xdata	ENDS
;	COMDAT xdata
xdata	SEGMENT
$unwind$??$exchange@PEAU?$_List_node@U?$pair@$$CBG_N@std@@PEAX@std@@$$T@std@@YAPEAU?$_List_node@U?$pair@$$CBG_N@std@@PEAX@0@AEAPEAU10@$$QEA$$T@Z DD 010e01H
	DD	0220eH
xdata	ENDS
;	COMDAT xdata
xdata	SEGMENT
$unwind$??$destroy@U?$pair@$$CBG_N@std@@@?$_Default_allocator_traits@V?$allocator@U?$_List_node@U?$pair@$$CBG_N@std@@PEAX@std@@@std@@@std@@SAXAEAV?$allocator@U?$_List_node@U?$pair@$$CBG_N@std@@PEAX@std@@@1@QEAU?$pair@$$CBG_N@1@@Z DD 010e01H
	DD	0420eH
xdata	ENDS
;	COMDAT xdata
xdata	SEGMENT
$unwind$??$_Allocate_manually_vector_aligned@U_Default_allocate_traits@std@@@std@@YAPEAX_K@Z DD 010901H
	DD	08209H
xdata	ENDS
;	COMDAT xdata
xdata	SEGMENT
$unwind$?dtor$0@?0???$?0AEBUpiecewise_construct_t@std@@V?$tuple@$$QEAG@1@V?$tuple@$$V@1@@?$_List_node_emplace_op2@V?$allocator@U?$_List_node@U?$pair@$$CBG_N@std@@PEAX@std@@@std@@@std@@QEAA@AEAV?$allocator@U?$_List_node@U?$pair@$$CBG_N@std@@PEAX@std@@@1@AEBUpiecewise_construct_t@1@$$QEAV?$tuple@$$QEAG@1@$$QEAV?$tuple@$$V@1@@Z@4HA DD 020601H
	DD	050023206H
xdata	ENDS
;	COMDAT xdata
xdata	SEGMENT
$ip2state$??$?0AEBUpiecewise_construct_t@std@@V?$tuple@$$QEAG@1@V?$tuple@$$V@1@@?$_List_node_emplace_op2@V?$allocator@U?$_List_node@U?$pair@$$CBG_N@std@@PEAX@std@@@std@@@std@@QEAA@AEAV?$allocator@U?$_List_node@U?$pair@$$CBG_N@std@@PEAX@std@@@1@AEBUpiecewise_construct_t@1@$$QEAV?$tuple@$$QEAG@1@$$QEAV?$tuple@$$V@1@@Z DB 06H
	DB	00H
	DB	00H
	DB	'P'
	DB	02H
	DB	'-', 02H
	DB	00H
xdata	ENDS
;	COMDAT xdata
xdata	SEGMENT
$stateUnwindMap$??$?0AEBUpiecewise_construct_t@std@@V?$tuple@$$QEAG@1@V?$tuple@$$V@1@@?$_List_node_emplace_op2@V?$allocator@U?$_List_node@U?$pair@$$CBG_N@std@@PEAX@std@@@std@@@std@@QEAA@AEAV?$allocator@U?$_List_node@U?$pair@$$CBG_N@std@@PEAX@std@@@1@AEBUpiecewise_construct_t@1@$$QEAV?$tuple@$$QEAG@1@$$QEAV?$tuple@$$V@1@@Z DB 02H
	DB	0eH
	DD	imagerel ?dtor$0@?0???$?0AEBUpiecewise_construct_t@std@@V?$tuple@$$QEAG@1@V?$tuple@$$V@1@@?$_List_node_emplace_op2@V?$allocator@U?$_List_node@U?$pair@$$CBG_N@std@@PEAX@std@@@std@@@std@@QEAA@AEAV?$allocator@U?$_List_node@U?$pair@$$CBG_N@std@@PEAX@std@@@1@AEBUpiecewise_construct_t@1@$$QEAV?$tuple@$$QEAG@1@$$QEAV?$tuple@$$V@1@@Z@4HA
xdata	ENDS
;	COMDAT xdata
xdata	SEGMENT
$cppxdata$??$?0AEBUpiecewise_construct_t@std@@V?$tuple@$$QEAG@1@V?$tuple@$$V@1@@?$_List_node_emplace_op2@V?$allocator@U?$_List_node@U?$pair@$$CBG_N@std@@PEAX@std@@@std@@@std@@QEAA@AEAV?$allocator@U?$_List_node@U?$pair@$$CBG_N@std@@PEAX@std@@@1@AEBUpiecewise_construct_t@1@$$QEAV?$tuple@$$QEAG@1@$$QEAV?$tuple@$$V@1@@Z DB 028H
	DD	imagerel $stateUnwindMap$??$?0AEBUpiecewise_construct_t@std@@V?$tuple@$$QEAG@1@V?$tuple@$$V@1@@?$_List_node_emplace_op2@V?$allocator@U?$_List_node@U?$pair@$$CBG_N@std@@PEAX@std@@@std@@@std@@QEAA@AEAV?$allocator@U?$_List_node@U?$pair@$$CBG_N@std@@PEAX@std@@@1@AEBUpiecewise_construct_t@1@$$QEAV?$tuple@$$QEAG@1@$$QEAV?$tuple@$$V@1@@Z
	DD	imagerel $ip2state$??$?0AEBUpiecewise_construct_t@std@@V?$tuple@$$QEAG@1@V?$tuple@$$V@1@@?$_List_node_emplace_op2@V?$allocator@U?$_List_node@U?$pair@$$CBG_N@std@@PEAX@std@@@std@@@std@@QEAA@AEAV?$allocator@U?$_List_node@U?$pair@$$CBG_N@std@@PEAX@std@@@1@AEBUpiecewise_construct_t@1@$$QEAV?$tuple@$$QEAG@1@$$QEAV?$tuple@$$V@1@@Z
xdata	ENDS
;	COMDAT xdata
xdata	SEGMENT
$unwind$??$?0AEBUpiecewise_construct_t@std@@V?$tuple@$$QEAG@1@V?$tuple@$$V@1@@?$_List_node_emplace_op2@V?$allocator@U?$_List_node@U?$pair@$$CBG_N@std@@PEAX@std@@@std@@@std@@QEAA@AEAV?$allocator@U?$_List_node@U?$pair@$$CBG_N@std@@PEAX@std@@@1@AEBUpiecewise_construct_t@1@$$QEAV?$tuple@$$QEAG@1@$$QEAV?$tuple@$$V@1@@Z DD 011811H
	DD	0c218H
	DD	imagerel __CxxFrameHandler4
	DD	imagerel $cppxdata$??$?0AEBUpiecewise_construct_t@std@@V?$tuple@$$QEAG@1@V?$tuple@$$V@1@@?$_List_node_emplace_op2@V?$allocator@U?$_List_node@U?$pair@$$CBG_N@std@@PEAX@std@@@std@@@std@@QEAA@AEAV?$allocator@U?$_List_node@U?$pair@$$CBG_N@std@@PEAX@std@@@1@AEBUpiecewise_construct_t@1@$$QEAV?$tuple@$$QEAG@1@$$QEAV?$tuple@$$V@1@@Z
xdata	ENDS
;	COMDAT xdata
xdata	SEGMENT
$unwind$??0?$tuple@$$QEAG@std@@QEAA@$$QEAV01@@Z DD 010e01H
	DD	0420eH
xdata	ENDS
;	COMDAT xdata
xdata	SEGMENT
$unwind$??$forward_as_tuple@G@std@@YA?AV?$tuple@$$QEAG@0@$$QEAG@Z DD 010e01H
	DD	0420eH
xdata	ENDS
;	COMDAT xdata
xdata	SEGMENT
$unwind$??$?0PEAU?$_List_node@U?$pair@$$CBG_N@std@@PEAX@std@@_N$0A@@?$pair@PEAU?$_List_node@U?$pair@$$CBG_N@std@@PEAX@std@@_N@std@@QEAA@$$QEAPEAU?$_List_node@U?$pair@$$CBG_N@std@@PEAX@1@$$QEA_N@Z DD 011301H
	DD	04213H
xdata	ENDS
;	COMDAT xdata
xdata	SEGMENT
$unwind$??$?0AEAPEAU?$_List_node@U?$pair@$$CBG_N@std@@PEAX@std@@_N$0A@@?$pair@PEAU?$_List_node@U?$pair@$$CBG_N@std@@PEAX@std@@_N@std@@QEAA@AEAPEAU?$_List_node@U?$pair@$$CBG_N@std@@PEAX@1@$$QEA_N@Z DD 011301H
	DD	04213H
xdata	ENDS
;	COMDAT xdata
xdata	SEGMENT
$unwind$?dtor$0@?0???$?0AEBUpiecewise_construct_t@std@@V?$tuple@AEBG@1@V?$tuple@$$V@1@@?$_List_node_emplace_op2@V?$allocator@U?$_List_node@U?$pair@$$CBG_N@std@@PEAX@std@@@std@@@std@@QEAA@AEAV?$allocator@U?$_List_node@U?$pair@$$CBG_N@std@@PEAX@std@@@1@AEBUpiecewise_construct_t@1@$$QEAV?$tuple@AEBG@1@$$QEAV?$tuple@$$V@1@@Z@4HA DD 020601H
	DD	050023206H
xdata	ENDS
;	COMDAT xdata
xdata	SEGMENT
$ip2state$??$?0AEBUpiecewise_construct_t@std@@V?$tuple@AEBG@1@V?$tuple@$$V@1@@?$_List_node_emplace_op2@V?$allocator@U?$_List_node@U?$pair@$$CBG_N@std@@PEAX@std@@@std@@@std@@QEAA@AEAV?$allocator@U?$_List_node@U?$pair@$$CBG_N@std@@PEAX@std@@@1@AEBUpiecewise_construct_t@1@$$QEAV?$tuple@AEBG@1@$$QEAV?$tuple@$$V@1@@Z DB 06H
	DB	00H
	DB	00H
	DB	'P'
	DB	02H
	DB	'-', 02H
	DB	00H
xdata	ENDS
;	COMDAT xdata
xdata	SEGMENT
$stateUnwindMap$??$?0AEBUpiecewise_construct_t@std@@V?$tuple@AEBG@1@V?$tuple@$$V@1@@?$_List_node_emplace_op2@V?$allocator@U?$_List_node@U?$pair@$$CBG_N@std@@PEAX@std@@@std@@@std@@QEAA@AEAV?$allocator@U?$_List_node@U?$pair@$$CBG_N@std@@PEAX@std@@@1@AEBUpiecewise_construct_t@1@$$QEAV?$tuple@AEBG@1@$$QEAV?$tuple@$$V@1@@Z DB 02H
	DB	0eH
	DD	imagerel ?dtor$0@?0???$?0AEBUpiecewise_construct_t@std@@V?$tuple@AEBG@1@V?$tuple@$$V@1@@?$_List_node_emplace_op2@V?$allocator@U?$_List_node@U?$pair@$$CBG_N@std@@PEAX@std@@@std@@@std@@QEAA@AEAV?$allocator@U?$_List_node@U?$pair@$$CBG_N@std@@PEAX@std@@@1@AEBUpiecewise_construct_t@1@$$QEAV?$tuple@AEBG@1@$$QEAV?$tuple@$$V@1@@Z@4HA
xdata	ENDS
;	COMDAT xdata
xdata	SEGMENT
$cppxdata$??$?0AEBUpiecewise_construct_t@std@@V?$tuple@AEBG@1@V?$tuple@$$V@1@@?$_List_node_emplace_op2@V?$allocator@U?$_List_node@U?$pair@$$CBG_N@std@@PEAX@std@@@std@@@std@@QEAA@AEAV?$allocator@U?$_List_node@U?$pair@$$CBG_N@std@@PEAX@std@@@1@AEBUpiecewise_construct_t@1@$$QEAV?$tuple@AEBG@1@$$QEAV?$tuple@$$V@1@@Z DB 028H
	DD	imagerel $stateUnwindMap$??$?0AEBUpiecewise_construct_t@std@@V?$tuple@AEBG@1@V?$tuple@$$V@1@@?$_List_node_emplace_op2@V?$allocator@U?$_List_node@U?$pair@$$CBG_N@std@@PEAX@std@@@std@@@std@@QEAA@AEAV?$allocator@U?$_List_node@U?$pair@$$CBG_N@std@@PEAX@std@@@1@AEBUpiecewise_construct_t@1@$$QEAV?$tuple@AEBG@1@$$QEAV?$tuple@$$V@1@@Z
	DD	imagerel $ip2state$??$?0AEBUpiecewise_construct_t@std@@V?$tuple@AEBG@1@V?$tuple@$$V@1@@?$_List_node_emplace_op2@V?$allocator@U?$_List_node@U?$pair@$$CBG_N@std@@PEAX@std@@@std@@@std@@QEAA@AEAV?$allocator@U?$_List_node@U?$pair@$$CBG_N@std@@PEAX@std@@@1@AEBUpiecewise_construct_t@1@$$QEAV?$tuple@AEBG@1@$$QEAV?$tuple@$$V@1@@Z
xdata	ENDS
;	COMDAT xdata
xdata	SEGMENT
$unwind$??$?0AEBUpiecewise_construct_t@std@@V?$tuple@AEBG@1@V?$tuple@$$V@1@@?$_List_node_emplace_op2@V?$allocator@U?$_List_node@U?$pair@$$CBG_N@std@@PEAX@std@@@std@@@std@@QEAA@AEAV?$allocator@U?$_List_node@U?$pair@$$CBG_N@std@@PEAX@std@@@1@AEBUpiecewise_construct_t@1@$$QEAV?$tuple@AEBG@1@$$QEAV?$tuple@$$V@1@@Z DD 011811H
	DD	0c218H
	DD	imagerel __CxxFrameHandler4
	DD	imagerel $cppxdata$??$?0AEBUpiecewise_construct_t@std@@V?$tuple@AEBG@1@V?$tuple@$$V@1@@?$_List_node_emplace_op2@V?$allocator@U?$_List_node@U?$pair@$$CBG_N@std@@PEAX@std@@@std@@@std@@QEAA@AEAV?$allocator@U?$_List_node@U?$pair@$$CBG_N@std@@PEAX@std@@@1@AEBUpiecewise_construct_t@1@$$QEAV?$tuple@AEBG@1@$$QEAV?$tuple@$$V@1@@Z
xdata	ENDS
;	COMDAT xdata
xdata	SEGMENT
$ip2state$??1?$_List_node_emplace_op2@V?$allocator@U?$_List_node@U?$pair@$$CBG_N@std@@PEAX@std@@@std@@@std@@QEAA@XZ DB 02H
	DB	00H
	DB	00H
xdata	ENDS
;	COMDAT xdata
xdata	SEGMENT
$cppxdata$??1?$_List_node_emplace_op2@V?$allocator@U?$_List_node@U?$pair@$$CBG_N@std@@PEAX@std@@@std@@@std@@QEAA@XZ DB 060H
	DD	imagerel $ip2state$??1?$_List_node_emplace_op2@V?$allocator@U?$_List_node@U?$pair@$$CBG_N@std@@PEAX@std@@@std@@@std@@QEAA@XZ
xdata	ENDS
;	COMDAT xdata
xdata	SEGMENT
$unwind$??1?$_List_node_emplace_op2@V?$allocator@U?$_List_node@U?$pair@$$CBG_N@std@@PEAX@std@@@std@@@std@@QEAA@XZ DD 010919H
	DD	06209H
	DD	imagerel __CxxFrameHandler4
	DD	imagerel $cppxdata$??1?$_List_node_emplace_op2@V?$allocator@U?$_List_node@U?$pair@$$CBG_N@std@@PEAX@std@@@std@@@std@@QEAA@XZ
xdata	ENDS
;	COMDAT xdata
xdata	SEGMENT
$ip2state$??1?$_Alloc_construct_ptr@V?$allocator@U?$_List_node@U?$pair@$$CBG_N@std@@PEAX@std@@@std@@@std@@QEAA@XZ DB 02H
	DB	00H
	DB	00H
xdata	ENDS
;	COMDAT xdata
xdata	SEGMENT
$cppxdata$??1?$_Alloc_construct_ptr@V?$allocator@U?$_List_node@U?$pair@$$CBG_N@std@@PEAX@std@@@std@@@std@@QEAA@XZ DB 060H
	DD	imagerel $ip2state$??1?$_Alloc_construct_ptr@V?$allocator@U?$_List_node@U?$pair@$$CBG_N@std@@PEAX@std@@@std@@@std@@QEAA@XZ
xdata	ENDS
;	COMDAT xdata
xdata	SEGMENT
$unwind$??1?$_Alloc_construct_ptr@V?$allocator@U?$_List_node@U?$pair@$$CBG_N@std@@PEAX@std@@@std@@@std@@QEAA@XZ DD 010919H
	DD	06209H
	DD	imagerel __CxxFrameHandler4
	DD	imagerel $cppxdata$??1?$_Alloc_construct_ptr@V?$allocator@U?$_List_node@U?$pair@$$CBG_N@std@@PEAX@std@@@std@@@std@@QEAA@XZ
xdata	ENDS
;	COMDAT xdata
xdata	SEGMENT
$unwind$?_Allocate@?$_Alloc_construct_ptr@V?$allocator@U?$_List_node@U?$pair@$$CBG_N@std@@PEAX@std@@@std@@@std@@QEAAXXZ DD 010901H
	DD	06209H
xdata	ENDS
;	COMDAT xdata
xdata	SEGMENT
$unwind$?_Release@?$_Alloc_construct_ptr@V?$allocator@U?$_List_node@U?$pair@$$CBG_N@std@@PEAX@std@@@std@@@std@@QEAAPEAU?$_List_node@U?$pair@$$CBG_N@std@@PEAX@2@XZ DD 010901H
	DD	06209H
xdata	ENDS
;	COMDAT xdata
xdata	SEGMENT
$unwind$??0?$tuple@AEBG@std@@QEAA@$$QEAV01@@Z DD 010e01H
	DD	0420eH
xdata	ENDS
;	COMDAT xdata
xdata	SEGMENT
$unwind$??$forward_as_tuple@AEBG@std@@YA?AV?$tuple@AEBG@0@AEBG@Z DD 010e01H
	DD	0420eH
xdata	ENDS
;	COMDAT xdata
xdata	SEGMENT
$unwind$??$_Find_last@G@?$_Hash@V?$_Umap_traits@G_NV?$_Uhash_compare@GU?$hash@G@std@@U?$equal_to@G@2@@std@@V?$allocator@U?$pair@$$CBG_N@std@@@2@$0A@@std@@@std@@IEBA?AU?$_Hash_find_last_result@PEAU?$_List_node@U?$pair@$$CBG_N@std@@PEAX@std@@@1@AEBG_K@Z DD 011801H
	DD	0a218H
xdata	ENDS
;	COMDAT xdata
xdata	SEGMENT
$unwind$??$?RG@?$_Uhash_compare@GU?$hash@G@std@@U?$equal_to@G@2@@std@@QEBA_KAEBG@Z DD 010e01H
	DD	0620eH
xdata	ENDS
;	COMDAT xdata
xdata	SEGMENT
$unwind$??$min@_K@std@@YAAEB_KAEB_K0@Z DD 010e01H
	DD	0220eH
xdata	ENDS
;	COMDAT xdata
xdata	SEGMENT
$unwind$??$_Allocate@$0BA@U_Default_allocate_traits@std@@$0A@@std@@YAPEAX_K@Z DD 010901H
	DD	04209H
xdata	ENDS
;	COMDAT xdata
xdata	SEGMENT
$ip2state$??$_Deallocate@$0BA@$0A@@std@@YAXPEAX_K@Z DB 02H
	DB	00H
	DB	00H
xdata	ENDS
;	COMDAT xdata
xdata	SEGMENT
$cppxdata$??$_Deallocate@$0BA@$0A@@std@@YAXPEAX_K@Z DB 060H
	DD	imagerel $ip2state$??$_Deallocate@$0BA@$0A@@std@@YAXPEAX_K@Z
xdata	ENDS
;	COMDAT xdata
xdata	SEGMENT
$unwind$??$_Deallocate@$0BA@$0A@@std@@YAXPEAX_K@Z DD 010e19H
	DD	0420eH
	DD	imagerel __CxxFrameHandler4
	DD	imagerel $cppxdata$??$_Deallocate@$0BA@$0A@@std@@YAXPEAX_K@Z
xdata	ENDS
;	COMDAT xdata
xdata	SEGMENT
$unwind$??$max@_K@std@@YAAEB_KAEB_K0@Z DD 010e01H
	DD	0220eH
xdata	ENDS
;	COMDAT xdata
xdata	SEGMENT
$unwind$?dtor$0@?0???$_Try_emplace@G$$V@?$_Hash@V?$_Umap_traits@G_NV?$_Uhash_compare@GU?$hash@G@std@@U?$equal_to@G@2@@std@@V?$allocator@U?$pair@$$CBG_N@std@@@2@$0A@@std@@@std@@IEAA?AU?$pair@PEAU?$_List_node@U?$pair@$$CBG_N@std@@PEAX@std@@_N@1@$$QEAG@Z@4HA DD 020601H
	DD	050023206H
xdata	ENDS
;	COMDAT xdata
xdata	SEGMENT
$ip2state$??$_Try_emplace@G$$V@?$_Hash@V?$_Umap_traits@G_NV?$_Uhash_compare@GU?$hash@G@std@@U?$equal_to@G@2@@std@@V?$allocator@U?$pair@$$CBG_N@std@@@2@$0A@@std@@@std@@IEAA?AU?$pair@PEAU?$_List_node@U?$pair@$$CBG_N@std@@PEAX@std@@_N@1@$$QEAG@Z DB 06H
	DB	00H
	DB	00H
	DB	'M', 04H
	DB	02H
	DB	0b5H, 02H
	DB	00H
xdata	ENDS
;	COMDAT xdata
xdata	SEGMENT
$stateUnwindMap$??$_Try_emplace@G$$V@?$_Hash@V?$_Umap_traits@G_NV?$_Uhash_compare@GU?$hash@G@std@@U?$equal_to@G@2@@std@@V?$allocator@U?$pair@$$CBG_N@std@@@2@$0A@@std@@@std@@IEAA?AU?$pair@PEAU?$_List_node@U?$pair@$$CBG_N@std@@PEAX@std@@_N@1@$$QEAG@Z DB 02H
	DB	0eH
	DD	imagerel ?dtor$0@?0???$_Try_emplace@G$$V@?$_Hash@V?$_Umap_traits@G_NV?$_Uhash_compare@GU?$hash@G@std@@U?$equal_to@G@2@@std@@V?$allocator@U?$pair@$$CBG_N@std@@@2@$0A@@std@@@std@@IEAA?AU?$pair@PEAU?$_List_node@U?$pair@$$CBG_N@std@@PEAX@std@@_N@1@$$QEAG@Z@4HA
xdata	ENDS
;	COMDAT xdata
xdata	SEGMENT
$cppxdata$??$_Try_emplace@G$$V@?$_Hash@V?$_Umap_traits@G_NV?$_Uhash_compare@GU?$hash@G@std@@U?$equal_to@G@2@@std@@V?$allocator@U?$pair@$$CBG_N@std@@@2@$0A@@std@@@std@@IEAA?AU?$pair@PEAU?$_List_node@U?$pair@$$CBG_N@std@@PEAX@std@@_N@1@$$QEAG@Z DB 028H
	DD	imagerel $stateUnwindMap$??$_Try_emplace@G$$V@?$_Hash@V?$_Umap_traits@G_NV?$_Uhash_compare@GU?$hash@G@std@@U?$equal_to@G@2@@std@@V?$allocator@U?$pair@$$CBG_N@std@@@2@$0A@@std@@@std@@IEAA?AU?$pair@PEAU?$_List_node@U?$pair@$$CBG_N@std@@PEAX@std@@_N@1@$$QEAG@Z
	DD	imagerel $ip2state$??$_Try_emplace@G$$V@?$_Hash@V?$_Umap_traits@G_NV?$_Uhash_compare@GU?$hash@G@std@@U?$equal_to@G@2@@std@@V?$allocator@U?$pair@$$CBG_N@std@@@2@$0A@@std@@@std@@IEAA?AU?$pair@PEAU?$_List_node@U?$pair@$$CBG_N@std@@PEAX@std@@_N@1@$$QEAG@Z
xdata	ENDS
;	COMDAT xdata
xdata	SEGMENT
$unwind$??$_Try_emplace@G$$V@?$_Hash@V?$_Umap_traits@G_NV?$_Uhash_compare@GU?$hash@G@std@@U?$equal_to@G@2@@std@@V?$allocator@U?$pair@$$CBG_N@std@@@2@$0A@@std@@@std@@IEAA?AU?$pair@PEAU?$_List_node@U?$pair@$$CBG_N@std@@PEAX@std@@_N@1@$$QEAG@Z DD 041811H
	DD	0170118H
	DD	060107011H
	DD	imagerel __CxxFrameHandler4
	DD	imagerel $cppxdata$??$_Try_emplace@G$$V@?$_Hash@V?$_Umap_traits@G_NV?$_Uhash_compare@GU?$hash@G@std@@U?$equal_to@G@2@@std@@V?$allocator@U?$pair@$$CBG_N@std@@@2@$0A@@std@@@std@@IEAA?AU?$pair@PEAU?$_List_node@U?$pair@$$CBG_N@std@@PEAX@std@@_N@1@$$QEAG@Z
xdata	ENDS
;	COMDAT xdata
xdata	SEGMENT
$unwind$?dtor$0@?0???$_Try_emplace@AEBG$$V@?$_Hash@V?$_Umap_traits@G_NV?$_Uhash_compare@GU?$hash@G@std@@U?$equal_to@G@2@@std@@V?$allocator@U?$pair@$$CBG_N@std@@@2@$0A@@std@@@std@@IEAA?AU?$pair@PEAU?$_List_node@U?$pair@$$CBG_N@std@@PEAX@std@@_N@1@AEBG@Z@4HA DD 020601H
	DD	050023206H
xdata	ENDS
;	COMDAT xdata
xdata	SEGMENT
$ip2state$??$_Try_emplace@AEBG$$V@?$_Hash@V?$_Umap_traits@G_NV?$_Uhash_compare@GU?$hash@G@std@@U?$equal_to@G@2@@std@@V?$allocator@U?$pair@$$CBG_N@std@@@2@$0A@@std@@@std@@IEAA?AU?$pair@PEAU?$_List_node@U?$pair@$$CBG_N@std@@PEAX@std@@_N@1@AEBG@Z DB 06H
	DB	00H
	DB	00H
	DB	'M', 04H
	DB	02H
	DB	0b5H, 02H
	DB	00H
xdata	ENDS
;	COMDAT xdata
xdata	SEGMENT
$stateUnwindMap$??$_Try_emplace@AEBG$$V@?$_Hash@V?$_Umap_traits@G_NV?$_Uhash_compare@GU?$hash@G@std@@U?$equal_to@G@2@@std@@V?$allocator@U?$pair@$$CBG_N@std@@@2@$0A@@std@@@std@@IEAA?AU?$pair@PEAU?$_List_node@U?$pair@$$CBG_N@std@@PEAX@std@@_N@1@AEBG@Z DB 02H
	DB	0eH
	DD	imagerel ?dtor$0@?0???$_Try_emplace@AEBG$$V@?$_Hash@V?$_Umap_traits@G_NV?$_Uhash_compare@GU?$hash@G@std@@U?$equal_to@G@2@@std@@V?$allocator@U?$pair@$$CBG_N@std@@@2@$0A@@std@@@std@@IEAA?AU?$pair@PEAU?$_List_node@U?$pair@$$CBG_N@std@@PEAX@std@@_N@1@AEBG@Z@4HA
xdata	ENDS
;	COMDAT xdata
xdata	SEGMENT
$cppxdata$??$_Try_emplace@AEBG$$V@?$_Hash@V?$_Umap_traits@G_NV?$_Uhash_compare@GU?$hash@G@std@@U?$equal_to@G@2@@std@@V?$allocator@U?$pair@$$CBG_N@std@@@2@$0A@@std@@@std@@IEAA?AU?$pair@PEAU?$_List_node@U?$pair@$$CBG_N@std@@PEAX@std@@_N@1@AEBG@Z DB 028H
	DD	imagerel $stateUnwindMap$??$_Try_emplace@AEBG$$V@?$_Hash@V?$_Umap_traits@G_NV?$_Uhash_compare@GU?$hash@G@std@@U?$equal_to@G@2@@std@@V?$allocator@U?$pair@$$CBG_N@std@@@2@$0A@@std@@@std@@IEAA?AU?$pair@PEAU?$_List_node@U?$pair@$$CBG_N@std@@PEAX@std@@_N@1@AEBG@Z
	DD	imagerel $ip2state$??$_Try_emplace@AEBG$$V@?$_Hash@V?$_Umap_traits@G_NV?$_Uhash_compare@GU?$hash@G@std@@U?$equal_to@G@2@@std@@V?$allocator@U?$pair@$$CBG_N@std@@@2@$0A@@std@@@std@@IEAA?AU?$pair@PEAU?$_List_node@U?$pair@$$CBG_N@std@@PEAX@std@@_N@1@AEBG@Z
xdata	ENDS
;	COMDAT xdata
xdata	SEGMENT
$unwind$??$_Try_emplace@AEBG$$V@?$_Hash@V?$_Umap_traits@G_NV?$_Uhash_compare@GU?$hash@G@std@@U?$equal_to@G@2@@std@@V?$allocator@U?$pair@$$CBG_N@std@@@2@$0A@@std@@@std@@IEAA?AU?$pair@PEAU?$_List_node@U?$pair@$$CBG_N@std@@PEAX@std@@_N@1@AEBG@Z DD 041811H
	DD	0170118H
	DD	060107011H
	DD	imagerel __CxxFrameHandler4
	DD	imagerel $cppxdata$??$_Try_emplace@AEBG$$V@?$_Hash@V?$_Umap_traits@G_NV?$_Uhash_compare@GU?$hash@G@std@@U?$equal_to@G@2@@std@@V?$allocator@U?$pair@$$CBG_N@std@@@2@$0A@@std@@@std@@IEAA?AU?$pair@PEAU?$_List_node@U?$pair@$$CBG_N@std@@PEAX@std@@_N@1@AEBG@Z
xdata	ENDS
;	COMDAT xdata
xdata	SEGMENT
$unwind$??A?$unordered_map@G_NU?$hash@G@std@@U?$equal_to@G@2@V?$allocator@U?$pair@$$CBG_N@std@@@2@@std@@QEAAAEA_NAEBG@Z DD 010e01H
	DD	0620eH
xdata	ENDS
;	COMDAT xdata
xdata	SEGMENT
$unwind$??A?$unordered_map@G_NU?$hash@G@std@@U?$equal_to@G@2@V?$allocator@U?$pair@$$CBG_N@std@@@2@@std@@QEAAAEA_N$$QEAG@Z DD 010e01H
	DD	0620eH
xdata	ENDS
;	COMDAT xdata
xdata	SEGMENT
$unwind$?_Assign_grow@?$_Hash_vec@V?$allocator@V?$_List_unchecked_iterator@V?$_List_val@U?$_List_simple_types@U?$pair@$$CBG_N@std@@@std@@@std@@@std@@@std@@@std@@QEAAX_KV?$_List_unchecked_iterator@V?$_List_val@U?$_List_simple_types@U?$pair@$$CBG_N@std@@@std@@@std@@@2@@Z DD 011301H
	DD	08213H
xdata	ENDS
;	COMDAT xdata
xdata	SEGMENT
$unwind$?max_size@?$_Hash_vec@V?$allocator@V?$_List_unchecked_iterator@V?$_List_val@U?$_List_simple_types@U?$pair@$$CBG_N@std@@@std@@@std@@@std@@@std@@@std@@QEBA_KXZ DD 010901H
	DD	06209H
xdata	ENDS
;	COMDAT xdata
xdata	SEGMENT
$unwind$?allocate@?$allocator@V?$_List_unchecked_iterator@V?$_List_val@U?$_List_simple_types@U?$pair@$$CBG_N@std@@@std@@@std@@@std@@@std@@QEAAPEAV?$_List_unchecked_iterator@V?$_List_val@U?$_List_simple_types@U?$pair@$$CBG_N@std@@@std@@@std@@@2@_K@Z DD 010e01H
	DD	0420eH
xdata	ENDS
;	COMDAT xdata
xdata	SEGMENT
$unwind$?deallocate@?$allocator@V?$_List_unchecked_iterator@V?$_List_val@U?$_List_simple_types@U?$pair@$$CBG_N@std@@@std@@@std@@@std@@@std@@QEAAXQEAV?$_List_unchecked_iterator@V?$_List_val@U?$_List_simple_types@U?$pair@$$CBG_N@std@@@std@@@std@@@2@_K@Z DD 011301H
	DD	04213H
xdata	ENDS
;	COMDAT xdata
xdata	SEGMENT
$unwind$?_Max_bucket_size@?$_Hash@V?$_Umap_traits@G_NV?$_Uhash_compare@GU?$hash@G@std@@U?$equal_to@G@2@@std@@V?$allocator@U?$pair@$$CBG_N@std@@@2@$0A@@std@@@std@@IEBAAEBMXZ DD 010901H
	DD	04209H
xdata	ENDS
;	COMDAT xdata
xdata	SEGMENT
$unwind$?dtor$0@?0??_Forced_rehash@?$_Hash@V?$_Umap_traits@G_NV?$_Uhash_compare@GU?$hash@G@std@@U?$equal_to@G@2@@std@@V?$allocator@U?$pair@$$CBG_N@std@@@2@$0A@@std@@@std@@IEAAX_K@Z@4HA DD 020601H
	DD	050023206H
xdata	ENDS
;	COMDAT xdata
xdata	SEGMENT
$ip2state$?_Forced_rehash@?$_Hash@V?$_Umap_traits@G_NV?$_Uhash_compare@GU?$hash@G@std@@U?$equal_to@G@2@@std@@V?$allocator@U?$pair@$$CBG_N@std@@@2@$0A@@std@@@std@@IEAAX_K@Z DB 06H
	DB	00H
	DB	00H
	DB	085H, 04H
	DB	02H
	DB	0b5H, 08H
	DB	00H
xdata	ENDS
;	COMDAT xdata
xdata	SEGMENT
$stateUnwindMap$?_Forced_rehash@?$_Hash@V?$_Umap_traits@G_NV?$_Uhash_compare@GU?$hash@G@std@@U?$equal_to@G@2@@std@@V?$allocator@U?$pair@$$CBG_N@std@@@2@$0A@@std@@@std@@IEAAX_K@Z DB 02H
	DB	0eH
	DD	imagerel ?dtor$0@?0??_Forced_rehash@?$_Hash@V?$_Umap_traits@G_NV?$_Uhash_compare@GU?$hash@G@std@@U?$equal_to@G@2@@std@@V?$allocator@U?$pair@$$CBG_N@std@@@2@$0A@@std@@@std@@IEAAX_K@Z@4HA
xdata	ENDS
;	COMDAT xdata
xdata	SEGMENT
$cppxdata$?_Forced_rehash@?$_Hash@V?$_Umap_traits@G_NV?$_Uhash_compare@GU?$hash@G@std@@U?$equal_to@G@2@@std@@V?$allocator@U?$pair@$$CBG_N@std@@@2@$0A@@std@@@std@@IEAAX_K@Z DB 028H
	DD	imagerel $stateUnwindMap$?_Forced_rehash@?$_Hash@V?$_Umap_traits@G_NV?$_Uhash_compare@GU?$hash@G@std@@U?$equal_to@G@2@@std@@V?$allocator@U?$pair@$$CBG_N@std@@@2@$0A@@std@@@std@@IEAAX_K@Z
	DD	imagerel $ip2state$?_Forced_rehash@?$_Hash@V?$_Umap_traits@G_NV?$_Uhash_compare@GU?$hash@G@std@@U?$equal_to@G@2@@std@@V?$allocator@U?$pair@$$CBG_N@std@@@2@$0A@@std@@@std@@IEAAX_K@Z
xdata	ENDS
;	COMDAT xdata
xdata	SEGMENT
$unwind$?_Forced_rehash@?$_Hash@V?$_Umap_traits@G_NV?$_Uhash_compare@GU?$hash@G@std@@U?$equal_to@G@2@@std@@V?$allocator@U?$pair@$$CBG_N@std@@@2@$0A@@std@@@std@@IEAAX_K@Z DD 021111H
	DD	0150111H
	DD	imagerel __CxxFrameHandler4
	DD	imagerel $cppxdata$?_Forced_rehash@?$_Hash@V?$_Umap_traits@G_NV?$_Uhash_compare@GU?$hash@G@std@@U?$equal_to@G@2@@std@@V?$allocator@U?$pair@$$CBG_N@std@@@2@$0A@@std@@@std@@IEAAX_K@Z
xdata	ENDS
;	COMDAT xdata
xdata	SEGMENT
$unwind$?_Desired_grow_bucket_count@?$_Hash@V?$_Umap_traits@G_NV?$_Uhash_compare@GU?$hash@G@std@@U?$equal_to@G@2@@std@@V?$allocator@U?$pair@$$CBG_N@std@@@2@$0A@@std@@@std@@IEBA_K_K@Z DD 010e01H
	DD	0820eH
xdata	ENDS
;	COMDAT xdata
xdata	SEGMENT
$unwind$?_Min_load_factor_buckets@?$_Hash@V?$_Umap_traits@G_NV?$_Uhash_compare@GU?$hash@G@std@@U?$equal_to@G@2@@std@@V?$allocator@U?$pair@$$CBG_N@std@@@2@$0A@@std@@@std@@IEBA_K_K@Z DD 010e01H
	DD	0620eH
xdata	ENDS
;	COMDAT xdata
xdata	SEGMENT
$unwind$?_Rehash_for_1@?$_Hash@V?$_Umap_traits@G_NV?$_Uhash_compare@GU?$hash@G@std@@U?$equal_to@G@2@@std@@V?$allocator@U?$pair@$$CBG_N@std@@@2@$0A@@std@@@std@@IEAAXXZ DD 010901H
	DD	06209H
xdata	ENDS
;	COMDAT xdata
xdata	SEGMENT
$unwind$?_Check_rehash_required_1@?$_Hash@V?$_Umap_traits@G_NV?$_Uhash_compare@GU?$hash@G@std@@U?$equal_to@G@2@@std@@V?$allocator@U?$pair@$$CBG_N@std@@@2@$0A@@std@@@std@@IEBA_NXZ DD 010901H
	DD	08209H
xdata	ENDS
;	COMDAT xdata
xdata	SEGMENT
$unwind$?_Check_max_size@?$_Hash@V?$_Umap_traits@G_NV?$_Uhash_compare@GU?$hash@G@std@@U?$equal_to@G@2@@std@@V?$allocator@U?$pair@$$CBG_N@std@@@2@$0A@@std@@@std@@IEBAXXZ DD 010901H
	DD	06209H
xdata	ENDS
;	COMDAT xdata
xdata	SEGMENT
$unwind$?_Insert_new_node_before@?$_Hash@V?$_Umap_traits@G_NV?$_Uhash_compare@GU?$hash@G@std@@U?$equal_to@G@2@@std@@V?$allocator@U?$pair@$$CBG_N@std@@@2@$0A@@std@@@std@@IEAAPEAU?$_List_node@U?$pair@$$CBG_N@std@@PEAX@2@_KQEAU32@1@Z DD 011801H
	DD	0a218H
xdata	ENDS
;	COMDAT xdata
xdata	SEGMENT
$ip2state$?clear@?$_Hash@V?$_Umap_traits@G_NV?$_Uhash_compare@GU?$hash@G@std@@U?$equal_to@G@2@@std@@V?$allocator@U?$pair@$$CBG_N@std@@@2@$0A@@std@@@std@@QEAAXXZ DB 02H
	DB	00H
	DB	00H
xdata	ENDS
;	COMDAT xdata
xdata	SEGMENT
$cppxdata$?clear@?$_Hash@V?$_Umap_traits@G_NV?$_Uhash_compare@GU?$hash@G@std@@U?$equal_to@G@2@@std@@V?$allocator@U?$pair@$$CBG_N@std@@@2@$0A@@std@@@std@@QEAAXXZ DB 060H
	DD	imagerel $ip2state$?clear@?$_Hash@V?$_Umap_traits@G_NV?$_Uhash_compare@GU?$hash@G@std@@U?$equal_to@G@2@@std@@V?$allocator@U?$pair@$$CBG_N@std@@@2@$0A@@std@@@std@@QEAAXXZ
xdata	ENDS
;	COMDAT xdata
xdata	SEGMENT
$unwind$?clear@?$_Hash@V?$_Umap_traits@G_NV?$_Uhash_compare@GU?$hash@G@std@@U?$equal_to@G@2@@std@@V?$allocator@U?$pair@$$CBG_N@std@@@2@$0A@@std@@@std@@QEAAXXZ DD 010919H
	DD	0a209H
	DD	imagerel __CxxFrameHandler4
	DD	imagerel $cppxdata$?clear@?$_Hash@V?$_Umap_traits@G_NV?$_Uhash_compare@GU?$hash@G@std@@U?$equal_to@G@2@@std@@V?$allocator@U?$pair@$$CBG_N@std@@@2@$0A@@std@@@std@@QEAAXXZ
xdata	ENDS
;	COMDAT xdata
xdata	SEGMENT
$unwind$?_Unchecked_erase@?$_Hash@V?$_Umap_traits@G_NV?$_Uhash_compare@GU?$hash@G@std@@U?$equal_to@G@2@@std@@V?$allocator@U?$pair@$$CBG_N@std@@@2@$0A@@std@@@std@@AEAAPEAU?$_List_node@U?$pair@$$CBG_N@std@@PEAX@2@PEAU32@QEAU32@@Z DD 021601H
	DD	0170116H
xdata	ENDS
;	COMDAT xdata
xdata	SEGMENT
$unwind$?max_load_factor@?$_Hash@V?$_Umap_traits@G_NV?$_Uhash_compare@GU?$hash@G@std@@U?$equal_to@G@2@@std@@V?$allocator@U?$pair@$$CBG_N@std@@@2@$0A@@std@@@std@@QEBAMXZ DD 010901H
	DD	04209H
xdata	ENDS
;	COMDAT xdata
xdata	SEGMENT
$unwind$?bucket@?$_Hash@V?$_Umap_traits@G_NV?$_Uhash_compare@GU?$hash@G@std@@U?$equal_to@G@2@@std@@V?$allocator@U?$pair@$$CBG_N@std@@@2@$0A@@std@@@std@@QEBA_KAEBG@Z DD 010e01H
	DD	0620eH
xdata	ENDS
;	COMDAT xdata
xdata	SEGMENT
$unwind$?_Unchecked_end@?$_Hash@V?$_Umap_traits@G_NV?$_Uhash_compare@GU?$hash@G@std@@U?$equal_to@G@2@@std@@V?$allocator@U?$pair@$$CBG_N@std@@@2@$0A@@std@@@std@@QEAA?AV?$_List_unchecked_iterator@V?$_List_val@U?$_List_simple_types@U?$pair@$$CBG_N@std@@@std@@@std@@@2@XZ DD 010e01H
	DD	0620eH
xdata	ENDS
;	COMDAT xdata
xdata	SEGMENT
$unwind$?_Unchecked_begin@?$_Hash@V?$_Umap_traits@G_NV?$_Uhash_compare@GU?$hash@G@std@@U?$equal_to@G@2@@std@@V?$allocator@U?$pair@$$CBG_N@std@@@2@$0A@@std@@@std@@QEAA?AV?$_List_unchecked_iterator@V?$_List_val@U?$_List_simple_types@U?$pair@$$CBG_N@std@@@std@@@std@@@2@XZ DD 010e01H
	DD	0620eH
xdata	ENDS
;	COMDAT xdata
xdata	SEGMENT
$unwind$?_Unchecked_splice@?$_List_val@U?$_List_simple_types@U?$pair@$$CBG_N@std@@@std@@@std@@SAPEAU?$_List_node@U?$pair@$$CBG_N@std@@PEAX@2@QEAU32@00@Z DD 011301H
	DD	04213H
xdata	ENDS
;	COMDAT xdata
xdata	SEGMENT
$unwind$?_Getal@?$list@U?$pair@$$CBG_N@std@@V?$allocator@U?$pair@$$CBG_N@std@@@2@@std@@AEBAAEBV?$allocator@U?$_List_node@U?$pair@$$CBG_N@std@@PEAX@std@@@2@XZ DD 010901H
	DD	04209H
xdata	ENDS
;	COMDAT xdata
xdata	SEGMENT
$unwind$?_Getal@?$list@U?$pair@$$CBG_N@std@@V?$allocator@U?$pair@$$CBG_N@std@@@2@@std@@AEAAAEAV?$allocator@U?$_List_node@U?$pair@$$CBG_N@std@@PEAX@std@@@2@XZ DD 010901H
	DD	04209H
xdata	ENDS
;	COMDAT xdata
xdata	SEGMENT
$unwind$?clear@?$list@U?$pair@$$CBG_N@std@@V?$allocator@U?$pair@$$CBG_N@std@@@2@@std@@QEAAXXZ DD 010901H
	DD	08209H
xdata	ENDS
;	COMDAT xdata
xdata	SEGMENT
$unwind$?max_size@?$list@U?$pair@$$CBG_N@std@@V?$allocator@U?$pair@$$CBG_N@std@@@2@@std@@QEBA_KXZ DD 010901H
	DD	06209H
xdata	ENDS
;	COMDAT xdata
xdata	SEGMENT
$unwind$?_Unchecked_end@?$list@U?$pair@$$CBG_N@std@@V?$allocator@U?$pair@$$CBG_N@std@@@2@@std@@QEAA?AV?$_List_unchecked_iterator@V?$_List_val@U?$_List_simple_types@U?$pair@$$CBG_N@std@@@std@@@std@@@2@XZ DD 010e01H
	DD	0420eH
xdata	ENDS
;	COMDAT xdata
xdata	SEGMENT
$unwind$?_Unchecked_begin@?$list@U?$pair@$$CBG_N@std@@V?$allocator@U?$pair@$$CBG_N@std@@@2@@std@@QEAA?AV?$_List_unchecked_iterator@V?$_List_val@U?$_List_simple_types@U?$pair@$$CBG_N@std@@@std@@@std@@@2@XZ DD 010e01H
	DD	0420eH
xdata	ENDS
;	COMDAT xdata
xdata	SEGMENT
$unwind$?deallocate@?$_Default_allocator_traits@V?$allocator@U?$_List_node@U?$pair@$$CBG_N@std@@PEAX@std@@@std@@@std@@SAXAEAV?$allocator@U?$_List_node@U?$pair@$$CBG_N@std@@PEAX@std@@@2@QEAU?$_List_node@U?$pair@$$CBG_N@std@@PEAX@2@_K@Z DD 011301H
	DD	04213H
xdata	ENDS
;	COMDAT xdata
xdata	SEGMENT
$unwind$?allocate@?$allocator@U?$_List_node@U?$pair@$$CBG_N@std@@PEAX@std@@@std@@QEAAPEAU?$_List_node@U?$pair@$$CBG_N@std@@PEAX@2@_K@Z DD 010e01H
	DD	0420eH
xdata	ENDS
;	COMDAT xdata
xdata	SEGMENT
$unwind$?deallocate@?$allocator@U?$_List_node@U?$pair@$$CBG_N@std@@PEAX@std@@@std@@QEAAXQEAU?$_List_node@U?$pair@$$CBG_N@std@@PEAX@2@_K@Z DD 011301H
	DD	04213H
xdata	ENDS
;	COMDAT xdata
xdata	SEGMENT
$unwind$??R?$equal_to@G@std@@QEBA_NAEBG0@Z DD 011301H
	DD	02213H
xdata	ENDS
;	COMDAT xdata
xdata	SEGMENT
$unwind$?_Do_hash@?$hash@G@std@@SA_KAEBG@Z DD 010901H
	DD	04209H
xdata	ENDS
;	COMDAT xdata
xdata	SEGMENT
$unwind$??R?$_Conditionally_enabled_hash@G$00@std@@QEBA_KAEBG@Z DD 010e01H
	DD	0420eH
xdata	ENDS
;	COMDAT xdata
xdata	SEGMENT
$unwind$?get_keys@window_input@fan@@YAXAEAV?$unordered_map@G_NU?$hash@G@std@@U?$equal_to@G@2@V?$allocator@U?$pair@$$CBG_N@std@@@2@@std@@G_N@Z DD 011301H
	DD	06213H
xdata	ENDS
;	COMDAT xdata
xdata	SEGMENT
$unwind$?convert_utfkeys_to_fan@window_input@fan@@YAGG@Z DD 010901H
	DD	02209H
xdata	ENDS
;	COMDAT xdata
xdata	SEGMENT
$unwind$?convert_fan_to_keys@window_input@fan@@YAGG@Z DD 010901H
	DD	02209H
xdata	ENDS
;	COMDAT xdata
xdata	SEGMENT
$unwind$?convert_keys_to_fan@window_input@fan@@YAGG@Z DD 010901H
	DD	02209H
xdata	ENDS
;	COMDAT xdata
xdata	SEGMENT
$unwind$?_Ceiling_of_log_2@std@@YAK_K@Z DD 010901H
	DD	04209H
xdata	ENDS
;	COMDAT xdata
xdata	SEGMENT
$unwind$?_Floor_of_log_2@std@@YAK_K@Z DD 010901H
	DD	02209H
xdata	ENDS
;	COMDAT xdata
xdata	SEGMENT
$unwind$?_Adjust_manually_vector_aligned@std@@YAXAEAPEAXAEA_K@Z DD 010e01H
	DD	0820eH
xdata	ENDS
;	COMDAT xdata
xdata	SEGMENT
$unwind$?_Allocate@_Default_allocate_traits@std@@SAPEAX_K@Z DD 010901H
	DD	04209H
xdata	ENDS
;	COMDAT xdata
xdata	SEGMENT
$unwind$?_Throw_bad_array_new_length@std@@YAXXZ DD 010401H
	DD	08204H
xdata	ENDS
;	COMDAT xdata
xdata	SEGMENT
$unwind$??_Gbad_array_new_length@std@@UEAAPEAXI@Z DD 010d01H
	DD	0420dH
xdata	ENDS
;	COMDAT xdata
xdata	SEGMENT
$unwind$??0bad_array_new_length@std@@QEAA@AEBV01@@Z DD 010e01H
	DD	0420eH
xdata	ENDS
;	COMDAT xdata
xdata	SEGMENT
$unwind$??1bad_array_new_length@std@@UEAA@XZ DD 010901H
	DD	04209H
xdata	ENDS
;	COMDAT xdata
xdata	SEGMENT
$unwind$??0bad_array_new_length@std@@QEAA@XZ DD 010901H
	DD	04209H
xdata	ENDS
;	COMDAT xdata
xdata	SEGMENT
$unwind$??_Gbad_alloc@std@@UEAAPEAXI@Z DD 010d01H
	DD	0420dH
xdata	ENDS
;	COMDAT xdata
xdata	SEGMENT
$unwind$??0bad_alloc@std@@QEAA@AEBV01@@Z DD 010e01H
	DD	0420eH
xdata	ENDS
;	COMDAT xdata
xdata	SEGMENT
$unwind$??1bad_alloc@std@@UEAA@XZ DD 010901H
	DD	04209H
xdata	ENDS
;	COMDAT xdata
xdata	SEGMENT
$unwind$??0bad_alloc@std@@AEAA@QEBD@Z DD 010e01H
	DD	0420eH
xdata	ENDS
;	COMDAT xdata
xdata	SEGMENT
$unwind$??_Gexception@std@@UEAAPEAXI@Z DD 010d01H
	DD	0420dH
xdata	ENDS
;	COMDAT xdata
xdata	SEGMENT
$unwind$?what@exception@std@@UEBAPEBDXZ DD 010901H
	DD	02209H
xdata	ENDS
;	COMDAT xdata
xdata	SEGMENT
$unwind$??1exception@std@@UEAA@XZ DD 010901H
	DD	04209H
xdata	ENDS
;	COMDAT xdata
xdata	SEGMENT
$unwind$??0exception@std@@QEAA@AEBV01@@Z DD 020f01H
	DD	0700b320fH
xdata	ENDS
;	COMDAT xdata
xdata	SEGMENT
$unwind$??0exception@std@@QEAA@QEBDH@Z DD 011001H
	DD	07010H
xdata	ENDS
;	COMDAT xdata
xdata	SEGMENT
$unwind$?_Fnv1a_append_bytes@std@@YA_K_KQEBE_K@Z DD 011301H
	DD	02213H
xdata	ENDS
; Function compile flags: /Odtp
;	COMDAT ??$_Tuple_get@$0A@$$QEAG@std@@YA$$QEA_P$$QEAV?$tuple@$$QEAG@0@@Z
_TEXT	SEGMENT
_Tuple$ = 8
??$_Tuple_get@$0A@$$QEAG@std@@YA$$QEA_P$$QEAV?$tuple@$$QEAG@0@@Z PROC ; std::_Tuple_get<0,unsigned short &&>, COMDAT
; File C:\Program Files\Microsoft Visual Studio\2022\Community\VC\Tools\MSVC\14.33.31629\include\tuple
; Line 1005
	mov	QWORD PTR [rsp+8], rcx
; Line 1009
	mov	rax, QWORD PTR _Tuple$[rsp]
	mov	rax, QWORD PTR [rax]
; Line 1010
	ret	0
??$_Tuple_get@$0A@$$QEAG@std@@YA$$QEA_P$$QEAV?$tuple@$$QEAG@0@@Z ENDP ; std::_Tuple_get<0,unsigned short &&>
_TEXT	ENDS
; Function compile flags: /Odtp
;	COMDAT ??$move@AEAV?$tuple@$$QEAG@std@@@std@@YA$$QEAV?$tuple@$$QEAG@0@AEAV10@@Z
_TEXT	SEGMENT
_Arg$ = 8
??$move@AEAV?$tuple@$$QEAG@std@@@std@@YA$$QEAV?$tuple@$$QEAG@0@AEAV10@@Z PROC ; std::move<std::tuple<unsigned short &&> &>, COMDAT
; File C:\Program Files\Microsoft Visual Studio\2022\Community\VC\Tools\MSVC\14.33.31629\include\type_traits
; Line 1422
	mov	QWORD PTR [rsp+8], rcx
; Line 1423
	mov	rax, QWORD PTR _Arg$[rsp]
; Line 1424
	ret	0
??$move@AEAV?$tuple@$$QEAG@std@@@std@@YA$$QEAV?$tuple@$$QEAG@0@AEAV10@@Z ENDP ; std::move<std::tuple<unsigned short &&> &>
_TEXT	ENDS
; Function compile flags: /Odtp
;	COMDAT ??$_Tuple_get@$0A@AEBG@std@@YA$$QEA_P$$QEAV?$tuple@AEBG@0@@Z
_TEXT	SEGMENT
_Tuple$ = 8
??$_Tuple_get@$0A@AEBG@std@@YA$$QEA_P$$QEAV?$tuple@AEBG@0@@Z PROC ; std::_Tuple_get<0,unsigned short const &>, COMDAT
; File C:\Program Files\Microsoft Visual Studio\2022\Community\VC\Tools\MSVC\14.33.31629\include\tuple
; Line 1005
	mov	QWORD PTR [rsp+8], rcx
; Line 1009
	mov	rax, QWORD PTR _Tuple$[rsp]
	mov	rax, QWORD PTR [rax]
; Line 1010
	ret	0
??$_Tuple_get@$0A@AEBG@std@@YA$$QEA_P$$QEAV?$tuple@AEBG@0@@Z ENDP ; std::_Tuple_get<0,unsigned short const &>
_TEXT	ENDS
; Function compile flags: /Odtp
;	COMDAT ??$move@AEAV?$tuple@AEBG@std@@@std@@YA$$QEAV?$tuple@AEBG@0@AEAV10@@Z
_TEXT	SEGMENT
_Arg$ = 8
??$move@AEAV?$tuple@AEBG@std@@@std@@YA$$QEAV?$tuple@AEBG@0@AEAV10@@Z PROC ; std::move<std::tuple<unsigned short const &> &>, COMDAT
; File C:\Program Files\Microsoft Visual Studio\2022\Community\VC\Tools\MSVC\14.33.31629\include\type_traits
; Line 1422
	mov	QWORD PTR [rsp+8], rcx
; Line 1423
	mov	rax, QWORD PTR _Arg$[rsp]
; Line 1424
	ret	0
??$move@AEAV?$tuple@AEBG@std@@@std@@YA$$QEAV?$tuple@AEBG@0@AEAV10@@Z ENDP ; std::move<std::tuple<unsigned short const &> &>
_TEXT	ENDS
; Function compile flags: /Odtp
;	COMDAT ??$_Voidify_iter@PEAV?$_List_unchecked_iterator@V?$_List_val@U?$_List_simple_types@U?$pair@$$CBG_N@std@@@std@@@std@@@std@@@std@@YAPEAXPEAV?$_List_unchecked_iterator@V?$_List_val@U?$_List_simple_types@U?$pair@$$CBG_N@std@@@std@@@std@@@0@@Z
_TEXT	SEGMENT
_It$ = 8
??$_Voidify_iter@PEAV?$_List_unchecked_iterator@V?$_List_val@U?$_List_simple_types@U?$pair@$$CBG_N@std@@@std@@@std@@@std@@@std@@YAPEAXPEAV?$_List_unchecked_iterator@V?$_List_val@U?$_List_simple_types@U?$pair@$$CBG_N@std@@@std@@@std@@@0@@Z PROC ; std::_Voidify_iter<std::_List_unchecked_iterator<std::_List_val<std::_List_simple_types<std::pair<unsigned short const ,bool> > > > *>, COMDAT
; File C:\Program Files\Microsoft Visual Studio\2022\Community\VC\Tools\MSVC\14.33.31629\include\xutility
; Line 212
	mov	QWORD PTR [rsp+8], rcx
; Line 214
	mov	rax, QWORD PTR _It$[rsp]
; Line 218
	ret	0
??$_Voidify_iter@PEAV?$_List_unchecked_iterator@V?$_List_val@U?$_List_simple_types@U?$pair@$$CBG_N@std@@@std@@@std@@@std@@@std@@YAPEAXPEAV?$_List_unchecked_iterator@V?$_List_val@U?$_List_simple_types@U?$pair@$$CBG_N@std@@@std@@@std@@@0@@Z ENDP ; std::_Voidify_iter<std::_List_unchecked_iterator<std::_List_val<std::_List_simple_types<std::pair<unsigned short const ,bool> > > > *>
_TEXT	ENDS
; Function compile flags: /Odtp
;	COMDAT ??$construct_at@V?$_List_unchecked_iterator@V?$_List_val@U?$_List_simple_types@U?$pair@$$CBG_N@std@@@std@@@std@@@std@@AEBV12@X@std@@YAPEAV?$_List_unchecked_iterator@V?$_List_val@U?$_List_simple_types@U?$pair@$$CBG_N@std@@@std@@@std@@@0@QEAV10@AEBV10@@Z
_TEXT	SEGMENT
$T1 = 32
_Location$ = 64
<_Args_0>$ = 72
??$construct_at@V?$_List_unchecked_iterator@V?$_List_val@U?$_List_simple_types@U?$pair@$$CBG_N@std@@@std@@@std@@@std@@AEBV12@X@std@@YAPEAV?$_List_unchecked_iterator@V?$_List_val@U?$_List_simple_types@U?$pair@$$CBG_N@std@@@std@@@std@@@0@QEAV10@AEBV10@@Z PROC ; std::construct_at<std::_List_unchecked_iterator<std::_List_val<std::_List_simple_types<std::pair<unsigned short const ,bool> > > >,std::_List_unchecked_iterator<std::_List_val<std::_List_simple_types<std::pair<unsigned short const ,bool> > > > const &,void>, COMDAT
; File C:\Program Files\Microsoft Visual Studio\2022\Community\VC\Tools\MSVC\14.33.31629\include\xutility
; Line 224
$LN3:
	mov	QWORD PTR [rsp+16], rdx
	mov	QWORD PTR [rsp+8], rcx
	sub	rsp, 56					; 00000038H
; Line 225
	mov	rcx, QWORD PTR _Location$[rsp]
	call	??$_Voidify_iter@PEAV?$_List_unchecked_iterator@V?$_List_val@U?$_List_simple_types@U?$pair@$$CBG_N@std@@@std@@@std@@@std@@@std@@YAPEAXPEAV?$_List_unchecked_iterator@V?$_List_val@U?$_List_simple_types@U?$pair@$$CBG_N@std@@@std@@@std@@@0@@Z ; std::_Voidify_iter<std::_List_unchecked_iterator<std::_List_val<std::_List_simple_types<std::pair<unsigned short const ,bool> > > > *>
	mov	rdx, rax
	mov	ecx, 8
	call	??2@YAPEAX_KPEAX@Z			; operator new
	mov	QWORD PTR $T1[rsp], rax
	mov	rcx, QWORD PTR <_Args_0>$[rsp]
	call	??$forward@AEBV?$_List_unchecked_iterator@V?$_List_val@U?$_List_simple_types@U?$pair@$$CBG_N@std@@@std@@@std@@@std@@@std@@YAAEBV?$_List_unchecked_iterator@V?$_List_val@U?$_List_simple_types@U?$pair@$$CBG_N@std@@@std@@@std@@@0@AEBV10@@Z ; std::forward<std::_List_unchecked_iterator<std::_List_val<std::_List_simple_types<std::pair<unsigned short const ,bool> > > > const &>
	mov	rax, QWORD PTR [rax]
	mov	rcx, QWORD PTR $T1[rsp]
	mov	QWORD PTR [rcx], rax
	mov	rax, QWORD PTR $T1[rsp]
; Line 226
	add	rsp, 56					; 00000038H
	ret	0
??$construct_at@V?$_List_unchecked_iterator@V?$_List_val@U?$_List_simple_types@U?$pair@$$CBG_N@std@@@std@@@std@@@std@@AEBV12@X@std@@YAPEAV?$_List_unchecked_iterator@V?$_List_val@U?$_List_simple_types@U?$pair@$$CBG_N@std@@@std@@@std@@@0@QEAV10@AEBV10@@Z ENDP ; std::construct_at<std::_List_unchecked_iterator<std::_List_val<std::_List_simple_types<std::pair<unsigned short const ,bool> > > >,std::_List_unchecked_iterator<std::_List_val<std::_List_simple_types<std::pair<unsigned short const ,bool> > > > const &,void>
_TEXT	ENDS
; Function compile flags: /Odtp
;	COMDAT ??$addressof@V?$_List_unchecked_iterator@V?$_List_val@U?$_List_simple_types@U?$pair@$$CBG_N@std@@@std@@@std@@@std@@@std@@YAPEAV?$_List_unchecked_iterator@V?$_List_val@U?$_List_simple_types@U?$pair@$$CBG_N@std@@@std@@@std@@@0@AEAV10@@Z
_TEXT	SEGMENT
_Val$ = 8
??$addressof@V?$_List_unchecked_iterator@V?$_List_val@U?$_List_simple_types@U?$pair@$$CBG_N@std@@@std@@@std@@@std@@@std@@YAPEAV?$_List_unchecked_iterator@V?$_List_val@U?$_List_simple_types@U?$pair@$$CBG_N@std@@@std@@@std@@@0@AEAV10@@Z PROC ; std::addressof<std::_List_unchecked_iterator<std::_List_val<std::_List_simple_types<std::pair<unsigned short const ,bool> > > > >, COMDAT
; File C:\Program Files\Microsoft Visual Studio\2022\Community\VC\Tools\MSVC\14.33.31629\include\xstddef
; Line 252
	mov	QWORD PTR [rsp+8], rcx
; Line 253
	mov	rax, QWORD PTR _Val$[rsp]
; Line 254
	ret	0
??$addressof@V?$_List_unchecked_iterator@V?$_List_val@U?$_List_simple_types@U?$pair@$$CBG_N@std@@@std@@@std@@@std@@@std@@YAPEAV?$_List_unchecked_iterator@V?$_List_val@U?$_List_simple_types@U?$pair@$$CBG_N@std@@@std@@@std@@@0@AEAV10@@Z ENDP ; std::addressof<std::_List_unchecked_iterator<std::_List_val<std::_List_simple_types<std::pair<unsigned short const ,bool> > > > >
_TEXT	ENDS
; Function compile flags: /Odtp
;	COMDAT ??$?0V?$tuple@$$QEAG@std@@V?$tuple@$$V@1@$0A@$$Z$S@?$pair@$$CBG_N@std@@QEAA@AEAV?$tuple@$$QEAG@1@AEAV?$tuple@$$V@1@U?$integer_sequence@_K$0A@@1@U?$integer_sequence@_K$S@1@@Z
_TEXT	SEGMENT
this$ = 48
_Val1$ = 56
_Val2$ = 64
__formal$ = 72
__formal$ = 80
??$?0V?$tuple@$$QEAG@std@@V?$tuple@$$V@1@$0A@$$Z$S@?$pair@$$CBG_N@std@@QEAA@AEAV?$tuple@$$QEAG@1@AEAV?$tuple@$$V@1@U?$integer_sequence@_K$0A@@1@U?$integer_sequence@_K$S@1@@Z PROC ; std::pair<unsigned short const ,bool>::pair<unsigned short const ,bool><std::tuple<unsigned short &&>,std::tuple<>,0>, COMDAT
; File C:\Program Files\Microsoft Visual Studio\2022\Community\VC\Tools\MSVC\14.33.31629\include\utility
; Line 287
$LN3:
	mov	BYTE PTR [rsp+32], r9b
	mov	QWORD PTR [rsp+24], r8
	mov	QWORD PTR [rsp+16], rdx
	mov	QWORD PTR [rsp+8], rcx
	sub	rsp, 40					; 00000028H
	mov	rcx, QWORD PTR _Val1$[rsp]
	call	??$move@AEAV?$tuple@$$QEAG@std@@@std@@YA$$QEAV?$tuple@$$QEAG@0@AEAV10@@Z ; std::move<std::tuple<unsigned short &&> &>
	mov	rcx, rax
	call	??$_Tuple_get@$0A@$$QEAG@std@@YA$$QEA_P$$QEAV?$tuple@$$QEAG@0@@Z ; std::_Tuple_get<0,unsigned short &&>
	mov	rcx, QWORD PTR this$[rsp]
	movzx	eax, WORD PTR [rax]
	mov	WORD PTR [rcx], ax
	mov	rax, QWORD PTR this$[rsp]
	mov	BYTE PTR [rax+2], 0
	mov	rax, QWORD PTR this$[rsp]
	add	rsp, 40					; 00000028H
	ret	0
??$?0V?$tuple@$$QEAG@std@@V?$tuple@$$V@1@$0A@$$Z$S@?$pair@$$CBG_N@std@@QEAA@AEAV?$tuple@$$QEAG@1@AEAV?$tuple@$$V@1@U?$integer_sequence@_K$0A@@1@U?$integer_sequence@_K$S@1@@Z ENDP ; std::pair<unsigned short const ,bool>::pair<unsigned short const ,bool><std::tuple<unsigned short &&>,std::tuple<>,0>
_TEXT	ENDS
; Function compile flags: /Odtp
;	COMDAT ??$?0G@?$_Tuple_val@$$QEAG@std@@QEAA@$$QEAG@Z
_TEXT	SEGMENT
this$ = 48
_Arg$ = 56
??$?0G@?$_Tuple_val@$$QEAG@std@@QEAA@$$QEAG@Z PROC	; std::_Tuple_val<unsigned short &&>::_Tuple_val<unsigned short &&><unsigned short>, COMDAT
; File C:\Program Files\Microsoft Visual Studio\2022\Community\VC\Tools\MSVC\14.33.31629\include\tuple
; Line 170
$LN3:
	mov	QWORD PTR [rsp+16], rdx
	mov	QWORD PTR [rsp+8], rcx
	sub	rsp, 40					; 00000028H
	mov	rcx, QWORD PTR _Arg$[rsp]
	call	??$forward@G@std@@YA$$QEAGAEAG@Z	; std::forward<unsigned short>
	mov	rcx, QWORD PTR this$[rsp]
	mov	QWORD PTR [rcx], rax
	mov	rax, QWORD PTR this$[rsp]
	add	rsp, 40					; 00000028H
	ret	0
??$?0G@?$_Tuple_val@$$QEAG@std@@QEAA@$$QEAG@Z ENDP	; std::_Tuple_val<unsigned short &&>::_Tuple_val<unsigned short &&><unsigned short>
_TEXT	ENDS
; Function compile flags: /Odtp
;	COMDAT ??$?0V?$tuple@AEBG@std@@V?$tuple@$$V@1@$0A@$$Z$S@?$pair@$$CBG_N@std@@QEAA@AEAV?$tuple@AEBG@1@AEAV?$tuple@$$V@1@U?$integer_sequence@_K$0A@@1@U?$integer_sequence@_K$S@1@@Z
_TEXT	SEGMENT
this$ = 48
_Val1$ = 56
_Val2$ = 64
__formal$ = 72
__formal$ = 80
??$?0V?$tuple@AEBG@std@@V?$tuple@$$V@1@$0A@$$Z$S@?$pair@$$CBG_N@std@@QEAA@AEAV?$tuple@AEBG@1@AEAV?$tuple@$$V@1@U?$integer_sequence@_K$0A@@1@U?$integer_sequence@_K$S@1@@Z PROC ; std::pair<unsigned short const ,bool>::pair<unsigned short const ,bool><std::tuple<unsigned short const &>,std::tuple<>,0>, COMDAT
; File C:\Program Files\Microsoft Visual Studio\2022\Community\VC\Tools\MSVC\14.33.31629\include\utility
; Line 287
$LN3:
	mov	BYTE PTR [rsp+32], r9b
	mov	QWORD PTR [rsp+24], r8
	mov	QWORD PTR [rsp+16], rdx
	mov	QWORD PTR [rsp+8], rcx
	sub	rsp, 40					; 00000028H
	mov	rcx, QWORD PTR _Val1$[rsp]
	call	??$move@AEAV?$tuple@AEBG@std@@@std@@YA$$QEAV?$tuple@AEBG@0@AEAV10@@Z ; std::move<std::tuple<unsigned short const &> &>
	mov	rcx, rax
	call	??$_Tuple_get@$0A@AEBG@std@@YA$$QEA_P$$QEAV?$tuple@AEBG@0@@Z ; std::_Tuple_get<0,unsigned short const &>
	mov	rcx, QWORD PTR this$[rsp]
	movzx	eax, WORD PTR [rax]
	mov	WORD PTR [rcx], ax
	mov	rax, QWORD PTR this$[rsp]
	mov	BYTE PTR [rax+2], 0
	mov	rax, QWORD PTR this$[rsp]
	add	rsp, 40					; 00000028H
	ret	0
??$?0V?$tuple@AEBG@std@@V?$tuple@$$V@1@$0A@$$Z$S@?$pair@$$CBG_N@std@@QEAA@AEAV?$tuple@AEBG@1@AEAV?$tuple@$$V@1@U?$integer_sequence@_K$0A@@1@U?$integer_sequence@_K$S@1@@Z ENDP ; std::pair<unsigned short const ,bool>::pair<unsigned short const ,bool><std::tuple<unsigned short const &>,std::tuple<>,0>
_TEXT	ENDS
; Function compile flags: /Odtp
;	COMDAT ??$?0AEBG@?$_Tuple_val@AEBG@std@@QEAA@AEBG@Z
_TEXT	SEGMENT
this$ = 48
_Arg$ = 56
??$?0AEBG@?$_Tuple_val@AEBG@std@@QEAA@AEBG@Z PROC	; std::_Tuple_val<unsigned short const &>::_Tuple_val<unsigned short const &><unsigned short const &>, COMDAT
; File C:\Program Files\Microsoft Visual Studio\2022\Community\VC\Tools\MSVC\14.33.31629\include\tuple
; Line 170
$LN3:
	mov	QWORD PTR [rsp+16], rdx
	mov	QWORD PTR [rsp+8], rcx
	sub	rsp, 40					; 00000028H
	mov	rcx, QWORD PTR _Arg$[rsp]
	call	??$forward@AEBG@std@@YAAEBGAEBG@Z	; std::forward<unsigned short const &>
	mov	rcx, QWORD PTR this$[rsp]
	mov	QWORD PTR [rcx], rax
	mov	rax, QWORD PTR this$[rsp]
	add	rsp, 40					; 00000028H
	ret	0
??$?0AEBG@?$_Tuple_val@AEBG@std@@QEAA@AEBG@Z ENDP	; std::_Tuple_val<unsigned short const &>::_Tuple_val<unsigned short const &><unsigned short const &>
_TEXT	ENDS
; Function compile flags: /Odtp
;	COMDAT ??$?0U_Exact_args_t@std@@$0A@@?$tuple@$$V@std@@QEAA@U_Exact_args_t@1@@Z
_TEXT	SEGMENT
this$ = 8
__formal$ = 16
??$?0U_Exact_args_t@std@@$0A@@?$tuple@$$V@std@@QEAA@U_Exact_args_t@1@@Z PROC ; std::tuple<>::tuple<><std::_Exact_args_t,0>, COMDAT
; File C:\Program Files\Microsoft Visual Studio\2022\Community\VC\Tools\MSVC\14.33.31629\include\tuple
; Line 225
	mov	BYTE PTR [rsp+16], dl
	mov	QWORD PTR [rsp+8], rcx
	mov	rax, QWORD PTR this$[rsp]
	ret	0
??$?0U_Exact_args_t@std@@$0A@@?$tuple@$$V@std@@QEAA@U_Exact_args_t@1@@Z ENDP ; std::tuple<>::tuple<><std::_Exact_args_t,0>
_TEXT	ENDS
; Function compile flags: /Odtp
;	COMDAT ??$_Fnv1a_append_value@G@std@@YA_K_KAEBG@Z
_TEXT	SEGMENT
_Val$ = 48
_Keyval$ = 56
??$_Fnv1a_append_value@G@std@@YA_K_KAEBG@Z PROC		; std::_Fnv1a_append_value<unsigned short>, COMDAT
; File C:\Program Files\Microsoft Visual Studio\2022\Community\VC\Tools\MSVC\14.33.31629\include\type_traits
; Line 2138
$LN3:
	mov	QWORD PTR [rsp+16], rdx
	mov	QWORD PTR [rsp+8], rcx
	sub	rsp, 40					; 00000028H
; Line 2140
	mov	r8d, 2
	mov	rdx, QWORD PTR _Keyval$[rsp]
	mov	rcx, QWORD PTR _Val$[rsp]
	call	?_Fnv1a_append_bytes@std@@YA_K_KQEBE_K@Z ; std::_Fnv1a_append_bytes
; Line 2141
	add	rsp, 40					; 00000028H
	ret	0
??$_Fnv1a_append_value@G@std@@YA_K_KAEBG@Z ENDP		; std::_Fnv1a_append_value<unsigned short>
_TEXT	ENDS
; Function compile flags: /Odtp
;	COMDAT ??$_Destroy_in_place@PEAU?$_List_node@U?$pair@$$CBG_N@std@@PEAX@std@@@std@@YAXAEAPEAU?$_List_node@U?$pair@$$CBG_N@std@@PEAX@0@@Z
_TEXT	SEGMENT
_Obj$ = 8
??$_Destroy_in_place@PEAU?$_List_node@U?$pair@$$CBG_N@std@@PEAX@std@@@std@@YAXAEAPEAU?$_List_node@U?$pair@$$CBG_N@std@@PEAX@0@@Z PROC ; std::_Destroy_in_place<std::_List_node<std::pair<unsigned short const ,bool>,void *> *>, COMDAT
; File C:\Program Files\Microsoft Visual Studio\2022\Community\VC\Tools\MSVC\14.33.31629\include\xmemory
; Line 296
	mov	QWORD PTR [rsp+8], rcx
; Line 302
	ret	0
??$_Destroy_in_place@PEAU?$_List_node@U?$pair@$$CBG_N@std@@PEAX@std@@@std@@YAXAEAPEAU?$_List_node@U?$pair@$$CBG_N@std@@PEAX@0@@Z ENDP ; std::_Destroy_in_place<std::_List_node<std::pair<unsigned short const ,bool>,void *> *>
_TEXT	ENDS
; Function compile flags: /Odtp
;	COMDAT ??$_Construct_in_place@V?$_List_unchecked_iterator@V?$_List_val@U?$_List_simple_types@U?$pair@$$CBG_N@std@@@std@@@std@@@std@@AEBV12@@std@@YAXAEAV?$_List_unchecked_iterator@V?$_List_val@U?$_List_simple_types@U?$pair@$$CBG_N@std@@@std@@@std@@@0@AEBV10@@Z
_TEXT	SEGMENT
tv77 = 32
tv75 = 40
$T1 = 48
_Obj$ = 80
<_Args_0>$ = 88
??$_Construct_in_place@V?$_List_unchecked_iterator@V?$_List_val@U?$_List_simple_types@U?$pair@$$CBG_N@std@@@std@@@std@@@std@@AEBV12@@std@@YAXAEAV?$_List_unchecked_iterator@V?$_List_val@U?$_List_simple_types@U?$pair@$$CBG_N@std@@@std@@@std@@@0@AEBV10@@Z PROC ; std::_Construct_in_place<std::_List_unchecked_iterator<std::_List_val<std::_List_simple_types<std::pair<unsigned short const ,bool> > > >,std::_List_unchecked_iterator<std::_List_val<std::_List_simple_types<std::pair<unsigned short const ,bool> > > > const &>, COMDAT
; File C:\Program Files\Microsoft Visual Studio\2022\Community\VC\Tools\MSVC\14.33.31629\include\xutility
; Line 231
$LN5:
	mov	QWORD PTR [rsp+16], rdx
	mov	QWORD PTR [rsp+8], rcx
	sub	rsp, 72					; 00000048H
; Line 233
	call	?is_constant_evaluated@std@@YA_NXZ	; std::is_constant_evaluated
	movzx	eax, al
	test	eax, eax
	je	SHORT $LN2@Construct_
; Line 234
	mov	rcx, QWORD PTR <_Args_0>$[rsp]
	call	??$forward@AEBV?$_List_unchecked_iterator@V?$_List_val@U?$_List_simple_types@U?$pair@$$CBG_N@std@@@std@@@std@@@std@@@std@@YAAEBV?$_List_unchecked_iterator@V?$_List_val@U?$_List_simple_types@U?$pair@$$CBG_N@std@@@std@@@std@@@0@AEBV10@@Z ; std::forward<std::_List_unchecked_iterator<std::_List_val<std::_List_simple_types<std::pair<unsigned short const ,bool> > > > const &>
	mov	QWORD PTR tv77[rsp], rax
	mov	rcx, QWORD PTR _Obj$[rsp]
	call	??$addressof@V?$_List_unchecked_iterator@V?$_List_val@U?$_List_simple_types@U?$pair@$$CBG_N@std@@@std@@@std@@@std@@@std@@YAPEAV?$_List_unchecked_iterator@V?$_List_val@U?$_List_simple_types@U?$pair@$$CBG_N@std@@@std@@@std@@@0@AEAV10@@Z ; std::addressof<std::_List_unchecked_iterator<std::_List_val<std::_List_simple_types<std::pair<unsigned short const ,bool> > > > >
	mov	QWORD PTR tv75[rsp], rax
	mov	rdx, QWORD PTR tv77[rsp]
	mov	rcx, QWORD PTR tv75[rsp]
	call	??$construct_at@V?$_List_unchecked_iterator@V?$_List_val@U?$_List_simple_types@U?$pair@$$CBG_N@std@@@std@@@std@@@std@@AEBV12@X@std@@YAPEAV?$_List_unchecked_iterator@V?$_List_val@U?$_List_simple_types@U?$pair@$$CBG_N@std@@@std@@@std@@@0@QEAV10@AEBV10@@Z ; std::construct_at<std::_List_unchecked_iterator<std::_List_val<std::_List_simple_types<std::pair<unsigned short const ,bool> > > >,std::_List_unchecked_iterator<std::_List_val<std::_List_simple_types<std::pair<unsigned short const ,bool> > > > const &,void>
; Line 235
	jmp	SHORT $LN3@Construct_
$LN2@Construct_:
; Line 238
	mov	rcx, QWORD PTR _Obj$[rsp]
	call	??$addressof@V?$_List_unchecked_iterator@V?$_List_val@U?$_List_simple_types@U?$pair@$$CBG_N@std@@@std@@@std@@@std@@@std@@YAPEAV?$_List_unchecked_iterator@V?$_List_val@U?$_List_simple_types@U?$pair@$$CBG_N@std@@@std@@@std@@@0@AEAV10@@Z ; std::addressof<std::_List_unchecked_iterator<std::_List_val<std::_List_simple_types<std::pair<unsigned short const ,bool> > > > >
	mov	rcx, rax
	call	??$_Voidify_iter@PEAV?$_List_unchecked_iterator@V?$_List_val@U?$_List_simple_types@U?$pair@$$CBG_N@std@@@std@@@std@@@std@@@std@@YAPEAXPEAV?$_List_unchecked_iterator@V?$_List_val@U?$_List_simple_types@U?$pair@$$CBG_N@std@@@std@@@std@@@0@@Z ; std::_Voidify_iter<std::_List_unchecked_iterator<std::_List_val<std::_List_simple_types<std::pair<unsigned short const ,bool> > > > *>
	mov	rdx, rax
	mov	ecx, 8
	call	??2@YAPEAX_KPEAX@Z			; operator new
	mov	QWORD PTR $T1[rsp], rax
	mov	rcx, QWORD PTR <_Args_0>$[rsp]
	call	??$forward@AEBV?$_List_unchecked_iterator@V?$_List_val@U?$_List_simple_types@U?$pair@$$CBG_N@std@@@std@@@std@@@std@@@std@@YAAEBV?$_List_unchecked_iterator@V?$_List_val@U?$_List_simple_types@U?$pair@$$CBG_N@std@@@std@@@std@@@0@AEBV10@@Z ; std::forward<std::_List_unchecked_iterator<std::_List_val<std::_List_simple_types<std::pair<unsigned short const ,bool> > > > const &>
	mov	rax, QWORD PTR [rax]
	mov	rcx, QWORD PTR $T1[rsp]
	mov	QWORD PTR [rcx], rax
$LN3@Construct_:
; Line 240
	add	rsp, 72					; 00000048H
	ret	0
??$_Construct_in_place@V?$_List_unchecked_iterator@V?$_List_val@U?$_List_simple_types@U?$pair@$$CBG_N@std@@@std@@@std@@@std@@AEBV12@@std@@YAXAEAV?$_List_unchecked_iterator@V?$_List_val@U?$_List_simple_types@U?$pair@$$CBG_N@std@@@std@@@std@@@0@AEBV10@@Z ENDP ; std::_Construct_in_place<std::_List_unchecked_iterator<std::_List_val<std::_List_simple_types<std::pair<unsigned short const ,bool> > > >,std::_List_unchecked_iterator<std::_List_val<std::_List_simple_types<std::pair<unsigned short const ,bool> > > > const &>
_TEXT	ENDS
; Function compile flags: /Odtp
;	COMDAT ??$forward@AEBV?$_List_unchecked_iterator@V?$_List_val@U?$_List_simple_types@U?$pair@$$CBG_N@std@@@std@@@std@@@std@@@std@@YAAEBV?$_List_unchecked_iterator@V?$_List_val@U?$_List_simple_types@U?$pair@$$CBG_N@std@@@std@@@std@@@0@AEBV10@@Z
_TEXT	SEGMENT
_Arg$ = 8
??$forward@AEBV?$_List_unchecked_iterator@V?$_List_val@U?$_List_simple_types@U?$pair@$$CBG_N@std@@@std@@@std@@@std@@@std@@YAAEBV?$_List_unchecked_iterator@V?$_List_val@U?$_List_simple_types@U?$pair@$$CBG_N@std@@@std@@@std@@@0@AEBV10@@Z PROC ; std::forward<std::_List_unchecked_iterator<std::_List_val<std::_List_simple_types<std::pair<unsigned short const ,bool> > > > const &>, COMDAT
; File C:\Program Files\Microsoft Visual Studio\2022\Community\VC\Tools\MSVC\14.33.31629\include\type_traits
; Line 1411
	mov	QWORD PTR [rsp+8], rcx
; Line 1412
	mov	rax, QWORD PTR _Arg$[rsp]
; Line 1413
	ret	0
??$forward@AEBV?$_List_unchecked_iterator@V?$_List_val@U?$_List_simple_types@U?$pair@$$CBG_N@std@@@std@@@std@@@std@@@std@@YAAEBV?$_List_unchecked_iterator@V?$_List_val@U?$_List_simple_types@U?$pair@$$CBG_N@std@@@std@@@std@@@0@AEBV10@@Z ENDP ; std::forward<std::_List_unchecked_iterator<std::_List_val<std::_List_simple_types<std::pair<unsigned short const ,bool> > > > const &>
_TEXT	ENDS
; Function compile flags: /Odtp
;	COMDAT ??$construct_at@U?$pair@$$CBG_N@std@@AEBUpiecewise_construct_t@2@V?$tuple@$$QEAG@2@V?$tuple@$$V@2@X@std@@YAPEAU?$pair@$$CBG_N@0@QEAU10@AEBUpiecewise_construct_t@0@$$QEAV?$tuple@$$QEAG@0@$$QEAV?$tuple@$$V@0@@Z
_TEXT	SEGMENT
$T1 = 32
$T2 = 33
$T3 = 34
$T4 = 35
$T5 = 40
$T6 = 48
tv130 = 56
tv95 = 64
$T7 = 72
$T8 = 80
_Location$ = 112
<_Args_0>$ = 120
<_Args_1>$ = 128
<_Args_2>$ = 136
??$construct_at@U?$pair@$$CBG_N@std@@AEBUpiecewise_construct_t@2@V?$tuple@$$QEAG@2@V?$tuple@$$V@2@X@std@@YAPEAU?$pair@$$CBG_N@0@QEAU10@AEBUpiecewise_construct_t@0@$$QEAV?$tuple@$$QEAG@0@$$QEAV?$tuple@$$V@0@@Z PROC ; std::construct_at<std::pair<unsigned short const ,bool>,std::piecewise_construct_t const &,std::tuple<unsigned short &&>,std::tuple<>,void>, COMDAT
; File C:\Program Files\Microsoft Visual Studio\2022\Community\VC\Tools\MSVC\14.33.31629\include\xutility
; Line 224
$LN3:
	mov	QWORD PTR [rsp+32], r9
	mov	QWORD PTR [rsp+24], r8
	mov	QWORD PTR [rsp+16], rdx
	mov	QWORD PTR [rsp+8], rcx
	sub	rsp, 104				; 00000068H
; Line 225
	mov	rcx, QWORD PTR _Location$[rsp]
	call	??$_Voidify_iter@PEAU?$pair@$$CBG_N@std@@@std@@YAPEAXPEAU?$pair@$$CBG_N@0@@Z ; std::_Voidify_iter<std::pair<unsigned short const ,bool> *>
	mov	rdx, rax
	mov	ecx, 4
	call	??2@YAPEAX_KPEAX@Z			; operator new
	mov	QWORD PTR $T7[rsp], rax
	lea	rax, QWORD PTR $T4[rsp]
	mov	QWORD PTR $T5[rsp], rax
	mov	rcx, QWORD PTR <_Args_2>$[rsp]
	call	??$forward@V?$tuple@$$V@std@@@std@@YA$$QEAV?$tuple@$$V@0@AEAV10@@Z ; std::forward<std::tuple<> >
	mov	rdx, rax
	mov	rcx, QWORD PTR $T5[rsp]
	call	??0?$tuple@$$V@std@@QEAA@AEBV01@@Z	; std::tuple<>::tuple<>
	mov	QWORD PTR tv130[rsp], rax
	lea	rax, QWORD PTR $T8[rsp]
	mov	QWORD PTR $T6[rsp], rax
	mov	rcx, QWORD PTR <_Args_1>$[rsp]
	call	??$forward@V?$tuple@$$QEAG@std@@@std@@YA$$QEAV?$tuple@$$QEAG@0@AEAV10@@Z ; std::forward<std::tuple<unsigned short &&> >
	mov	rdx, rax
	mov	rcx, QWORD PTR $T6[rsp]
	call	??0?$tuple@$$QEAG@std@@QEAA@$$QEAV01@@Z	; std::tuple<unsigned short &&>::tuple<unsigned short &&>
	mov	QWORD PTR tv95[rsp], rax
	mov	rcx, QWORD PTR <_Args_0>$[rsp]
	call	??$forward@AEBUpiecewise_construct_t@std@@@std@@YAAEBUpiecewise_construct_t@0@AEBU10@@Z ; std::forward<std::piecewise_construct_t const &>
	movzx	eax, BYTE PTR [rax]
	mov	BYTE PTR $T1[rsp], al
	movzx	eax, BYTE PTR $T1[rsp]
	mov	BYTE PTR $T2[rsp], al
	movzx	eax, BYTE PTR $T2[rsp]
	mov	BYTE PTR $T3[rsp], al
	mov	r9, QWORD PTR tv130[rsp]
	mov	r8, QWORD PTR tv95[rsp]
	movzx	edx, BYTE PTR $T3[rsp]
	mov	rcx, QWORD PTR $T7[rsp]
	call	??$?0$$QEAG$$Z$$V@?$pair@$$CBG_N@std@@QEAA@Upiecewise_construct_t@1@V?$tuple@$$QEAG@1@V?$tuple@$$V@1@@Z ; std::pair<unsigned short const ,bool>::pair<unsigned short const ,bool><unsigned short &&>
; Line 226
	add	rsp, 104				; 00000068H
	ret	0
??$construct_at@U?$pair@$$CBG_N@std@@AEBUpiecewise_construct_t@2@V?$tuple@$$QEAG@2@V?$tuple@$$V@2@X@std@@YAPEAU?$pair@$$CBG_N@0@QEAU10@AEBUpiecewise_construct_t@0@$$QEAV?$tuple@$$QEAG@0@$$QEAV?$tuple@$$V@0@@Z ENDP ; std::construct_at<std::pair<unsigned short const ,bool>,std::piecewise_construct_t const &,std::tuple<unsigned short &&>,std::tuple<>,void>
_TEXT	ENDS
; Function compile flags: /Odtp
;	COMDAT ??$?0$$QEAG$$Z$$V@?$pair@$$CBG_N@std@@QEAA@Upiecewise_construct_t@1@V?$tuple@$$QEAG@1@V?$tuple@$$V@1@@Z
_TEXT	SEGMENT
$T1 = 48
$T2 = 49
this$ = 80
__formal$ = 88
_Val1$ = 96
_Val2$ = 104
??$?0$$QEAG$$Z$$V@?$pair@$$CBG_N@std@@QEAA@Upiecewise_construct_t@1@V?$tuple@$$QEAG@1@V?$tuple@$$V@1@@Z PROC ; std::pair<unsigned short const ,bool>::pair<unsigned short const ,bool><unsigned short &&>, COMDAT
; File C:\Program Files\Microsoft Visual Studio\2022\Community\VC\Tools\MSVC\14.33.31629\include\utility
; Line 291
$LN3:
	mov	QWORD PTR [rsp+32], r9
	mov	QWORD PTR [rsp+24], r8
	mov	BYTE PTR [rsp+16], dl
	mov	QWORD PTR [rsp+8], rcx
	push	rdi
	sub	rsp, 64					; 00000040H
	lea	rax, QWORD PTR $T1[rsp]
	mov	rdi, rax
	xor	eax, eax
	mov	ecx, 1
	rep stosb
	lea	rax, QWORD PTR $T2[rsp]
	mov	rdi, rax
	xor	eax, eax
	mov	ecx, 1
	rep stosb
	movzx	eax, BYTE PTR $T1[rsp]
	mov	BYTE PTR [rsp+32], al
	movzx	r9d, BYTE PTR $T2[rsp]
	mov	r8, QWORD PTR _Val2$[rsp]
	mov	rdx, QWORD PTR _Val1$[rsp]
	mov	rcx, QWORD PTR this$[rsp]
	call	??$?0V?$tuple@$$QEAG@std@@V?$tuple@$$V@1@$0A@$$Z$S@?$pair@$$CBG_N@std@@QEAA@AEAV?$tuple@$$QEAG@1@AEAV?$tuple@$$V@1@U?$integer_sequence@_K$0A@@1@U?$integer_sequence@_K$S@1@@Z ; std::pair<unsigned short const ,bool>::pair<unsigned short const ,bool><std::tuple<unsigned short &&>,std::tuple<>,0>
	mov	rax, QWORD PTR this$[rsp]
	add	rsp, 64					; 00000040H
	pop	rdi
	ret	0
??$?0$$QEAG$$Z$$V@?$pair@$$CBG_N@std@@QEAA@Upiecewise_construct_t@1@V?$tuple@$$QEAG@1@V?$tuple@$$V@1@@Z ENDP ; std::pair<unsigned short const ,bool>::pair<unsigned short const ,bool><unsigned short &&>
_TEXT	ENDS
; Function compile flags: /Odtp
;	COMDAT ??$?0U_Exact_args_t@std@@G$$V$0A@@?$tuple@$$QEAG@std@@QEAA@U_Exact_args_t@1@$$QEAG@Z
_TEXT	SEGMENT
$T1 = 32
tv77 = 40
this$ = 64
__formal$ = 72
_This_arg$ = 80
??$?0U_Exact_args_t@std@@G$$V$0A@@?$tuple@$$QEAG@std@@QEAA@U_Exact_args_t@1@$$QEAG@Z PROC ; std::tuple<unsigned short &&>::tuple<unsigned short &&><std::_Exact_args_t,unsigned short,0>, COMDAT
; File C:\Program Files\Microsoft Visual Studio\2022\Community\VC\Tools\MSVC\14.33.31629\include\tuple
; Line 265
$LN3:
	mov	QWORD PTR [rsp+24], r8
	mov	BYTE PTR [rsp+16], dl
	mov	QWORD PTR [rsp+8], rcx
	sub	rsp, 56					; 00000038H
	movzx	edx, BYTE PTR $T1[rsp]
	mov	rcx, QWORD PTR this$[rsp]
	call	??$?0U_Exact_args_t@std@@$0A@@?$tuple@$$V@std@@QEAA@U_Exact_args_t@1@@Z ; std::tuple<>::tuple<><std::_Exact_args_t,0>
	mov	rax, QWORD PTR this$[rsp]
	mov	QWORD PTR tv77[rsp], rax
	mov	rcx, QWORD PTR _This_arg$[rsp]
	call	??$forward@G@std@@YA$$QEAGAEAG@Z	; std::forward<unsigned short>
	mov	rdx, rax
	mov	rcx, QWORD PTR tv77[rsp]
	call	??$?0G@?$_Tuple_val@$$QEAG@std@@QEAA@$$QEAG@Z ; std::_Tuple_val<unsigned short &&>::_Tuple_val<unsigned short &&><unsigned short>
	mov	rax, QWORD PTR this$[rsp]
	add	rsp, 56					; 00000038H
	ret	0
??$?0U_Exact_args_t@std@@G$$V$0A@@?$tuple@$$QEAG@std@@QEAA@U_Exact_args_t@1@$$QEAG@Z ENDP ; std::tuple<unsigned short &&>::tuple<unsigned short &&><std::_Exact_args_t,unsigned short,0>
_TEXT	ENDS
; Function compile flags: /Odtp
;	COMDAT ??$_Voidify_iter@PEAU?$pair@$$CBG_N@std@@@std@@YAPEAXPEAU?$pair@$$CBG_N@0@@Z
_TEXT	SEGMENT
_It$ = 8
??$_Voidify_iter@PEAU?$pair@$$CBG_N@std@@@std@@YAPEAXPEAU?$pair@$$CBG_N@0@@Z PROC ; std::_Voidify_iter<std::pair<unsigned short const ,bool> *>, COMDAT
; File C:\Program Files\Microsoft Visual Studio\2022\Community\VC\Tools\MSVC\14.33.31629\include\xutility
; Line 212
	mov	QWORD PTR [rsp+8], rcx
; Line 214
	mov	rax, QWORD PTR _It$[rsp]
; Line 218
	ret	0
??$_Voidify_iter@PEAU?$pair@$$CBG_N@std@@@std@@YAPEAXPEAU?$pair@$$CBG_N@0@@Z ENDP ; std::_Voidify_iter<std::pair<unsigned short const ,bool> *>
_TEXT	ENDS
; Function compile flags: /Odtp
;	COMDAT ??$construct_at@U?$pair@$$CBG_N@std@@AEBUpiecewise_construct_t@2@V?$tuple@AEBG@2@V?$tuple@$$V@2@X@std@@YAPEAU?$pair@$$CBG_N@0@QEAU10@AEBUpiecewise_construct_t@0@$$QEAV?$tuple@AEBG@0@$$QEAV?$tuple@$$V@0@@Z
_TEXT	SEGMENT
$T1 = 32
$T2 = 33
$T3 = 34
$T4 = 35
$T5 = 40
$T6 = 48
tv130 = 56
tv95 = 64
$T7 = 72
$T8 = 80
_Location$ = 112
<_Args_0>$ = 120
<_Args_1>$ = 128
<_Args_2>$ = 136
??$construct_at@U?$pair@$$CBG_N@std@@AEBUpiecewise_construct_t@2@V?$tuple@AEBG@2@V?$tuple@$$V@2@X@std@@YAPEAU?$pair@$$CBG_N@0@QEAU10@AEBUpiecewise_construct_t@0@$$QEAV?$tuple@AEBG@0@$$QEAV?$tuple@$$V@0@@Z PROC ; std::construct_at<std::pair<unsigned short const ,bool>,std::piecewise_construct_t const &,std::tuple<unsigned short const &>,std::tuple<>,void>, COMDAT
; File C:\Program Files\Microsoft Visual Studio\2022\Community\VC\Tools\MSVC\14.33.31629\include\xutility
; Line 224
$LN3:
	mov	QWORD PTR [rsp+32], r9
	mov	QWORD PTR [rsp+24], r8
	mov	QWORD PTR [rsp+16], rdx
	mov	QWORD PTR [rsp+8], rcx
	sub	rsp, 104				; 00000068H
; Line 225
	mov	rcx, QWORD PTR _Location$[rsp]
	call	??$_Voidify_iter@PEAU?$pair@$$CBG_N@std@@@std@@YAPEAXPEAU?$pair@$$CBG_N@0@@Z ; std::_Voidify_iter<std::pair<unsigned short const ,bool> *>
	mov	rdx, rax
	mov	ecx, 4
	call	??2@YAPEAX_KPEAX@Z			; operator new
	mov	QWORD PTR $T7[rsp], rax
	lea	rax, QWORD PTR $T4[rsp]
	mov	QWORD PTR $T5[rsp], rax
	mov	rcx, QWORD PTR <_Args_2>$[rsp]
	call	??$forward@V?$tuple@$$V@std@@@std@@YA$$QEAV?$tuple@$$V@0@AEAV10@@Z ; std::forward<std::tuple<> >
	mov	rdx, rax
	mov	rcx, QWORD PTR $T5[rsp]
	call	??0?$tuple@$$V@std@@QEAA@AEBV01@@Z	; std::tuple<>::tuple<>
	mov	QWORD PTR tv130[rsp], rax
	lea	rax, QWORD PTR $T8[rsp]
	mov	QWORD PTR $T6[rsp], rax
	mov	rcx, QWORD PTR <_Args_1>$[rsp]
	call	??$forward@V?$tuple@AEBG@std@@@std@@YA$$QEAV?$tuple@AEBG@0@AEAV10@@Z ; std::forward<std::tuple<unsigned short const &> >
	mov	rdx, rax
	mov	rcx, QWORD PTR $T6[rsp]
	call	??0?$tuple@AEBG@std@@QEAA@$$QEAV01@@Z	; std::tuple<unsigned short const &>::tuple<unsigned short const &>
	mov	QWORD PTR tv95[rsp], rax
	mov	rcx, QWORD PTR <_Args_0>$[rsp]
	call	??$forward@AEBUpiecewise_construct_t@std@@@std@@YAAEBUpiecewise_construct_t@0@AEBU10@@Z ; std::forward<std::piecewise_construct_t const &>
	movzx	eax, BYTE PTR [rax]
	mov	BYTE PTR $T1[rsp], al
	movzx	eax, BYTE PTR $T1[rsp]
	mov	BYTE PTR $T2[rsp], al
	movzx	eax, BYTE PTR $T2[rsp]
	mov	BYTE PTR $T3[rsp], al
	mov	r9, QWORD PTR tv130[rsp]
	mov	r8, QWORD PTR tv95[rsp]
	movzx	edx, BYTE PTR $T3[rsp]
	mov	rcx, QWORD PTR $T7[rsp]
	call	??$?0AEBG$$Z$$V@?$pair@$$CBG_N@std@@QEAA@Upiecewise_construct_t@1@V?$tuple@AEBG@1@V?$tuple@$$V@1@@Z ; std::pair<unsigned short const ,bool>::pair<unsigned short const ,bool><unsigned short const &>
; Line 226
	add	rsp, 104				; 00000068H
	ret	0
??$construct_at@U?$pair@$$CBG_N@std@@AEBUpiecewise_construct_t@2@V?$tuple@AEBG@2@V?$tuple@$$V@2@X@std@@YAPEAU?$pair@$$CBG_N@0@QEAU10@AEBUpiecewise_construct_t@0@$$QEAV?$tuple@AEBG@0@$$QEAV?$tuple@$$V@0@@Z ENDP ; std::construct_at<std::pair<unsigned short const ,bool>,std::piecewise_construct_t const &,std::tuple<unsigned short const &>,std::tuple<>,void>
_TEXT	ENDS
; Function compile flags: /Odtp
;	COMDAT ??$?0AEBG$$Z$$V@?$pair@$$CBG_N@std@@QEAA@Upiecewise_construct_t@1@V?$tuple@AEBG@1@V?$tuple@$$V@1@@Z
_TEXT	SEGMENT
$T1 = 48
$T2 = 49
this$ = 80
__formal$ = 88
_Val1$ = 96
_Val2$ = 104
??$?0AEBG$$Z$$V@?$pair@$$CBG_N@std@@QEAA@Upiecewise_construct_t@1@V?$tuple@AEBG@1@V?$tuple@$$V@1@@Z PROC ; std::pair<unsigned short const ,bool>::pair<unsigned short const ,bool><unsigned short const &>, COMDAT
; File C:\Program Files\Microsoft Visual Studio\2022\Community\VC\Tools\MSVC\14.33.31629\include\utility
; Line 291
$LN3:
	mov	QWORD PTR [rsp+32], r9
	mov	QWORD PTR [rsp+24], r8
	mov	BYTE PTR [rsp+16], dl
	mov	QWORD PTR [rsp+8], rcx
	push	rdi
	sub	rsp, 64					; 00000040H
	lea	rax, QWORD PTR $T1[rsp]
	mov	rdi, rax
	xor	eax, eax
	mov	ecx, 1
	rep stosb
	lea	rax, QWORD PTR $T2[rsp]
	mov	rdi, rax
	xor	eax, eax
	mov	ecx, 1
	rep stosb
	movzx	eax, BYTE PTR $T1[rsp]
	mov	BYTE PTR [rsp+32], al
	movzx	r9d, BYTE PTR $T2[rsp]
	mov	r8, QWORD PTR _Val2$[rsp]
	mov	rdx, QWORD PTR _Val1$[rsp]
	mov	rcx, QWORD PTR this$[rsp]
	call	??$?0V?$tuple@AEBG@std@@V?$tuple@$$V@1@$0A@$$Z$S@?$pair@$$CBG_N@std@@QEAA@AEAV?$tuple@AEBG@1@AEAV?$tuple@$$V@1@U?$integer_sequence@_K$0A@@1@U?$integer_sequence@_K$S@1@@Z ; std::pair<unsigned short const ,bool>::pair<unsigned short const ,bool><std::tuple<unsigned short const &>,std::tuple<>,0>
	mov	rax, QWORD PTR this$[rsp]
	add	rsp, 64					; 00000040H
	pop	rdi
	ret	0
??$?0AEBG$$Z$$V@?$pair@$$CBG_N@std@@QEAA@Upiecewise_construct_t@1@V?$tuple@AEBG@1@V?$tuple@$$V@1@@Z ENDP ; std::pair<unsigned short const ,bool>::pair<unsigned short const ,bool><unsigned short const &>
_TEXT	ENDS
; Function compile flags: /Odtp
;	COMDAT ??$?0U_Exact_args_t@std@@AEBG$$V$0A@@?$tuple@AEBG@std@@QEAA@U_Exact_args_t@1@AEBG@Z
_TEXT	SEGMENT
$T1 = 32
tv77 = 40
this$ = 64
__formal$ = 72
_This_arg$ = 80
??$?0U_Exact_args_t@std@@AEBG$$V$0A@@?$tuple@AEBG@std@@QEAA@U_Exact_args_t@1@AEBG@Z PROC ; std::tuple<unsigned short const &>::tuple<unsigned short const &><std::_Exact_args_t,unsigned short const &,0>, COMDAT
; File C:\Program Files\Microsoft Visual Studio\2022\Community\VC\Tools\MSVC\14.33.31629\include\tuple
; Line 265
$LN3:
	mov	QWORD PTR [rsp+24], r8
	mov	BYTE PTR [rsp+16], dl
	mov	QWORD PTR [rsp+8], rcx
	sub	rsp, 56					; 00000038H
	movzx	edx, BYTE PTR $T1[rsp]
	mov	rcx, QWORD PTR this$[rsp]
	call	??$?0U_Exact_args_t@std@@$0A@@?$tuple@$$V@std@@QEAA@U_Exact_args_t@1@@Z ; std::tuple<>::tuple<><std::_Exact_args_t,0>
	mov	rax, QWORD PTR this$[rsp]
	mov	QWORD PTR tv77[rsp], rax
	mov	rcx, QWORD PTR _This_arg$[rsp]
	call	??$forward@AEBG@std@@YAAEBGAEBG@Z	; std::forward<unsigned short const &>
	mov	rdx, rax
	mov	rcx, QWORD PTR tv77[rsp]
	call	??$?0AEBG@?$_Tuple_val@AEBG@std@@QEAA@AEBG@Z ; std::_Tuple_val<unsigned short const &>::_Tuple_val<unsigned short const &><unsigned short const &>
	mov	rax, QWORD PTR this$[rsp]
	add	rsp, 56					; 00000038H
	ret	0
??$?0U_Exact_args_t@std@@AEBG$$V$0A@@?$tuple@AEBG@std@@QEAA@U_Exact_args_t@1@AEBG@Z ENDP ; std::tuple<unsigned short const &>::tuple<unsigned short const &><std::_Exact_args_t,unsigned short const &,0>
_TEXT	ENDS
; Function compile flags: /Odtp
;	COMDAT ??$_Hash_representation@G@std@@YA_KAEBG@Z
_TEXT	SEGMENT
_Keyval$ = 48
??$_Hash_representation@G@std@@YA_KAEBG@Z PROC		; std::_Hash_representation<unsigned short>, COMDAT
; File C:\Program Files\Microsoft Visual Studio\2022\Community\VC\Tools\MSVC\14.33.31629\include\type_traits
; Line 2144
$LN3:
	mov	QWORD PTR [rsp+8], rcx
	sub	rsp, 40					; 00000028H
; Line 2145
	mov	rdx, QWORD PTR _Keyval$[rsp]
	mov	rcx, -3750763034362895579		; cbf29ce484222325H
	call	??$_Fnv1a_append_value@G@std@@YA_K_KAEBG@Z ; std::_Fnv1a_append_value<unsigned short>
; Line 2146
	add	rsp, 40					; 00000028H
	ret	0
??$_Hash_representation@G@std@@YA_KAEBG@Z ENDP		; std::_Hash_representation<unsigned short>
_TEXT	ENDS
; Function compile flags: /Odtp
;	COMDAT ??$_Get_size_of_n@$0BI@@std@@YA_K_K@Z
_TEXT	SEGMENT
_Overflow_is_possible$ = 32
_Max_possible$1 = 40
_Count$ = 64
??$_Get_size_of_n@$0BI@@std@@YA_K_K@Z PROC		; std::_Get_size_of_n<24>, COMDAT
; File C:\Program Files\Microsoft Visual Studio\2022\Community\VC\Tools\MSVC\14.33.31629\include\xmemory
; Line 55
$LN4:
	mov	QWORD PTR [rsp+8], rcx
	sub	rsp, 56					; 00000038H
; Line 56
	mov	BYTE PTR _Overflow_is_possible$[rsp], 1
; Line 59
	mov	rax, 768614336404564650			; 0aaaaaaaaaaaaaaaH
	mov	QWORD PTR _Max_possible$1[rsp], rax
; Line 60
	mov	rax, 768614336404564650			; 0aaaaaaaaaaaaaaaH
	cmp	QWORD PTR _Count$[rsp], rax
	jbe	SHORT $LN2@Get_size_o
; Line 61
	call	?_Throw_bad_array_new_length@std@@YAXXZ	; std::_Throw_bad_array_new_length
$LN2@Get_size_o:
; Line 65
	imul	rax, QWORD PTR _Count$[rsp], 24
$LN3@Get_size_o:
; Line 66
	add	rsp, 56					; 00000038H
	ret	0
??$_Get_size_of_n@$0BI@@std@@YA_K_K@Z ENDP		; std::_Get_size_of_n<24>
_TEXT	ENDS
; Function compile flags: /Odtp
;	COMDAT ??$_Freenode0@V?$allocator@U?$_List_node@U?$pair@$$CBG_N@std@@PEAX@std@@@std@@@?$_List_node@U?$pair@$$CBG_N@std@@PEAX@std@@SAXAEAV?$allocator@U?$_List_node@U?$pair@$$CBG_N@std@@PEAX@std@@@1@PEAU01@@Z
_TEXT	SEGMENT
_Al$ = 48
_Ptr$ = 56
??$_Freenode0@V?$allocator@U?$_List_node@U?$pair@$$CBG_N@std@@PEAX@std@@@std@@@?$_List_node@U?$pair@$$CBG_N@std@@PEAX@std@@SAXAEAV?$allocator@U?$_List_node@U?$pair@$$CBG_N@std@@PEAX@std@@@1@PEAU01@@Z PROC ; std::_List_node<std::pair<unsigned short const ,bool>,void *>::_Freenode0<std::allocator<std::_List_node<std::pair<unsigned short const ,bool>,void *> > >, COMDAT
; File C:\Program Files\Microsoft Visual Studio\2022\Community\VC\Tools\MSVC\14.33.31629\include\list
; Line 306
$LN3:
	mov	QWORD PTR [rsp+16], rdx
	mov	QWORD PTR [rsp+8], rcx
	sub	rsp, 40					; 00000028H
; Line 309
	mov	rax, QWORD PTR _Ptr$[rsp]
	mov	rcx, rax
	call	??$_Destroy_in_place@PEAU?$_List_node@U?$pair@$$CBG_N@std@@PEAX@std@@@std@@YAXAEAPEAU?$_List_node@U?$pair@$$CBG_N@std@@PEAX@0@@Z ; std::_Destroy_in_place<std::_List_node<std::pair<unsigned short const ,bool>,void *> *>
; Line 310
	mov	rax, QWORD PTR _Ptr$[rsp]
	add	rax, 8
	mov	rcx, rax
	call	??$_Destroy_in_place@PEAU?$_List_node@U?$pair@$$CBG_N@std@@PEAX@std@@@std@@YAXAEAPEAU?$_List_node@U?$pair@$$CBG_N@std@@PEAX@0@@Z ; std::_Destroy_in_place<std::_List_node<std::pair<unsigned short const ,bool>,void *> *>
; Line 311
	mov	r8d, 1
	mov	rdx, QWORD PTR _Ptr$[rsp]
	mov	rcx, QWORD PTR _Al$[rsp]
	call	?deallocate@?$_Default_allocator_traits@V?$allocator@U?$_List_node@U?$pair@$$CBG_N@std@@PEAX@std@@@std@@@std@@SAXAEAV?$allocator@U?$_List_node@U?$pair@$$CBG_N@std@@PEAX@std@@@2@QEAU?$_List_node@U?$pair@$$CBG_N@std@@PEAX@2@_K@Z ; std::_Default_allocator_traits<std::allocator<std::_List_node<std::pair<unsigned short const ,bool>,void *> > >::deallocate
	npad	1
; Line 312
	add	rsp, 40					; 00000028H
	ret	0
??$_Freenode0@V?$allocator@U?$_List_node@U?$pair@$$CBG_N@std@@PEAX@std@@@std@@@?$_List_node@U?$pair@$$CBG_N@std@@PEAX@std@@SAXAEAV?$allocator@U?$_List_node@U?$pair@$$CBG_N@std@@PEAX@std@@@1@PEAU01@@Z ENDP ; std::_List_node<std::pair<unsigned short const ,bool>,void *>::_Freenode0<std::allocator<std::_List_node<std::pair<unsigned short const ,bool>,void *> > >
_TEXT	ENDS
; Function compile flags: /Odtp
;	COMDAT ??$_Emplace_back@AEBV?$_List_unchecked_iterator@V?$_List_val@U?$_List_simple_types@U?$pair@$$CBG_N@std@@@std@@@std@@@std@@@?$_Uninitialized_backout@PEAV?$_List_unchecked_iterator@V?$_List_val@U?$_List_simple_types@U?$pair@$$CBG_N@std@@@std@@@std@@@std@@@std@@QEAAXAEBV?$_List_unchecked_iterator@V?$_List_val@U?$_List_simple_types@U?$pair@$$CBG_N@std@@@std@@@std@@@1@@Z
_TEXT	SEGMENT
tv72 = 32
tv70 = 40
this$ = 64
<_Vals_0>$ = 72
??$_Emplace_back@AEBV?$_List_unchecked_iterator@V?$_List_val@U?$_List_simple_types@U?$pair@$$CBG_N@std@@@std@@@std@@@std@@@?$_Uninitialized_backout@PEAV?$_List_unchecked_iterator@V?$_List_val@U?$_List_simple_types@U?$pair@$$CBG_N@std@@@std@@@std@@@std@@@std@@QEAAXAEBV?$_List_unchecked_iterator@V?$_List_val@U?$_List_simple_types@U?$pair@$$CBG_N@std@@@std@@@std@@@1@@Z PROC ; std::_Uninitialized_backout<std::_List_unchecked_iterator<std::_List_val<std::_List_simple_types<std::pair<unsigned short const ,bool> > > > *>::_Emplace_back<std::_List_unchecked_iterator<std::_List_val<std::_List_simple_types<std::pair<unsigned short const ,bool> > > > const &>, COMDAT
; File C:\Program Files\Microsoft Visual Studio\2022\Community\VC\Tools\MSVC\14.33.31629\include\xmemory
; Line 1474
$LN3:
	mov	QWORD PTR [rsp+16], rdx
	mov	QWORD PTR [rsp+8], rcx
	sub	rsp, 56					; 00000038H
; Line 1476
	mov	rcx, QWORD PTR <_Vals_0>$[rsp]
	call	??$forward@AEBV?$_List_unchecked_iterator@V?$_List_val@U?$_List_simple_types@U?$pair@$$CBG_N@std@@@std@@@std@@@std@@@std@@YAAEBV?$_List_unchecked_iterator@V?$_List_val@U?$_List_simple_types@U?$pair@$$CBG_N@std@@@std@@@std@@@0@AEBV10@@Z ; std::forward<std::_List_unchecked_iterator<std::_List_val<std::_List_simple_types<std::pair<unsigned short const ,bool> > > > const &>
	mov	QWORD PTR tv72[rsp], rax
	mov	rax, QWORD PTR this$[rsp]
	mov	rax, QWORD PTR [rax+8]
	mov	QWORD PTR tv70[rsp], rax
	mov	rdx, QWORD PTR tv72[rsp]
	mov	rcx, QWORD PTR tv70[rsp]
	call	??$_Construct_in_place@V?$_List_unchecked_iterator@V?$_List_val@U?$_List_simple_types@U?$pair@$$CBG_N@std@@@std@@@std@@@std@@AEBV12@@std@@YAXAEAV?$_List_unchecked_iterator@V?$_List_val@U?$_List_simple_types@U?$pair@$$CBG_N@std@@@std@@@std@@@0@AEBV10@@Z ; std::_Construct_in_place<std::_List_unchecked_iterator<std::_List_val<std::_List_simple_types<std::pair<unsigned short const ,bool> > > >,std::_List_unchecked_iterator<std::_List_val<std::_List_simple_types<std::pair<unsigned short const ,bool> > > > const &>
; Line 1477
	mov	rax, QWORD PTR this$[rsp]
	mov	rax, QWORD PTR [rax+8]
	add	rax, 8
	mov	rcx, QWORD PTR this$[rsp]
	mov	QWORD PTR [rcx+8], rax
; Line 1478
	add	rsp, 56					; 00000038H
	ret	0
??$_Emplace_back@AEBV?$_List_unchecked_iterator@V?$_List_val@U?$_List_simple_types@U?$pair@$$CBG_N@std@@@std@@@std@@@std@@@?$_Uninitialized_backout@PEAV?$_List_unchecked_iterator@V?$_List_val@U?$_List_simple_types@U?$pair@$$CBG_N@std@@@std@@@std@@@std@@@std@@QEAAXAEBV?$_List_unchecked_iterator@V?$_List_val@U?$_List_simple_types@U?$pair@$$CBG_N@std@@@std@@@std@@@1@@Z ENDP ; std::_Uninitialized_backout<std::_List_unchecked_iterator<std::_List_val<std::_List_simple_types<std::pair<unsigned short const ,bool> > > > *>::_Emplace_back<std::_List_unchecked_iterator<std::_List_val<std::_List_simple_types<std::pair<unsigned short const ,bool> > > > const &>
_TEXT	ENDS
; Function compile flags: /Odtp
;	COMDAT ?_Release@?$_Uninitialized_backout@PEAV?$_List_unchecked_iterator@V?$_List_val@U?$_List_simple_types@U?$pair@$$CBG_N@std@@@std@@@std@@@std@@@std@@QEAAPEAV?$_List_unchecked_iterator@V?$_List_val@U?$_List_simple_types@U?$pair@$$CBG_N@std@@@std@@@std@@@2@XZ
_TEXT	SEGMENT
this$ = 8
?_Release@?$_Uninitialized_backout@PEAV?$_List_unchecked_iterator@V?$_List_val@U?$_List_simple_types@U?$pair@$$CBG_N@std@@@std@@@std@@@std@@@std@@QEAAPEAV?$_List_unchecked_iterator@V?$_List_val@U?$_List_simple_types@U?$pair@$$CBG_N@std@@@std@@@std@@@2@XZ PROC ; std::_Uninitialized_backout<std::_List_unchecked_iterator<std::_List_val<std::_List_simple_types<std::pair<unsigned short const ,bool> > > > *>::_Release, COMDAT
; File C:\Program Files\Microsoft Visual Studio\2022\Community\VC\Tools\MSVC\14.33.31629\include\xmemory
; Line 1480
	mov	QWORD PTR [rsp+8], rcx
; Line 1481
	mov	rax, QWORD PTR this$[rsp]
	mov	rcx, QWORD PTR this$[rsp]
	mov	rcx, QWORD PTR [rcx+8]
	mov	QWORD PTR [rax], rcx
; Line 1482
	mov	rax, QWORD PTR this$[rsp]
	mov	rax, QWORD PTR [rax+8]
; Line 1483
	ret	0
?_Release@?$_Uninitialized_backout@PEAV?$_List_unchecked_iterator@V?$_List_val@U?$_List_simple_types@U?$pair@$$CBG_N@std@@@std@@@std@@@std@@@std@@QEAAPEAV?$_List_unchecked_iterator@V?$_List_val@U?$_List_simple_types@U?$pair@$$CBG_N@std@@@std@@@std@@@2@XZ ENDP ; std::_Uninitialized_backout<std::_List_unchecked_iterator<std::_List_val<std::_List_simple_types<std::pair<unsigned short const ,bool> > > > *>::_Release
_TEXT	ENDS
; Function compile flags: /Odtp
;	COMDAT ??1?$_Uninitialized_backout@PEAV?$_List_unchecked_iterator@V?$_List_val@U?$_List_simple_types@U?$pair@$$CBG_N@std@@@std@@@std@@@std@@@std@@QEAA@XZ
_TEXT	SEGMENT
this$ = 48
??1?$_Uninitialized_backout@PEAV?$_List_unchecked_iterator@V?$_List_val@U?$_List_simple_types@U?$pair@$$CBG_N@std@@@std@@@std@@@std@@@std@@QEAA@XZ PROC ; std::_Uninitialized_backout<std::_List_unchecked_iterator<std::_List_val<std::_List_simple_types<std::pair<unsigned short const ,bool> > > > *>::~_Uninitialized_backout<std::_List_unchecked_iterator<std::_List_val<std::_List_simple_types<std::pair<unsigned short const ,bool> > > > *>, COMDAT
; File C:\Program Files\Microsoft Visual Studio\2022\Community\VC\Tools\MSVC\14.33.31629\include\xmemory
; Line 1469
$LN3:
	mov	QWORD PTR [rsp+8], rcx
	sub	rsp, 40					; 00000028H
; Line 1470
	mov	rax, QWORD PTR this$[rsp]
	mov	rdx, QWORD PTR [rax+8]
	mov	rax, QWORD PTR this$[rsp]
	mov	rcx, QWORD PTR [rax]
	call	??$_Destroy_range@PEAV?$_List_unchecked_iterator@V?$_List_val@U?$_List_simple_types@U?$pair@$$CBG_N@std@@@std@@@std@@@std@@PEAV12@@std@@YAXPEAV?$_List_unchecked_iterator@V?$_List_val@U?$_List_simple_types@U?$pair@$$CBG_N@std@@@std@@@std@@@0@QEAV10@@Z ; std::_Destroy_range<std::_List_unchecked_iterator<std::_List_val<std::_List_simple_types<std::pair<unsigned short const ,bool> > > > *,std::_List_unchecked_iterator<std::_List_val<std::_List_simple_types<std::pair<unsigned short const ,bool> > > > *>
; Line 1471
	add	rsp, 40					; 00000028H
	ret	0
??1?$_Uninitialized_backout@PEAV?$_List_unchecked_iterator@V?$_List_val@U?$_List_simple_types@U?$pair@$$CBG_N@std@@@std@@@std@@@std@@@std@@QEAA@XZ ENDP ; std::_Uninitialized_backout<std::_List_unchecked_iterator<std::_List_val<std::_List_simple_types<std::pair<unsigned short const ,bool> > > > *>::~_Uninitialized_backout<std::_List_unchecked_iterator<std::_List_val<std::_List_simple_types<std::pair<unsigned short const ,bool> > > > *>
_TEXT	ENDS
; Function compile flags: /Odtp
;	COMDAT ??0?$_Uninitialized_backout@PEAV?$_List_unchecked_iterator@V?$_List_val@U?$_List_simple_types@U?$pair@$$CBG_N@std@@@std@@@std@@@std@@@std@@QEAA@PEAV?$_List_unchecked_iterator@V?$_List_val@U?$_List_simple_types@U?$pair@$$CBG_N@std@@@std@@@std@@@1@@Z
_TEXT	SEGMENT
this$ = 8
_Dest$ = 16
??0?$_Uninitialized_backout@PEAV?$_List_unchecked_iterator@V?$_List_val@U?$_List_simple_types@U?$pair@$$CBG_N@std@@@std@@@std@@@std@@@std@@QEAA@PEAV?$_List_unchecked_iterator@V?$_List_val@U?$_List_simple_types@U?$pair@$$CBG_N@std@@@std@@@std@@@1@@Z PROC ; std::_Uninitialized_backout<std::_List_unchecked_iterator<std::_List_val<std::_List_simple_types<std::pair<unsigned short const ,bool> > > > *>::_Uninitialized_backout<std::_List_unchecked_iterator<std::_List_val<std::_List_simple_types<std::pair<unsigned short const ,bool> > > > *>, COMDAT
; File C:\Program Files\Microsoft Visual Studio\2022\Community\VC\Tools\MSVC\14.33.31629\include\xmemory
; Line 1462
	mov	QWORD PTR [rsp+16], rdx
	mov	QWORD PTR [rsp+8], rcx
	mov	rax, QWORD PTR this$[rsp]
	mov	rcx, QWORD PTR _Dest$[rsp]
	mov	QWORD PTR [rax], rcx
	mov	rax, QWORD PTR this$[rsp]
	mov	rcx, QWORD PTR _Dest$[rsp]
	mov	QWORD PTR [rax+8], rcx
	mov	rax, QWORD PTR this$[rsp]
	ret	0
??0?$_Uninitialized_backout@PEAV?$_List_unchecked_iterator@V?$_List_val@U?$_List_simple_types@U?$pair@$$CBG_N@std@@@std@@@std@@@std@@@std@@QEAA@PEAV?$_List_unchecked_iterator@V?$_List_val@U?$_List_simple_types@U?$pair@$$CBG_N@std@@@std@@@std@@@1@@Z ENDP ; std::_Uninitialized_backout<std::_List_unchecked_iterator<std::_List_val<std::_List_simple_types<std::pair<unsigned short const ,bool> > > > *>::_Uninitialized_backout<std::_List_unchecked_iterator<std::_List_val<std::_List_simple_types<std::pair<unsigned short const ,bool> > > > *>
_TEXT	ENDS
; Function compile flags: /Odtp
;	COMDAT ??$_Get_unwrapped@AEBQEAV?$_List_unchecked_iterator@V?$_List_val@U?$_List_simple_types@U?$pair@$$CBG_N@std@@@std@@@std@@@std@@@std@@YA?A_TAEBQEAV?$_List_unchecked_iterator@V?$_List_val@U?$_List_simple_types@U?$pair@$$CBG_N@std@@@std@@@std@@@0@@Z
_TEXT	SEGMENT
_It$ = 8
??$_Get_unwrapped@AEBQEAV?$_List_unchecked_iterator@V?$_List_val@U?$_List_simple_types@U?$pair@$$CBG_N@std@@@std@@@std@@@std@@@std@@YA?A_TAEBQEAV?$_List_unchecked_iterator@V?$_List_val@U?$_List_simple_types@U?$pair@$$CBG_N@std@@@std@@@std@@@0@@Z PROC ; std::_Get_unwrapped<std::_List_unchecked_iterator<std::_List_val<std::_List_simple_types<std::pair<unsigned short const ,bool> > > > * const &>, COMDAT
; File C:\Program Files\Microsoft Visual Studio\2022\Community\VC\Tools\MSVC\14.33.31629\include\xutility
; Line 1347
	mov	QWORD PTR [rsp+8], rcx
; Line 1350
	mov	rax, QWORD PTR _It$[rsp]
	mov	rax, QWORD PTR [rax]
; Line 1356
	ret	0
??$_Get_unwrapped@AEBQEAV?$_List_unchecked_iterator@V?$_List_val@U?$_List_simple_types@U?$pair@$$CBG_N@std@@@std@@@std@@@std@@@std@@YA?A_TAEBQEAV?$_List_unchecked_iterator@V?$_List_val@U?$_List_simple_types@U?$pair@$$CBG_N@std@@@std@@@std@@@0@@Z ENDP ; std::_Get_unwrapped<std::_List_unchecked_iterator<std::_List_val<std::_List_simple_types<std::pair<unsigned short const ,bool> > > > * const &>
_TEXT	ENDS
; Function compile flags: /Odtp
;	COMDAT ??$_Adl_verify_range@PEAV?$_List_unchecked_iterator@V?$_List_val@U?$_List_simple_types@U?$pair@$$CBG_N@std@@@std@@@std@@@std@@PEAV12@@std@@YAXAEBQEAV?$_List_unchecked_iterator@V?$_List_val@U?$_List_simple_types@U?$pair@$$CBG_N@std@@@std@@@std@@@0@0@Z
_TEXT	SEGMENT
_First$ = 8
_Last$ = 16
??$_Adl_verify_range@PEAV?$_List_unchecked_iterator@V?$_List_val@U?$_List_simple_types@U?$pair@$$CBG_N@std@@@std@@@std@@@std@@PEAV12@@std@@YAXAEBQEAV?$_List_unchecked_iterator@V?$_List_val@U?$_List_simple_types@U?$pair@$$CBG_N@std@@@std@@@std@@@0@0@Z PROC ; std::_Adl_verify_range<std::_List_unchecked_iterator<std::_List_val<std::_List_simple_types<std::pair<unsigned short const ,bool> > > > *,std::_List_unchecked_iterator<std::_List_val<std::_List_simple_types<std::pair<unsigned short const ,bool> > > > *>, COMDAT
; File C:\Program Files\Microsoft Visual Studio\2022\Community\VC\Tools\MSVC\14.33.31629\include\xutility
; Line 1331
	mov	QWORD PTR [rsp+16], rdx
	mov	QWORD PTR [rsp+8], rcx
; Line 1336
	ret	0
??$_Adl_verify_range@PEAV?$_List_unchecked_iterator@V?$_List_val@U?$_List_simple_types@U?$pair@$$CBG_N@std@@@std@@@std@@@std@@PEAV12@@std@@YAXAEBQEAV?$_List_unchecked_iterator@V?$_List_val@U?$_List_simple_types@U?$pair@$$CBG_N@std@@@std@@@std@@@0@0@Z ENDP ; std::_Adl_verify_range<std::_List_unchecked_iterator<std::_List_val<std::_List_simple_types<std::pair<unsigned short const ,bool> > > > *,std::_List_unchecked_iterator<std::_List_val<std::_List_simple_types<std::pair<unsigned short const ,bool> > > > *>
_TEXT	ENDS
; Function compile flags: /Odtp
;	COMDAT ??$_Voidify_iter@PEAPEAU?$_List_node@U?$pair@$$CBG_N@std@@PEAX@std@@@std@@YAPEAXPEAPEAU?$_List_node@U?$pair@$$CBG_N@std@@PEAX@0@@Z
_TEXT	SEGMENT
_It$ = 8
??$_Voidify_iter@PEAPEAU?$_List_node@U?$pair@$$CBG_N@std@@PEAX@std@@@std@@YAPEAXPEAPEAU?$_List_node@U?$pair@$$CBG_N@std@@PEAX@0@@Z PROC ; std::_Voidify_iter<std::_List_node<std::pair<unsigned short const ,bool>,void *> * *>, COMDAT
; File C:\Program Files\Microsoft Visual Studio\2022\Community\VC\Tools\MSVC\14.33.31629\include\xutility
; Line 212
	mov	QWORD PTR [rsp+8], rcx
; Line 214
	mov	rax, QWORD PTR _It$[rsp]
; Line 218
	ret	0
??$_Voidify_iter@PEAPEAU?$_List_node@U?$pair@$$CBG_N@std@@PEAX@std@@@std@@YAPEAXPEAPEAU?$_List_node@U?$pair@$$CBG_N@std@@PEAX@0@@Z ENDP ; std::_Voidify_iter<std::_List_node<std::pair<unsigned short const ,bool>,void *> * *>
_TEXT	ENDS
; Function compile flags: /Odtp
;	COMDAT ??$construct_at@PEAU?$_List_node@U?$pair@$$CBG_N@std@@PEAX@std@@AEBQEAU12@X@std@@YAPEAPEAU?$_List_node@U?$pair@$$CBG_N@std@@PEAX@0@QEAPEAU10@AEBQEAU10@@Z
_TEXT	SEGMENT
$T1 = 32
_Location$ = 64
<_Args_0>$ = 72
??$construct_at@PEAU?$_List_node@U?$pair@$$CBG_N@std@@PEAX@std@@AEBQEAU12@X@std@@YAPEAPEAU?$_List_node@U?$pair@$$CBG_N@std@@PEAX@0@QEAPEAU10@AEBQEAU10@@Z PROC ; std::construct_at<std::_List_node<std::pair<unsigned short const ,bool>,void *> *,std::_List_node<std::pair<unsigned short const ,bool>,void *> * const &,void>, COMDAT
; File C:\Program Files\Microsoft Visual Studio\2022\Community\VC\Tools\MSVC\14.33.31629\include\xutility
; Line 224
$LN3:
	mov	QWORD PTR [rsp+16], rdx
	mov	QWORD PTR [rsp+8], rcx
	sub	rsp, 56					; 00000038H
; Line 225
	mov	rcx, QWORD PTR _Location$[rsp]
	call	??$_Voidify_iter@PEAPEAU?$_List_node@U?$pair@$$CBG_N@std@@PEAX@std@@@std@@YAPEAXPEAPEAU?$_List_node@U?$pair@$$CBG_N@std@@PEAX@0@@Z ; std::_Voidify_iter<std::_List_node<std::pair<unsigned short const ,bool>,void *> * *>
	mov	rdx, rax
	mov	ecx, 8
	call	??2@YAPEAX_KPEAX@Z			; operator new
	mov	QWORD PTR $T1[rsp], rax
	mov	rcx, QWORD PTR <_Args_0>$[rsp]
	call	??$forward@AEBQEAU?$_List_node@U?$pair@$$CBG_N@std@@PEAX@std@@@std@@YAAEBQEAU?$_List_node@U?$pair@$$CBG_N@std@@PEAX@0@AEBQEAU10@@Z ; std::forward<std::_List_node<std::pair<unsigned short const ,bool>,void *> * const &>
	mov	rcx, QWORD PTR $T1[rsp]
	mov	rax, QWORD PTR [rax]
	mov	QWORD PTR [rcx], rax
	mov	rax, QWORD PTR $T1[rsp]
; Line 226
	add	rsp, 56					; 00000038H
	ret	0
??$construct_at@PEAU?$_List_node@U?$pair@$$CBG_N@std@@PEAX@std@@AEBQEAU12@X@std@@YAPEAPEAU?$_List_node@U?$pair@$$CBG_N@std@@PEAX@0@QEAPEAU10@AEBQEAU10@@Z ENDP ; std::construct_at<std::_List_node<std::pair<unsigned short const ,bool>,void *> *,std::_List_node<std::pair<unsigned short const ,bool>,void *> * const &,void>
_TEXT	ENDS
; Function compile flags: /Odtp
;	COMDAT ??$forward@AEBQEAU?$_List_node@U?$pair@$$CBG_N@std@@PEAX@std@@@std@@YAAEBQEAU?$_List_node@U?$pair@$$CBG_N@std@@PEAX@0@AEBQEAU10@@Z
_TEXT	SEGMENT
_Arg$ = 8
??$forward@AEBQEAU?$_List_node@U?$pair@$$CBG_N@std@@PEAX@std@@@std@@YAAEBQEAU?$_List_node@U?$pair@$$CBG_N@std@@PEAX@0@AEBQEAU10@@Z PROC ; std::forward<std::_List_node<std::pair<unsigned short const ,bool>,void *> * const &>, COMDAT
; File C:\Program Files\Microsoft Visual Studio\2022\Community\VC\Tools\MSVC\14.33.31629\include\type_traits
; Line 1411
	mov	QWORD PTR [rsp+8], rcx
; Line 1412
	mov	rax, QWORD PTR _Arg$[rsp]
; Line 1413
	ret	0
??$forward@AEBQEAU?$_List_node@U?$pair@$$CBG_N@std@@PEAX@std@@@std@@YAAEBQEAU?$_List_node@U?$pair@$$CBG_N@std@@PEAX@0@AEBQEAU10@@Z ENDP ; std::forward<std::_List_node<std::pair<unsigned short const ,bool>,void *> * const &>
_TEXT	ENDS
; Function compile flags: /Odtp
;	COMDAT ??$addressof@PEAU?$_List_node@U?$pair@$$CBG_N@std@@PEAX@std@@@std@@YAPEAPEAU?$_List_node@U?$pair@$$CBG_N@std@@PEAX@0@AEAPEAU10@@Z
_TEXT	SEGMENT
_Val$ = 8
??$addressof@PEAU?$_List_node@U?$pair@$$CBG_N@std@@PEAX@std@@@std@@YAPEAPEAU?$_List_node@U?$pair@$$CBG_N@std@@PEAX@0@AEAPEAU10@@Z PROC ; std::addressof<std::_List_node<std::pair<unsigned short const ,bool>,void *> *>, COMDAT
; File C:\Program Files\Microsoft Visual Studio\2022\Community\VC\Tools\MSVC\14.33.31629\include\xstddef
; Line 252
	mov	QWORD PTR [rsp+8], rcx
; Line 253
	mov	rax, QWORD PTR _Val$[rsp]
; Line 254
	ret	0
??$addressof@PEAU?$_List_node@U?$pair@$$CBG_N@std@@PEAX@std@@@std@@YAPEAPEAU?$_List_node@U?$pair@$$CBG_N@std@@PEAX@0@AEAPEAU10@@Z ENDP ; std::addressof<std::_List_node<std::pair<unsigned short const ,bool>,void *> *>
_TEXT	ENDS
; Function compile flags: /Odtp
;	COMDAT ??$destroy_at@U?$pair@$$CBG_N@std@@@std@@YAXQEAU?$pair@$$CBG_N@0@@Z
_TEXT	SEGMENT
_Location$ = 8
??$destroy_at@U?$pair@$$CBG_N@std@@@std@@YAXQEAU?$pair@$$CBG_N@0@@Z PROC ; std::destroy_at<std::pair<unsigned short const ,bool> >, COMDAT
; File C:\Program Files\Microsoft Visual Studio\2022\Community\VC\Tools\MSVC\14.33.31629\include\xmemory
; Line 306
	mov	QWORD PTR [rsp+8], rcx
; Line 315
	ret	0
??$destroy_at@U?$pair@$$CBG_N@std@@@std@@YAXQEAU?$pair@$$CBG_N@0@@Z ENDP ; std::destroy_at<std::pair<unsigned short const ,bool> >
_TEXT	ENDS
; Function compile flags: /Odtp
;	COMDAT ??$construct@U?$pair@$$CBG_N@std@@AEBUpiecewise_construct_t@2@V?$tuple@$$QEAG@2@V?$tuple@$$V@2@@?$_Default_allocator_traits@V?$allocator@U?$_List_node@U?$pair@$$CBG_N@std@@PEAX@std@@@std@@@std@@SAXAEAV?$allocator@U?$_List_node@U?$pair@$$CBG_N@std@@PEAX@std@@@1@QEAU?$pair@$$CBG_N@1@AEBUpiecewise_construct_t@1@$$QEAV?$tuple@$$QEAG@1@$$QEAV?$tuple@$$V@1@@Z
_TEXT	SEGMENT
$T1 = 32
$T2 = 33
$T3 = 34
$T4 = 35
tv83 = 40
tv81 = 48
tv79 = 56
$T5 = 64
$T6 = 72
tv149 = 80
tv146 = 88
$T7 = 96
$T8 = 104
__formal$ = 128
_Ptr$ = 136
<_Args_0>$ = 144
<_Args_1>$ = 152
<_Args_2>$ = 160
??$construct@U?$pair@$$CBG_N@std@@AEBUpiecewise_construct_t@2@V?$tuple@$$QEAG@2@V?$tuple@$$V@2@@?$_Default_allocator_traits@V?$allocator@U?$_List_node@U?$pair@$$CBG_N@std@@PEAX@std@@@std@@@std@@SAXAEAV?$allocator@U?$_List_node@U?$pair@$$CBG_N@std@@PEAX@std@@@1@QEAU?$pair@$$CBG_N@1@AEBUpiecewise_construct_t@1@$$QEAV?$tuple@$$QEAG@1@$$QEAV?$tuple@$$V@1@@Z PROC ; std::_Default_allocator_traits<std::allocator<std::_List_node<std::pair<unsigned short const ,bool>,void *> > >::construct<std::pair<unsigned short const ,bool>,std::piecewise_construct_t const &,std::tuple<unsigned short &&>,std::tuple<> >, COMDAT
; File C:\Program Files\Microsoft Visual Studio\2022\Community\VC\Tools\MSVC\14.33.31629\include\xmemory
; Line 675
$LN5:
	mov	QWORD PTR [rsp+32], r9
	mov	QWORD PTR [rsp+24], r8
	mov	QWORD PTR [rsp+16], rdx
	mov	QWORD PTR [rsp+8], rcx
	sub	rsp, 120				; 00000078H
; Line 677
	call	?is_constant_evaluated@std@@YA_NXZ	; std::is_constant_evaluated
	movzx	eax, al
	test	eax, eax
	je	SHORT $LN2@construct
; Line 678
	mov	rcx, QWORD PTR <_Args_2>$[rsp]
	call	??$forward@V?$tuple@$$V@std@@@std@@YA$$QEAV?$tuple@$$V@0@AEAV10@@Z ; std::forward<std::tuple<> >
	mov	QWORD PTR tv83[rsp], rax
	mov	rcx, QWORD PTR <_Args_1>$[rsp]
	call	??$forward@V?$tuple@$$QEAG@std@@@std@@YA$$QEAV?$tuple@$$QEAG@0@AEAV10@@Z ; std::forward<std::tuple<unsigned short &&> >
	mov	QWORD PTR tv81[rsp], rax
	mov	rcx, QWORD PTR <_Args_0>$[rsp]
	call	??$forward@AEBUpiecewise_construct_t@std@@@std@@YAAEBUpiecewise_construct_t@0@AEBU10@@Z ; std::forward<std::piecewise_construct_t const &>
	mov	QWORD PTR tv79[rsp], rax
	mov	r9, QWORD PTR tv83[rsp]
	mov	r8, QWORD PTR tv81[rsp]
	mov	rdx, QWORD PTR tv79[rsp]
	mov	rcx, QWORD PTR _Ptr$[rsp]
	call	??$construct_at@U?$pair@$$CBG_N@std@@AEBUpiecewise_construct_t@2@V?$tuple@$$QEAG@2@V?$tuple@$$V@2@X@std@@YAPEAU?$pair@$$CBG_N@0@QEAU10@AEBUpiecewise_construct_t@0@$$QEAV?$tuple@$$QEAG@0@$$QEAV?$tuple@$$V@0@@Z ; std::construct_at<std::pair<unsigned short const ,bool>,std::piecewise_construct_t const &,std::tuple<unsigned short &&>,std::tuple<>,void>
; Line 679
	jmp	$LN3@construct
$LN2@construct:
; Line 682
	mov	rcx, QWORD PTR _Ptr$[rsp]
	call	??$_Voidify_iter@PEAU?$pair@$$CBG_N@std@@@std@@YAPEAXPEAU?$pair@$$CBG_N@0@@Z ; std::_Voidify_iter<std::pair<unsigned short const ,bool> *>
	mov	rdx, rax
	mov	ecx, 4
	call	??2@YAPEAX_KPEAX@Z			; operator new
	mov	QWORD PTR $T7[rsp], rax
	lea	rax, QWORD PTR $T4[rsp]
	mov	QWORD PTR $T5[rsp], rax
	mov	rcx, QWORD PTR <_Args_2>$[rsp]
	call	??$forward@V?$tuple@$$V@std@@@std@@YA$$QEAV?$tuple@$$V@0@AEAV10@@Z ; std::forward<std::tuple<> >
	mov	rdx, rax
	mov	rcx, QWORD PTR $T5[rsp]
	call	??0?$tuple@$$V@std@@QEAA@AEBV01@@Z	; std::tuple<>::tuple<>
	mov	QWORD PTR tv149[rsp], rax
	lea	rax, QWORD PTR $T8[rsp]
	mov	QWORD PTR $T6[rsp], rax
	mov	rcx, QWORD PTR <_Args_1>$[rsp]
	call	??$forward@V?$tuple@$$QEAG@std@@@std@@YA$$QEAV?$tuple@$$QEAG@0@AEAV10@@Z ; std::forward<std::tuple<unsigned short &&> >
	mov	rdx, rax
	mov	rcx, QWORD PTR $T6[rsp]
	call	??0?$tuple@$$QEAG@std@@QEAA@$$QEAV01@@Z	; std::tuple<unsigned short &&>::tuple<unsigned short &&>
	mov	QWORD PTR tv146[rsp], rax
	mov	rcx, QWORD PTR <_Args_0>$[rsp]
	call	??$forward@AEBUpiecewise_construct_t@std@@@std@@YAAEBUpiecewise_construct_t@0@AEBU10@@Z ; std::forward<std::piecewise_construct_t const &>
	movzx	eax, BYTE PTR [rax]
	mov	BYTE PTR $T1[rsp], al
	movzx	eax, BYTE PTR $T1[rsp]
	mov	BYTE PTR $T2[rsp], al
	movzx	eax, BYTE PTR $T2[rsp]
	mov	BYTE PTR $T3[rsp], al
	mov	r9, QWORD PTR tv149[rsp]
	mov	r8, QWORD PTR tv146[rsp]
	movzx	edx, BYTE PTR $T3[rsp]
	mov	rcx, QWORD PTR $T7[rsp]
	call	??$?0$$QEAG$$Z$$V@?$pair@$$CBG_N@std@@QEAA@Upiecewise_construct_t@1@V?$tuple@$$QEAG@1@V?$tuple@$$V@1@@Z ; std::pair<unsigned short const ,bool>::pair<unsigned short const ,bool><unsigned short &&>
$LN3@construct:
; Line 684
	add	rsp, 120				; 00000078H
	ret	0
??$construct@U?$pair@$$CBG_N@std@@AEBUpiecewise_construct_t@2@V?$tuple@$$QEAG@2@V?$tuple@$$V@2@@?$_Default_allocator_traits@V?$allocator@U?$_List_node@U?$pair@$$CBG_N@std@@PEAX@std@@@std@@@std@@SAXAEAV?$allocator@U?$_List_node@U?$pair@$$CBG_N@std@@PEAX@std@@@1@QEAU?$pair@$$CBG_N@1@AEBUpiecewise_construct_t@1@$$QEAV?$tuple@$$QEAG@1@$$QEAV?$tuple@$$V@1@@Z ENDP ; std::_Default_allocator_traits<std::allocator<std::_List_node<std::pair<unsigned short const ,bool>,void *> > >::construct<std::pair<unsigned short const ,bool>,std::piecewise_construct_t const &,std::tuple<unsigned short &&>,std::tuple<> >
_TEXT	ENDS
; Function compile flags: /Odtp
;	COMDAT ??$forward@V?$tuple@$$QEAG@std@@@std@@YA$$QEAV?$tuple@$$QEAG@0@AEAV10@@Z
_TEXT	SEGMENT
_Arg$ = 8
??$forward@V?$tuple@$$QEAG@std@@@std@@YA$$QEAV?$tuple@$$QEAG@0@AEAV10@@Z PROC ; std::forward<std::tuple<unsigned short &&> >, COMDAT
; File C:\Program Files\Microsoft Visual Studio\2022\Community\VC\Tools\MSVC\14.33.31629\include\type_traits
; Line 1411
	mov	QWORD PTR [rsp+8], rcx
; Line 1412
	mov	rax, QWORD PTR _Arg$[rsp]
; Line 1413
	ret	0
??$forward@V?$tuple@$$QEAG@std@@@std@@YA$$QEAV?$tuple@$$QEAG@0@AEAV10@@Z ENDP ; std::forward<std::tuple<unsigned short &&> >
_TEXT	ENDS
; Function compile flags: /Odtp
;	COMDAT ??$?0G$$V$0A@@?$tuple@$$QEAG@std@@QEAA@$$QEAG@Z
_TEXT	SEGMENT
$T1 = 32
$T2 = 33
tv72 = 40
this$ = 64
_This_arg$ = 72
??$?0G$$V$0A@@?$tuple@$$QEAG@std@@QEAA@$$QEAG@Z PROC	; std::tuple<unsigned short &&>::tuple<unsigned short &&><unsigned short,0>, COMDAT
; File C:\Program Files\Microsoft Visual Studio\2022\Community\VC\Tools\MSVC\14.33.31629\include\tuple
; Line 347
$LN3:
	mov	QWORD PTR [rsp+16], rdx
	mov	QWORD PTR [rsp+8], rcx
	sub	rsp, 56					; 00000038H
	mov	rcx, QWORD PTR _This_arg$[rsp]
	call	??$forward@G@std@@YA$$QEAGAEAG@Z	; std::forward<unsigned short>
	mov	QWORD PTR tv72[rsp], rax
	movzx	eax, BYTE PTR $T2[rsp]
	mov	BYTE PTR $T1[rsp], al
	mov	r8, QWORD PTR tv72[rsp]
	movzx	edx, BYTE PTR $T1[rsp]
	mov	rcx, QWORD PTR this$[rsp]
	call	??$?0U_Exact_args_t@std@@G$$V$0A@@?$tuple@$$QEAG@std@@QEAA@U_Exact_args_t@1@$$QEAG@Z ; std::tuple<unsigned short &&>::tuple<unsigned short &&><std::_Exact_args_t,unsigned short,0>
	mov	rax, QWORD PTR this$[rsp]
	add	rsp, 56					; 00000038H
	ret	0
??$?0G$$V$0A@@?$tuple@$$QEAG@std@@QEAA@$$QEAG@Z ENDP	; std::tuple<unsigned short &&>::tuple<unsigned short &&><unsigned short,0>
_TEXT	ENDS
; Function compile flags: /Odtp
;	COMDAT ??$forward@PEAU?$_List_node@U?$pair@$$CBG_N@std@@PEAX@std@@@std@@YA$$QEAPEAU?$_List_node@U?$pair@$$CBG_N@std@@PEAX@0@AEAPEAU10@@Z
_TEXT	SEGMENT
_Arg$ = 8
??$forward@PEAU?$_List_node@U?$pair@$$CBG_N@std@@PEAX@std@@@std@@YA$$QEAPEAU?$_List_node@U?$pair@$$CBG_N@std@@PEAX@0@AEAPEAU10@@Z PROC ; std::forward<std::_List_node<std::pair<unsigned short const ,bool>,void *> *>, COMDAT
; File C:\Program Files\Microsoft Visual Studio\2022\Community\VC\Tools\MSVC\14.33.31629\include\type_traits
; Line 1411
	mov	QWORD PTR [rsp+8], rcx
; Line 1412
	mov	rax, QWORD PTR _Arg$[rsp]
; Line 1413
	ret	0
??$forward@PEAU?$_List_node@U?$pair@$$CBG_N@std@@PEAX@std@@@std@@YA$$QEAPEAU?$_List_node@U?$pair@$$CBG_N@std@@PEAX@0@AEAPEAU10@@Z ENDP ; std::forward<std::_List_node<std::pair<unsigned short const ,bool>,void *> *>
_TEXT	ENDS
; Function compile flags: /Odtp
;	COMDAT ??$forward@_N@std@@YA$$QEA_NAEA_N@Z
_TEXT	SEGMENT
_Arg$ = 8
??$forward@_N@std@@YA$$QEA_NAEA_N@Z PROC		; std::forward<bool>, COMDAT
; File C:\Program Files\Microsoft Visual Studio\2022\Community\VC\Tools\MSVC\14.33.31629\include\type_traits
; Line 1411
	mov	QWORD PTR [rsp+8], rcx
; Line 1412
	mov	rax, QWORD PTR _Arg$[rsp]
; Line 1413
	ret	0
??$forward@_N@std@@YA$$QEA_NAEA_N@Z ENDP		; std::forward<bool>
_TEXT	ENDS
; Function compile flags: /Odtp
;	COMDAT ??$forward@AEAPEAU?$_List_node@U?$pair@$$CBG_N@std@@PEAX@std@@@std@@YAAEAPEAU?$_List_node@U?$pair@$$CBG_N@std@@PEAX@0@AEAPEAU10@@Z
_TEXT	SEGMENT
_Arg$ = 8
??$forward@AEAPEAU?$_List_node@U?$pair@$$CBG_N@std@@PEAX@std@@@std@@YAAEAPEAU?$_List_node@U?$pair@$$CBG_N@std@@PEAX@0@AEAPEAU10@@Z PROC ; std::forward<std::_List_node<std::pair<unsigned short const ,bool>,void *> * &>, COMDAT
; File C:\Program Files\Microsoft Visual Studio\2022\Community\VC\Tools\MSVC\14.33.31629\include\type_traits
; Line 1411
	mov	QWORD PTR [rsp+8], rcx
; Line 1412
	mov	rax, QWORD PTR _Arg$[rsp]
; Line 1413
	ret	0
??$forward@AEAPEAU?$_List_node@U?$pair@$$CBG_N@std@@PEAX@std@@@std@@YAAEAPEAU?$_List_node@U?$pair@$$CBG_N@std@@PEAX@0@AEAPEAU10@@Z ENDP ; std::forward<std::_List_node<std::pair<unsigned short const ,bool>,void *> * &>
_TEXT	ENDS
; Function compile flags: /Odtp
;	COMDAT ??$construct@U?$pair@$$CBG_N@std@@AEBUpiecewise_construct_t@2@V?$tuple@AEBG@2@V?$tuple@$$V@2@@?$_Default_allocator_traits@V?$allocator@U?$_List_node@U?$pair@$$CBG_N@std@@PEAX@std@@@std@@@std@@SAXAEAV?$allocator@U?$_List_node@U?$pair@$$CBG_N@std@@PEAX@std@@@1@QEAU?$pair@$$CBG_N@1@AEBUpiecewise_construct_t@1@$$QEAV?$tuple@AEBG@1@$$QEAV?$tuple@$$V@1@@Z
_TEXT	SEGMENT
$T1 = 32
$T2 = 33
$T3 = 34
$T4 = 35
tv83 = 40
tv81 = 48
tv79 = 56
$T5 = 64
$T6 = 72
tv149 = 80
tv146 = 88
$T7 = 96
$T8 = 104
__formal$ = 128
_Ptr$ = 136
<_Args_0>$ = 144
<_Args_1>$ = 152
<_Args_2>$ = 160
??$construct@U?$pair@$$CBG_N@std@@AEBUpiecewise_construct_t@2@V?$tuple@AEBG@2@V?$tuple@$$V@2@@?$_Default_allocator_traits@V?$allocator@U?$_List_node@U?$pair@$$CBG_N@std@@PEAX@std@@@std@@@std@@SAXAEAV?$allocator@U?$_List_node@U?$pair@$$CBG_N@std@@PEAX@std@@@1@QEAU?$pair@$$CBG_N@1@AEBUpiecewise_construct_t@1@$$QEAV?$tuple@AEBG@1@$$QEAV?$tuple@$$V@1@@Z PROC ; std::_Default_allocator_traits<std::allocator<std::_List_node<std::pair<unsigned short const ,bool>,void *> > >::construct<std::pair<unsigned short const ,bool>,std::piecewise_construct_t const &,std::tuple<unsigned short const &>,std::tuple<> >, COMDAT
; File C:\Program Files\Microsoft Visual Studio\2022\Community\VC\Tools\MSVC\14.33.31629\include\xmemory
; Line 675
$LN5:
	mov	QWORD PTR [rsp+32], r9
	mov	QWORD PTR [rsp+24], r8
	mov	QWORD PTR [rsp+16], rdx
	mov	QWORD PTR [rsp+8], rcx
	sub	rsp, 120				; 00000078H
; Line 677
	call	?is_constant_evaluated@std@@YA_NXZ	; std::is_constant_evaluated
	movzx	eax, al
	test	eax, eax
	je	SHORT $LN2@construct
; Line 678
	mov	rcx, QWORD PTR <_Args_2>$[rsp]
	call	??$forward@V?$tuple@$$V@std@@@std@@YA$$QEAV?$tuple@$$V@0@AEAV10@@Z ; std::forward<std::tuple<> >
	mov	QWORD PTR tv83[rsp], rax
	mov	rcx, QWORD PTR <_Args_1>$[rsp]
	call	??$forward@V?$tuple@AEBG@std@@@std@@YA$$QEAV?$tuple@AEBG@0@AEAV10@@Z ; std::forward<std::tuple<unsigned short const &> >
	mov	QWORD PTR tv81[rsp], rax
	mov	rcx, QWORD PTR <_Args_0>$[rsp]
	call	??$forward@AEBUpiecewise_construct_t@std@@@std@@YAAEBUpiecewise_construct_t@0@AEBU10@@Z ; std::forward<std::piecewise_construct_t const &>
	mov	QWORD PTR tv79[rsp], rax
	mov	r9, QWORD PTR tv83[rsp]
	mov	r8, QWORD PTR tv81[rsp]
	mov	rdx, QWORD PTR tv79[rsp]
	mov	rcx, QWORD PTR _Ptr$[rsp]
	call	??$construct_at@U?$pair@$$CBG_N@std@@AEBUpiecewise_construct_t@2@V?$tuple@AEBG@2@V?$tuple@$$V@2@X@std@@YAPEAU?$pair@$$CBG_N@0@QEAU10@AEBUpiecewise_construct_t@0@$$QEAV?$tuple@AEBG@0@$$QEAV?$tuple@$$V@0@@Z ; std::construct_at<std::pair<unsigned short const ,bool>,std::piecewise_construct_t const &,std::tuple<unsigned short const &>,std::tuple<>,void>
; Line 679
	jmp	$LN3@construct
$LN2@construct:
; Line 682
	mov	rcx, QWORD PTR _Ptr$[rsp]
	call	??$_Voidify_iter@PEAU?$pair@$$CBG_N@std@@@std@@YAPEAXPEAU?$pair@$$CBG_N@0@@Z ; std::_Voidify_iter<std::pair<unsigned short const ,bool> *>
	mov	rdx, rax
	mov	ecx, 4
	call	??2@YAPEAX_KPEAX@Z			; operator new
	mov	QWORD PTR $T7[rsp], rax
	lea	rax, QWORD PTR $T4[rsp]
	mov	QWORD PTR $T5[rsp], rax
	mov	rcx, QWORD PTR <_Args_2>$[rsp]
	call	??$forward@V?$tuple@$$V@std@@@std@@YA$$QEAV?$tuple@$$V@0@AEAV10@@Z ; std::forward<std::tuple<> >
	mov	rdx, rax
	mov	rcx, QWORD PTR $T5[rsp]
	call	??0?$tuple@$$V@std@@QEAA@AEBV01@@Z	; std::tuple<>::tuple<>
	mov	QWORD PTR tv149[rsp], rax
	lea	rax, QWORD PTR $T8[rsp]
	mov	QWORD PTR $T6[rsp], rax
	mov	rcx, QWORD PTR <_Args_1>$[rsp]
	call	??$forward@V?$tuple@AEBG@std@@@std@@YA$$QEAV?$tuple@AEBG@0@AEAV10@@Z ; std::forward<std::tuple<unsigned short const &> >
	mov	rdx, rax
	mov	rcx, QWORD PTR $T6[rsp]
	call	??0?$tuple@AEBG@std@@QEAA@$$QEAV01@@Z	; std::tuple<unsigned short const &>::tuple<unsigned short const &>
	mov	QWORD PTR tv146[rsp], rax
	mov	rcx, QWORD PTR <_Args_0>$[rsp]
	call	??$forward@AEBUpiecewise_construct_t@std@@@std@@YAAEBUpiecewise_construct_t@0@AEBU10@@Z ; std::forward<std::piecewise_construct_t const &>
	movzx	eax, BYTE PTR [rax]
	mov	BYTE PTR $T1[rsp], al
	movzx	eax, BYTE PTR $T1[rsp]
	mov	BYTE PTR $T2[rsp], al
	movzx	eax, BYTE PTR $T2[rsp]
	mov	BYTE PTR $T3[rsp], al
	mov	r9, QWORD PTR tv149[rsp]
	mov	r8, QWORD PTR tv146[rsp]
	movzx	edx, BYTE PTR $T3[rsp]
	mov	rcx, QWORD PTR $T7[rsp]
	call	??$?0AEBG$$Z$$V@?$pair@$$CBG_N@std@@QEAA@Upiecewise_construct_t@1@V?$tuple@AEBG@1@V?$tuple@$$V@1@@Z ; std::pair<unsigned short const ,bool>::pair<unsigned short const ,bool><unsigned short const &>
$LN3@construct:
; Line 684
	add	rsp, 120				; 00000078H
	ret	0
??$construct@U?$pair@$$CBG_N@std@@AEBUpiecewise_construct_t@2@V?$tuple@AEBG@2@V?$tuple@$$V@2@@?$_Default_allocator_traits@V?$allocator@U?$_List_node@U?$pair@$$CBG_N@std@@PEAX@std@@@std@@@std@@SAXAEAV?$allocator@U?$_List_node@U?$pair@$$CBG_N@std@@PEAX@std@@@1@QEAU?$pair@$$CBG_N@1@AEBUpiecewise_construct_t@1@$$QEAV?$tuple@AEBG@1@$$QEAV?$tuple@$$V@1@@Z ENDP ; std::_Default_allocator_traits<std::allocator<std::_List_node<std::pair<unsigned short const ,bool>,void *> > >::construct<std::pair<unsigned short const ,bool>,std::piecewise_construct_t const &,std::tuple<unsigned short const &>,std::tuple<> >
_TEXT	ENDS
; Function compile flags: /Odtp
;	COMDAT ??$forward@V?$tuple@$$V@std@@@std@@YA$$QEAV?$tuple@$$V@0@AEAV10@@Z
_TEXT	SEGMENT
_Arg$ = 8
??$forward@V?$tuple@$$V@std@@@std@@YA$$QEAV?$tuple@$$V@0@AEAV10@@Z PROC ; std::forward<std::tuple<> >, COMDAT
; File C:\Program Files\Microsoft Visual Studio\2022\Community\VC\Tools\MSVC\14.33.31629\include\type_traits
; Line 1411
	mov	QWORD PTR [rsp+8], rcx
; Line 1412
	mov	rax, QWORD PTR _Arg$[rsp]
; Line 1413
	ret	0
??$forward@V?$tuple@$$V@std@@@std@@YA$$QEAV?$tuple@$$V@0@AEAV10@@Z ENDP ; std::forward<std::tuple<> >
_TEXT	ENDS
; Function compile flags: /Odtp
;	COMDAT ??$forward@V?$tuple@AEBG@std@@@std@@YA$$QEAV?$tuple@AEBG@0@AEAV10@@Z
_TEXT	SEGMENT
_Arg$ = 8
??$forward@V?$tuple@AEBG@std@@@std@@YA$$QEAV?$tuple@AEBG@0@AEAV10@@Z PROC ; std::forward<std::tuple<unsigned short const &> >, COMDAT
; File C:\Program Files\Microsoft Visual Studio\2022\Community\VC\Tools\MSVC\14.33.31629\include\type_traits
; Line 1411
	mov	QWORD PTR [rsp+8], rcx
; Line 1412
	mov	rax, QWORD PTR _Arg$[rsp]
; Line 1413
	ret	0
??$forward@V?$tuple@AEBG@std@@@std@@YA$$QEAV?$tuple@AEBG@0@AEAV10@@Z ENDP ; std::forward<std::tuple<unsigned short const &> >
_TEXT	ENDS
; Function compile flags: /Odtp
;	COMDAT ??$forward@AEBUpiecewise_construct_t@std@@@std@@YAAEBUpiecewise_construct_t@0@AEBU10@@Z
_TEXT	SEGMENT
_Arg$ = 8
??$forward@AEBUpiecewise_construct_t@std@@@std@@YAAEBUpiecewise_construct_t@0@AEBU10@@Z PROC ; std::forward<std::piecewise_construct_t const &>, COMDAT
; File C:\Program Files\Microsoft Visual Studio\2022\Community\VC\Tools\MSVC\14.33.31629\include\type_traits
; Line 1411
	mov	QWORD PTR [rsp+8], rcx
; Line 1412
	mov	rax, QWORD PTR _Arg$[rsp]
; Line 1413
	ret	0
??$forward@AEBUpiecewise_construct_t@std@@@std@@YAAEBUpiecewise_construct_t@0@AEBU10@@Z ENDP ; std::forward<std::piecewise_construct_t const &>
_TEXT	ENDS
; Function compile flags: /Odtp
;	COMDAT ??$?0AEBG$0A@@?$tuple@AEBG@std@@QEAA@AEBG@Z
_TEXT	SEGMENT
$T1 = 32
this$ = 64
_This_arg$ = 72
??$?0AEBG$0A@@?$tuple@AEBG@std@@QEAA@AEBG@Z PROC	; std::tuple<unsigned short const &>::tuple<unsigned short const &><unsigned short const &,0>, COMDAT
; File C:\Program Files\Microsoft Visual Studio\2022\Community\VC\Tools\MSVC\14.33.31629\include\tuple
; Line 323
$LN3:
	mov	QWORD PTR [rsp+16], rdx
	mov	QWORD PTR [rsp+8], rcx
	sub	rsp, 56					; 00000038H
	mov	r8, QWORD PTR _This_arg$[rsp]
	movzx	edx, BYTE PTR $T1[rsp]
	mov	rcx, QWORD PTR this$[rsp]
	call	??$?0U_Exact_args_t@std@@AEBG$$V$0A@@?$tuple@AEBG@std@@QEAA@U_Exact_args_t@1@AEBG@Z ; std::tuple<unsigned short const &>::tuple<unsigned short const &><std::_Exact_args_t,unsigned short const &,0>
	mov	rax, QWORD PTR this$[rsp]
	add	rsp, 56					; 00000038H
	ret	0
??$?0AEBG$0A@@?$tuple@AEBG@std@@QEAA@AEBG@Z ENDP	; std::tuple<unsigned short const &>::tuple<unsigned short const &><unsigned short const &,0>
_TEXT	ENDS
; Function compile flags: /Odtp
;	COMDAT ??$_Freenode@V?$allocator@U?$_List_node@U?$pair@$$CBG_N@std@@PEAX@std@@@std@@@?$_List_node@U?$pair@$$CBG_N@std@@PEAX@std@@SAXAEAV?$allocator@U?$_List_node@U?$pair@$$CBG_N@std@@PEAX@std@@@1@PEAU01@@Z
_TEXT	SEGMENT
_Al$ = 48
_Ptr$ = 56
??$_Freenode@V?$allocator@U?$_List_node@U?$pair@$$CBG_N@std@@PEAX@std@@@std@@@?$_List_node@U?$pair@$$CBG_N@std@@PEAX@std@@SAXAEAV?$allocator@U?$_List_node@U?$pair@$$CBG_N@std@@PEAX@std@@@1@PEAU01@@Z PROC ; std::_List_node<std::pair<unsigned short const ,bool>,void *>::_Freenode<std::allocator<std::_List_node<std::pair<unsigned short const ,bool>,void *> > >, COMDAT
; File C:\Program Files\Microsoft Visual Studio\2022\Community\VC\Tools\MSVC\14.33.31629\include\list
; Line 315
$LN3:
	mov	QWORD PTR [rsp+16], rdx
	mov	QWORD PTR [rsp+8], rcx
	sub	rsp, 40					; 00000028H
; Line 316
	mov	rax, QWORD PTR _Ptr$[rsp]
	add	rax, 16
	mov	rcx, rax
	call	??$addressof@U?$pair@$$CBG_N@std@@@std@@YAPEAU?$pair@$$CBG_N@0@AEAU10@@Z ; std::addressof<std::pair<unsigned short const ,bool> >
	mov	rdx, rax
	mov	rcx, QWORD PTR _Al$[rsp]
	call	??$destroy@U?$pair@$$CBG_N@std@@@?$_Default_allocator_traits@V?$allocator@U?$_List_node@U?$pair@$$CBG_N@std@@PEAX@std@@@std@@@std@@SAXAEAV?$allocator@U?$_List_node@U?$pair@$$CBG_N@std@@PEAX@std@@@1@QEAU?$pair@$$CBG_N@1@@Z ; std::_Default_allocator_traits<std::allocator<std::_List_node<std::pair<unsigned short const ,bool>,void *> > >::destroy<std::pair<unsigned short const ,bool> >
; Line 317
	mov	rdx, QWORD PTR _Ptr$[rsp]
	mov	rcx, QWORD PTR _Al$[rsp]
	call	??$_Freenode0@V?$allocator@U?$_List_node@U?$pair@$$CBG_N@std@@PEAX@std@@@std@@@?$_List_node@U?$pair@$$CBG_N@std@@PEAX@std@@SAXAEAV?$allocator@U?$_List_node@U?$pair@$$CBG_N@std@@PEAX@std@@@1@PEAU01@@Z ; std::_List_node<std::pair<unsigned short const ,bool>,void *>::_Freenode0<std::allocator<std::_List_node<std::pair<unsigned short const ,bool>,void *> > >
	npad	1
; Line 318
	add	rsp, 40					; 00000028H
	ret	0
??$_Freenode@V?$allocator@U?$_List_node@U?$pair@$$CBG_N@std@@PEAX@std@@@std@@@?$_List_node@U?$pair@$$CBG_N@std@@PEAX@std@@SAXAEAV?$allocator@U?$_List_node@U?$pair@$$CBG_N@std@@PEAX@std@@@1@PEAU01@@Z ENDP ; std::_List_node<std::pair<unsigned short const ,bool>,void *>::_Freenode<std::allocator<std::_List_node<std::pair<unsigned short const ,bool>,void *> > >
_TEXT	ENDS
; Function compile flags: /Odtp
;	COMDAT ??$_Free_non_head@V?$allocator@U?$_List_node@U?$pair@$$CBG_N@std@@PEAX@std@@@std@@@?$_List_node@U?$pair@$$CBG_N@std@@PEAX@std@@SAXAEAV?$allocator@U?$_List_node@U?$pair@$$CBG_N@std@@PEAX@std@@@1@PEAU01@@Z
_TEXT	SEGMENT
_Pnode$ = 32
_Pnext$1 = 40
_Al$ = 64
_Head$ = 72
??$_Free_non_head@V?$allocator@U?$_List_node@U?$pair@$$CBG_N@std@@PEAX@std@@@std@@@?$_List_node@U?$pair@$$CBG_N@std@@PEAX@std@@SAXAEAV?$allocator@U?$_List_node@U?$pair@$$CBG_N@std@@PEAX@std@@@1@PEAU01@@Z PROC ; std::_List_node<std::pair<unsigned short const ,bool>,void *>::_Free_non_head<std::allocator<std::_List_node<std::pair<unsigned short const ,bool>,void *> > >, COMDAT
; File C:\Program Files\Microsoft Visual Studio\2022\Community\VC\Tools\MSVC\14.33.31629\include\list
; Line 322
$LN6:
	mov	QWORD PTR [rsp+16], rdx
	mov	QWORD PTR [rsp+8], rcx
	sub	rsp, 56					; 00000038H
; Line 323
	mov	rax, QWORD PTR _Head$[rsp]
	mov	rax, QWORD PTR [rax+8]
	mov	QWORD PTR [rax], 0
; Line 325
	mov	rax, QWORD PTR _Head$[rsp]
	mov	rax, QWORD PTR [rax]
	mov	QWORD PTR _Pnode$[rsp], rax
; Line 326
	jmp	SHORT $LN4@Free_non_h
$LN2@Free_non_h:
	mov	rax, QWORD PTR _Pnext$1[rsp]
	mov	QWORD PTR _Pnode$[rsp], rax
$LN4@Free_non_h:
	cmp	QWORD PTR _Pnode$[rsp], 0
	je	SHORT $LN3@Free_non_h
; Line 327
	mov	rax, QWORD PTR _Pnode$[rsp]
	mov	rax, QWORD PTR [rax]
	mov	QWORD PTR _Pnext$1[rsp], rax
; Line 328
	mov	rdx, QWORD PTR _Pnode$[rsp]
	mov	rcx, QWORD PTR _Al$[rsp]
	call	??$_Freenode@V?$allocator@U?$_List_node@U?$pair@$$CBG_N@std@@PEAX@std@@@std@@@?$_List_node@U?$pair@$$CBG_N@std@@PEAX@std@@SAXAEAV?$allocator@U?$_List_node@U?$pair@$$CBG_N@std@@PEAX@std@@@1@PEAU01@@Z ; std::_List_node<std::pair<unsigned short const ,bool>,void *>::_Freenode<std::allocator<std::_List_node<std::pair<unsigned short const ,bool>,void *> > >
; Line 329
	jmp	SHORT $LN2@Free_non_h
$LN3@Free_non_h:
; Line 330
	add	rsp, 56					; 00000038H
	ret	0
??$_Free_non_head@V?$allocator@U?$_List_node@U?$pair@$$CBG_N@std@@PEAX@std@@@std@@@?$_List_node@U?$pair@$$CBG_N@std@@PEAX@std@@SAXAEAV?$allocator@U?$_List_node@U?$pair@$$CBG_N@std@@PEAX@std@@@1@PEAU01@@Z ENDP ; std::_List_node<std::pair<unsigned short const ,bool>,void *>::_Free_non_head<std::allocator<std::_List_node<std::pair<unsigned short const ,bool>,void *> > >
_TEXT	ENDS
; Function compile flags: /Odtp
;	COMDAT ??1_Range_eraser@?$_Hash@V?$_Umap_traits@G_NV?$_Uhash_compare@GU?$hash@G@std@@U?$equal_to@G@2@@std@@V?$allocator@U?$pair@$$CBG_N@std@@@2@$0A@@std@@@std@@QEAA@XZ
_TEXT	SEGMENT
this$ = 8
??1_Range_eraser@?$_Hash@V?$_Umap_traits@G_NV?$_Uhash_compare@GU?$hash@G@std@@U?$equal_to@G@2@@std@@V?$allocator@U?$pair@$$CBG_N@std@@@2@$0A@@std@@@std@@QEAA@XZ PROC ; std::_Hash<std::_Umap_traits<unsigned short,bool,std::_Uhash_compare<unsigned short,std::hash<unsigned short>,std::equal_to<unsigned short> >,std::allocator<std::pair<unsigned short const ,bool> >,0> >::_Range_eraser::~_Range_eraser, COMDAT
; File C:\Program Files\Microsoft Visual Studio\2022\Community\VC\Tools\MSVC\14.33.31629\include\xhash
; Line 985
	mov	QWORD PTR [rsp+8], rcx
; Line 986
	mov	rax, QWORD PTR this$[rsp]
	mov	rax, QWORD PTR [rax+8]
	mov	rcx, QWORD PTR this$[rsp]
	mov	rcx, QWORD PTR [rcx+16]
	mov	QWORD PTR [rax], rcx
; Line 987
	mov	rax, QWORD PTR this$[rsp]
	mov	rax, QWORD PTR [rax+16]
	mov	rcx, QWORD PTR this$[rsp]
	mov	rcx, QWORD PTR [rcx+8]
	mov	QWORD PTR [rax+8], rcx
; Line 988
	ret	0
??1_Range_eraser@?$_Hash@V?$_Umap_traits@G_NV?$_Uhash_compare@GU?$hash@G@std@@U?$equal_to@G@2@@std@@V?$allocator@U?$pair@$$CBG_N@std@@@2@$0A@@std@@@std@@QEAA@XZ ENDP ; std::_Hash<std::_Umap_traits<unsigned short,bool,std::_Uhash_compare<unsigned short,std::hash<unsigned short>,std::equal_to<unsigned short> >,std::allocator<std::pair<unsigned short const ,bool> >,0> >::_Range_eraser::~_Range_eraser
_TEXT	ENDS
; Function compile flags: /Odtp
;	COMDAT ?_Bump_erased@_Range_eraser@?$_Hash@V?$_Umap_traits@G_NV?$_Uhash_compare@GU?$hash@G@std@@U?$equal_to@G@2@@std@@V?$allocator@U?$pair@$$CBG_N@std@@@2@$0A@@std@@@std@@QEAAXXZ
_TEXT	SEGMENT
_Oldnext$ = 32
this$ = 64
?_Bump_erased@_Range_eraser@?$_Hash@V?$_Umap_traits@G_NV?$_Uhash_compare@GU?$hash@G@std@@U?$equal_to@G@2@@std@@V?$allocator@U?$pair@$$CBG_N@std@@@2@$0A@@std@@@std@@QEAAXXZ PROC ; std::_Hash<std::_Umap_traits<unsigned short,bool,std::_Uhash_compare<unsigned short,std::hash<unsigned short>,std::equal_to<unsigned short> >,std::allocator<std::pair<unsigned short const ,bool> >,0> >::_Range_eraser::_Bump_erased, COMDAT
; File C:\Program Files\Microsoft Visual Studio\2022\Community\VC\Tools\MSVC\14.33.31629\include\xhash
; Line 978
$LN3:
	mov	QWORD PTR [rsp+8], rcx
	sub	rsp, 56					; 00000038H
; Line 979
	mov	rax, QWORD PTR this$[rsp]
	mov	rax, QWORD PTR [rax+16]
	mov	QWORD PTR _Oldnext$[rsp], rax
; Line 980
	mov	rax, QWORD PTR this$[rsp]
	mov	rcx, QWORD PTR _Oldnext$[rsp]
	mov	rcx, QWORD PTR [rcx]
	mov	QWORD PTR [rax+16], rcx
; Line 981
	mov	rax, QWORD PTR this$[rsp]
	mov	rcx, QWORD PTR [rax]
	call	?_Getal@?$list@U?$pair@$$CBG_N@std@@V?$allocator@U?$pair@$$CBG_N@std@@@2@@std@@AEAAAEAV?$allocator@U?$_List_node@U?$pair@$$CBG_N@std@@PEAX@std@@@2@XZ ; std::list<std::pair<unsigned short const ,bool>,std::allocator<std::pair<unsigned short const ,bool> > >::_Getal
	mov	rdx, QWORD PTR _Oldnext$[rsp]
	mov	rcx, rax
	call	??$_Freenode@V?$allocator@U?$_List_node@U?$pair@$$CBG_N@std@@PEAX@std@@@std@@@?$_List_node@U?$pair@$$CBG_N@std@@PEAX@std@@SAXAEAV?$allocator@U?$_List_node@U?$pair@$$CBG_N@std@@PEAX@std@@@1@PEAU01@@Z ; std::_List_node<std::pair<unsigned short const ,bool>,void *>::_Freenode<std::allocator<std::_List_node<std::pair<unsigned short const ,bool>,void *> > >
; Line 982
	mov	rax, QWORD PTR this$[rsp]
	mov	rax, QWORD PTR [rax]
	mov	rax, QWORD PTR [rax+8]
	dec	rax
	mov	rcx, QWORD PTR this$[rsp]
	mov	rcx, QWORD PTR [rcx]
	mov	QWORD PTR [rcx+8], rax
; Line 983
	add	rsp, 56					; 00000038H
	ret	0
?_Bump_erased@_Range_eraser@?$_Hash@V?$_Umap_traits@G_NV?$_Uhash_compare@GU?$hash@G@std@@U?$equal_to@G@2@@std@@V?$allocator@U?$pair@$$CBG_N@std@@@2@$0A@@std@@@std@@QEAAXXZ ENDP ; std::_Hash<std::_Umap_traits<unsigned short,bool,std::_Uhash_compare<unsigned short,std::hash<unsigned short>,std::equal_to<unsigned short> >,std::allocator<std::pair<unsigned short const ,bool> >,0> >::_Range_eraser::_Bump_erased
_TEXT	ENDS
; Function compile flags: /Odtp
;	COMDAT ??0_Range_eraser@?$_Hash@V?$_Umap_traits@G_NV?$_Uhash_compare@GU?$hash@G@std@@U?$equal_to@G@2@@std@@V?$allocator@U?$pair@$$CBG_N@std@@@2@$0A@@std@@@std@@QEAA@AEAV?$list@U?$pair@$$CBG_N@std@@V?$allocator@U?$pair@$$CBG_N@std@@@2@@2@QEAU?$_List_node@U?$pair@$$CBG_N@std@@PEAX@2@@Z
_TEXT	SEGMENT
this$ = 8
_List_$ = 16
_First_$ = 24
??0_Range_eraser@?$_Hash@V?$_Umap_traits@G_NV?$_Uhash_compare@GU?$hash@G@std@@U?$equal_to@G@2@@std@@V?$allocator@U?$pair@$$CBG_N@std@@@2@$0A@@std@@@std@@QEAA@AEAV?$list@U?$pair@$$CBG_N@std@@V?$allocator@U?$pair@$$CBG_N@std@@@2@@2@QEAU?$_List_node@U?$pair@$$CBG_N@std@@PEAX@2@@Z PROC ; std::_Hash<std::_Umap_traits<unsigned short,bool,std::_Uhash_compare<unsigned short,std::hash<unsigned short>,std::equal_to<unsigned short> >,std::allocator<std::pair<unsigned short const ,bool> >,0> >::_Range_eraser::_Range_eraser, COMDAT
; File C:\Program Files\Microsoft Visual Studio\2022\Community\VC\Tools\MSVC\14.33.31629\include\xhash
; Line 976
	mov	QWORD PTR [rsp+24], r8
	mov	QWORD PTR [rsp+16], rdx
	mov	QWORD PTR [rsp+8], rcx
	mov	rax, QWORD PTR this$[rsp]
	mov	rcx, QWORD PTR _List_$[rsp]
	mov	QWORD PTR [rax], rcx
	mov	rax, QWORD PTR this$[rsp]
	mov	rcx, QWORD PTR _First_$[rsp]
	mov	rcx, QWORD PTR [rcx+8]
	mov	QWORD PTR [rax+8], rcx
	mov	rax, QWORD PTR this$[rsp]
	mov	rcx, QWORD PTR _First_$[rsp]
	mov	QWORD PTR [rax+16], rcx
	mov	rax, QWORD PTR this$[rsp]
	ret	0
??0_Range_eraser@?$_Hash@V?$_Umap_traits@G_NV?$_Uhash_compare@GU?$hash@G@std@@U?$equal_to@G@2@@std@@V?$allocator@U?$pair@$$CBG_N@std@@@2@$0A@@std@@@std@@QEAA@AEAV?$list@U?$pair@$$CBG_N@std@@V?$allocator@U?$pair@$$CBG_N@std@@@2@@2@QEAU?$_List_node@U?$pair@$$CBG_N@std@@PEAX@2@@Z ENDP ; std::_Hash<std::_Umap_traits<unsigned short,bool,std::_Uhash_compare<unsigned short,std::hash<unsigned short>,std::equal_to<unsigned short> >,std::allocator<std::pair<unsigned short const ,bool> >,0> >::_Range_eraser::_Range_eraser
_TEXT	ENDS
; Function compile flags: /Odtp
;	COMDAT ??$_Get_size_of_n@$07@std@@YA_K_K@Z
_TEXT	SEGMENT
_Overflow_is_possible$ = 32
_Max_possible$1 = 40
_Count$ = 64
??$_Get_size_of_n@$07@std@@YA_K_K@Z PROC		; std::_Get_size_of_n<8>, COMDAT
; File C:\Program Files\Microsoft Visual Studio\2022\Community\VC\Tools\MSVC\14.33.31629\include\xmemory
; Line 55
$LN4:
	mov	QWORD PTR [rsp+8], rcx
	sub	rsp, 56					; 00000038H
; Line 56
	mov	BYTE PTR _Overflow_is_possible$[rsp], 1
; Line 59
	mov	rax, 2305843009213693951		; 1fffffffffffffffH
	mov	QWORD PTR _Max_possible$1[rsp], rax
; Line 60
	mov	rax, 2305843009213693951		; 1fffffffffffffffH
	cmp	QWORD PTR _Count$[rsp], rax
	jbe	SHORT $LN2@Get_size_o
; Line 61
	call	?_Throw_bad_array_new_length@std@@YAXXZ	; std::_Throw_bad_array_new_length
$LN2@Get_size_o:
; Line 65
	mov	rax, QWORD PTR _Count$[rsp]
	shl	rax, 3
$LN3@Get_size_o:
; Line 66
	add	rsp, 56					; 00000038H
	ret	0
??$_Get_size_of_n@$07@std@@YA_K_K@Z ENDP		; std::_Get_size_of_n<8>
_TEXT	ENDS
; Function compile flags: /Odtp
;	COMDAT ??$fill@PEAV?$_List_unchecked_iterator@V?$_List_val@U?$_List_simple_types@U?$pair@$$CBG_N@std@@@std@@@std@@@std@@V12@@std@@YAXQEAV?$_List_unchecked_iterator@V?$_List_val@U?$_List_simple_types@U?$pair@$$CBG_N@std@@@std@@@std@@@0@0AEBV10@@Z
_TEXT	SEGMENT
_UFirst$1 = 32
_ULast$2 = 40
_First$ = 64
_Last$ = 72
_Val$ = 80
??$fill@PEAV?$_List_unchecked_iterator@V?$_List_val@U?$_List_simple_types@U?$pair@$$CBG_N@std@@@std@@@std@@@std@@V12@@std@@YAXQEAV?$_List_unchecked_iterator@V?$_List_val@U?$_List_simple_types@U?$pair@$$CBG_N@std@@@std@@@std@@@0@0AEBV10@@Z PROC ; std::fill<std::_List_unchecked_iterator<std::_List_val<std::_List_simple_types<std::pair<unsigned short const ,bool> > > > *,std::_List_unchecked_iterator<std::_List_val<std::_List_simple_types<std::pair<unsigned short const ,bool> > > > >, COMDAT
; File C:\Program Files\Microsoft Visual Studio\2022\Community\VC\Tools\MSVC\14.33.31629\include\xutility
; Line 4495
$LN7:
	mov	QWORD PTR [rsp+24], r8
	mov	QWORD PTR [rsp+16], rdx
	mov	QWORD PTR [rsp+8], rcx
	sub	rsp, 56					; 00000038H
; Line 4497
	lea	rdx, QWORD PTR _Last$[rsp]
	lea	rcx, QWORD PTR _First$[rsp]
	call	??$_Adl_verify_range@PEAV?$_List_unchecked_iterator@V?$_List_val@U?$_List_simple_types@U?$pair@$$CBG_N@std@@@std@@@std@@@std@@PEAV12@@std@@YAXAEBQEAV?$_List_unchecked_iterator@V?$_List_val@U?$_List_simple_types@U?$pair@$$CBG_N@std@@@std@@@std@@@0@0@Z ; std::_Adl_verify_range<std::_List_unchecked_iterator<std::_List_val<std::_List_simple_types<std::pair<unsigned short const ,bool> > > > *,std::_List_unchecked_iterator<std::_List_val<std::_List_simple_types<std::pair<unsigned short const ,bool> > > > *>
; Line 4501
	lea	rcx, QWORD PTR _First$[rsp]
	call	??$_Get_unwrapped@AEBQEAV?$_List_unchecked_iterator@V?$_List_val@U?$_List_simple_types@U?$pair@$$CBG_N@std@@@std@@@std@@@std@@@std@@YA?A_TAEBQEAV?$_List_unchecked_iterator@V?$_List_val@U?$_List_simple_types@U?$pair@$$CBG_N@std@@@std@@@std@@@0@@Z ; std::_Get_unwrapped<std::_List_unchecked_iterator<std::_List_val<std::_List_simple_types<std::pair<unsigned short const ,bool> > > > * const &>
	mov	QWORD PTR _UFirst$1[rsp], rax
; Line 4502
	lea	rcx, QWORD PTR _Last$[rsp]
	call	??$_Get_unwrapped@AEBQEAV?$_List_unchecked_iterator@V?$_List_val@U?$_List_simple_types@U?$pair@$$CBG_N@std@@@std@@@std@@@std@@@std@@YA?A_TAEBQEAV?$_List_unchecked_iterator@V?$_List_val@U?$_List_simple_types@U?$pair@$$CBG_N@std@@@std@@@std@@@0@@Z ; std::_Get_unwrapped<std::_List_unchecked_iterator<std::_List_val<std::_List_simple_types<std::pair<unsigned short const ,bool> > > > * const &>
	mov	QWORD PTR _ULast$2[rsp], rax
; Line 4504
	call	?is_constant_evaluated@std@@YA_NXZ	; std::is_constant_evaluated
	movzx	eax, al
; Line 4518
	jmp	SHORT $LN4@fill
$LN2@fill:
	mov	rax, QWORD PTR _UFirst$1[rsp]
	add	rax, 8
	mov	QWORD PTR _UFirst$1[rsp], rax
$LN4@fill:
	mov	rax, QWORD PTR _ULast$2[rsp]
	cmp	QWORD PTR _UFirst$1[rsp], rax
	je	SHORT $LN3@fill
; Line 4519
	mov	rax, QWORD PTR _Val$[rsp]
	mov	rax, QWORD PTR [rax]
	mov	rcx, QWORD PTR _UFirst$1[rsp]
	mov	QWORD PTR [rcx], rax
; Line 4520
	jmp	SHORT $LN2@fill
$LN3@fill:
; Line 4522
	add	rsp, 56					; 00000038H
	ret	0
??$fill@PEAV?$_List_unchecked_iterator@V?$_List_val@U?$_List_simple_types@U?$pair@$$CBG_N@std@@@std@@@std@@@std@@V12@@std@@YAXQEAV?$_List_unchecked_iterator@V?$_List_val@U?$_List_simple_types@U?$pair@$$CBG_N@std@@@std@@@std@@@0@0AEBV10@@Z ENDP ; std::fill<std::_List_unchecked_iterator<std::_List_val<std::_List_simple_types<std::pair<unsigned short const ,bool> > > > *,std::_List_unchecked_iterator<std::_List_val<std::_List_simple_types<std::pair<unsigned short const ,bool> > > > >
_TEXT	ENDS
; Function compile flags: /Odtp
;	COMDAT ??$uninitialized_fill@PEAV?$_List_unchecked_iterator@V?$_List_val@U?$_List_simple_types@U?$pair@$$CBG_N@std@@@std@@@std@@@std@@V12@@std@@YAXQEAV?$_List_unchecked_iterator@V?$_List_val@U?$_List_simple_types@U?$pair@$$CBG_N@std@@@std@@@std@@@0@0AEBV10@@Z
_TEXT	SEGMENT
_UFirst$ = 32
_ULast$ = 40
_Backout$1 = 48
_First$ = 80
_Last$ = 88
_Val$ = 96
??$uninitialized_fill@PEAV?$_List_unchecked_iterator@V?$_List_val@U?$_List_simple_types@U?$pair@$$CBG_N@std@@@std@@@std@@@std@@V12@@std@@YAXQEAV?$_List_unchecked_iterator@V?$_List_val@U?$_List_simple_types@U?$pair@$$CBG_N@std@@@std@@@std@@@0@0AEBV10@@Z PROC ; std::uninitialized_fill<std::_List_unchecked_iterator<std::_List_val<std::_List_simple_types<std::pair<unsigned short const ,bool> > > > *,std::_List_unchecked_iterator<std::_List_val<std::_List_simple_types<std::pair<unsigned short const ,bool> > > > >, COMDAT
; File C:\Program Files\Microsoft Visual Studio\2022\Community\VC\Tools\MSVC\14.33.31629\include\xmemory
; Line 1799
$LN6:
	mov	QWORD PTR [rsp+24], r8
	mov	QWORD PTR [rsp+16], rdx
	mov	QWORD PTR [rsp+8], rcx
	sub	rsp, 72					; 00000048H
; Line 1801
	lea	rdx, QWORD PTR _Last$[rsp]
	lea	rcx, QWORD PTR _First$[rsp]
	call	??$_Adl_verify_range@PEAV?$_List_unchecked_iterator@V?$_List_val@U?$_List_simple_types@U?$pair@$$CBG_N@std@@@std@@@std@@@std@@PEAV12@@std@@YAXAEBQEAV?$_List_unchecked_iterator@V?$_List_val@U?$_List_simple_types@U?$pair@$$CBG_N@std@@@std@@@std@@@0@0@Z ; std::_Adl_verify_range<std::_List_unchecked_iterator<std::_List_val<std::_List_simple_types<std::pair<unsigned short const ,bool> > > > *,std::_List_unchecked_iterator<std::_List_val<std::_List_simple_types<std::pair<unsigned short const ,bool> > > > *>
; Line 1802
	lea	rcx, QWORD PTR _First$[rsp]
	call	??$_Get_unwrapped@AEBQEAV?$_List_unchecked_iterator@V?$_List_val@U?$_List_simple_types@U?$pair@$$CBG_N@std@@@std@@@std@@@std@@@std@@YA?A_TAEBQEAV?$_List_unchecked_iterator@V?$_List_val@U?$_List_simple_types@U?$pair@$$CBG_N@std@@@std@@@std@@@0@@Z ; std::_Get_unwrapped<std::_List_unchecked_iterator<std::_List_val<std::_List_simple_types<std::pair<unsigned short const ,bool> > > > * const &>
	mov	QWORD PTR _UFirst$[rsp], rax
; Line 1803
	lea	rcx, QWORD PTR _Last$[rsp]
	call	??$_Get_unwrapped@AEBQEAV?$_List_unchecked_iterator@V?$_List_val@U?$_List_simple_types@U?$pair@$$CBG_N@std@@@std@@@std@@@std@@@std@@YA?A_TAEBQEAV?$_List_unchecked_iterator@V?$_List_val@U?$_List_simple_types@U?$pair@$$CBG_N@std@@@std@@@std@@@0@@Z ; std::_Get_unwrapped<std::_List_unchecked_iterator<std::_List_val<std::_List_simple_types<std::pair<unsigned short const ,bool> > > > * const &>
	mov	QWORD PTR _ULast$[rsp], rax
; Line 1814
	mov	rdx, QWORD PTR _UFirst$[rsp]
	lea	rcx, QWORD PTR _Backout$1[rsp]
	call	??0?$_Uninitialized_backout@PEAV?$_List_unchecked_iterator@V?$_List_val@U?$_List_simple_types@U?$pair@$$CBG_N@std@@@std@@@std@@@std@@@std@@QEAA@PEAV?$_List_unchecked_iterator@V?$_List_val@U?$_List_simple_types@U?$pair@$$CBG_N@std@@@std@@@std@@@1@@Z ; std::_Uninitialized_backout<std::_List_unchecked_iterator<std::_List_val<std::_List_simple_types<std::pair<unsigned short const ,bool> > > > *>::_Uninitialized_backout<std::_List_unchecked_iterator<std::_List_val<std::_List_simple_types<std::pair<unsigned short const ,bool> > > > *>
	npad	1
$LN2@uninitiali:
; Line 1815
	mov	rax, QWORD PTR _ULast$[rsp]
	cmp	QWORD PTR _Backout$1[rsp+8], rax
	je	SHORT $LN3@uninitiali
; Line 1816
	mov	rdx, QWORD PTR _Val$[rsp]
	lea	rcx, QWORD PTR _Backout$1[rsp]
	call	??$_Emplace_back@AEBV?$_List_unchecked_iterator@V?$_List_val@U?$_List_simple_types@U?$pair@$$CBG_N@std@@@std@@@std@@@std@@@?$_Uninitialized_backout@PEAV?$_List_unchecked_iterator@V?$_List_val@U?$_List_simple_types@U?$pair@$$CBG_N@std@@@std@@@std@@@std@@@std@@QEAAXAEBV?$_List_unchecked_iterator@V?$_List_val@U?$_List_simple_types@U?$pair@$$CBG_N@std@@@std@@@std@@@1@@Z ; std::_Uninitialized_backout<std::_List_unchecked_iterator<std::_List_val<std::_List_simple_types<std::pair<unsigned short const ,bool> > > > *>::_Emplace_back<std::_List_unchecked_iterator<std::_List_val<std::_List_simple_types<std::pair<unsigned short const ,bool> > > > const &>
; Line 1817
	jmp	SHORT $LN2@uninitiali
$LN3@uninitiali:
; Line 1819
	lea	rcx, QWORD PTR _Backout$1[rsp]
	call	?_Release@?$_Uninitialized_backout@PEAV?$_List_unchecked_iterator@V?$_List_val@U?$_List_simple_types@U?$pair@$$CBG_N@std@@@std@@@std@@@std@@@std@@QEAAPEAV?$_List_unchecked_iterator@V?$_List_val@U?$_List_simple_types@U?$pair@$$CBG_N@std@@@std@@@std@@@2@XZ ; std::_Uninitialized_backout<std::_List_unchecked_iterator<std::_List_val<std::_List_simple_types<std::pair<unsigned short const ,bool> > > > *>::_Release
	npad	1
; Line 1820
	lea	rcx, QWORD PTR _Backout$1[rsp]
	call	??1?$_Uninitialized_backout@PEAV?$_List_unchecked_iterator@V?$_List_val@U?$_List_simple_types@U?$pair@$$CBG_N@std@@@std@@@std@@@std@@@std@@QEAA@XZ ; std::_Uninitialized_backout<std::_List_unchecked_iterator<std::_List_val<std::_List_simple_types<std::pair<unsigned short const ,bool> > > > *>::~_Uninitialized_backout<std::_List_unchecked_iterator<std::_List_val<std::_List_simple_types<std::pair<unsigned short const ,bool> > > > *>
; Line 1821
	add	rsp, 72					; 00000048H
	ret	0
??$uninitialized_fill@PEAV?$_List_unchecked_iterator@V?$_List_val@U?$_List_simple_types@U?$pair@$$CBG_N@std@@@std@@@std@@@std@@V12@@std@@YAXQEAV?$_List_unchecked_iterator@V?$_List_val@U?$_List_simple_types@U?$pair@$$CBG_N@std@@@std@@@std@@@0@0AEBV10@@Z ENDP ; std::uninitialized_fill<std::_List_unchecked_iterator<std::_List_val<std::_List_simple_types<std::pair<unsigned short const ,bool> > > > *,std::_List_unchecked_iterator<std::_List_val<std::_List_simple_types<std::pair<unsigned short const ,bool> > > > >
_TEXT	ENDS
; Function compile flags: /Odtp
;	COMDAT text$x
text$x	SEGMENT
_UFirst$ = 32
_ULast$ = 40
_Backout$1 = 48
_First$ = 80
_Last$ = 88
_Val$ = 96
?dtor$0@?0???$uninitialized_fill@PEAV?$_List_unchecked_iterator@V?$_List_val@U?$_List_simple_types@U?$pair@$$CBG_N@std@@@std@@@std@@@std@@V12@@std@@YAXQEAV?$_List_unchecked_iterator@V?$_List_val@U?$_List_simple_types@U?$pair@$$CBG_N@std@@@std@@@std@@@0@0AEBV10@@Z@4HA PROC ; `std::uninitialized_fill<std::_List_unchecked_iterator<std::_List_val<std::_List_simple_types<std::pair<unsigned short const ,bool> > > > *,std::_List_unchecked_iterator<std::_List_val<std::_List_simple_types<std::pair<unsigned short const ,bool> > > > >'::`1'::dtor$0
	push	rbp
	sub	rsp, 32					; 00000020H
	mov	rbp, rdx
	lea	rcx, QWORD PTR _Backout$1[rbp]
	call	??1?$_Uninitialized_backout@PEAV?$_List_unchecked_iterator@V?$_List_val@U?$_List_simple_types@U?$pair@$$CBG_N@std@@@std@@@std@@@std@@@std@@QEAA@XZ ; std::_Uninitialized_backout<std::_List_unchecked_iterator<std::_List_val<std::_List_simple_types<std::pair<unsigned short const ,bool> > > > *>::~_Uninitialized_backout<std::_List_unchecked_iterator<std::_List_val<std::_List_simple_types<std::pair<unsigned short const ,bool> > > > *>
	add	rsp, 32					; 00000020H
	pop	rbp
	ret	0
?dtor$0@?0???$uninitialized_fill@PEAV?$_List_unchecked_iterator@V?$_List_val@U?$_List_simple_types@U?$pair@$$CBG_N@std@@@std@@@std@@@std@@V12@@std@@YAXQEAV?$_List_unchecked_iterator@V?$_List_val@U?$_List_simple_types@U?$pair@$$CBG_N@std@@@std@@@std@@@0@0AEBV10@@Z@4HA ENDP ; `std::uninitialized_fill<std::_List_unchecked_iterator<std::_List_val<std::_List_simple_types<std::pair<unsigned short const ,bool> > > > *,std::_List_unchecked_iterator<std::_List_val<std::_List_simple_types<std::pair<unsigned short const ,bool> > > > >'::`1'::dtor$0
text$x	ENDS
; Function compile flags: /Odtp
;	COMDAT ??$_Destroy_range@PEAV?$_List_unchecked_iterator@V?$_List_val@U?$_List_simple_types@U?$pair@$$CBG_N@std@@@std@@@std@@@std@@PEAV12@@std@@YAXPEAV?$_List_unchecked_iterator@V?$_List_val@U?$_List_simple_types@U?$pair@$$CBG_N@std@@@std@@@std@@@0@QEAV10@@Z
_TEXT	SEGMENT
_First$ = 8
_Last$ = 16
??$_Destroy_range@PEAV?$_List_unchecked_iterator@V?$_List_val@U?$_List_simple_types@U?$pair@$$CBG_N@std@@@std@@@std@@@std@@PEAV12@@std@@YAXPEAV?$_List_unchecked_iterator@V?$_List_val@U?$_List_simple_types@U?$pair@$$CBG_N@std@@@std@@@std@@@0@QEAV10@@Z PROC ; std::_Destroy_range<std::_List_unchecked_iterator<std::_List_val<std::_List_simple_types<std::pair<unsigned short const ,bool> > > > *,std::_List_unchecked_iterator<std::_List_val<std::_List_simple_types<std::pair<unsigned short const ,bool> > > > *>, COMDAT
; File C:\Program Files\Microsoft Visual Studio\2022\Community\VC\Tools\MSVC\14.33.31629\include\xmemory
; Line 955
	mov	QWORD PTR [rsp+16], rdx
	mov	QWORD PTR [rsp+8], rcx
; Line 962
	ret	0
??$_Destroy_range@PEAV?$_List_unchecked_iterator@V?$_List_val@U?$_List_simple_types@U?$pair@$$CBG_N@std@@@std@@@std@@@std@@PEAV12@@std@@YAXPEAV?$_List_unchecked_iterator@V?$_List_val@U?$_List_simple_types@U?$pair@$$CBG_N@std@@@std@@@std@@@0@QEAV10@@Z ENDP ; std::_Destroy_range<std::_List_unchecked_iterator<std::_List_val<std::_List_simple_types<std::pair<unsigned short const ,bool> > > > *,std::_List_unchecked_iterator<std::_List_val<std::_List_simple_types<std::pair<unsigned short const ,bool> > > > *>
_TEXT	ENDS
; Function compile flags: /Odtp
;	COMDAT ??$?RGG@?$_Uhash_compare@GU?$hash@G@std@@U?$equal_to@G@2@@std@@QEBA_NAEBG0@Z
_TEXT	SEGMENT
tv76 = 32
tv73 = 40
this$ = 64
_Keyval1$ = 72
_Keyval2$ = 80
??$?RGG@?$_Uhash_compare@GU?$hash@G@std@@U?$equal_to@G@2@@std@@QEBA_NAEBG0@Z PROC ; std::_Uhash_compare<unsigned short,std::hash<unsigned short>,std::equal_to<unsigned short> >::operator()<unsigned short,unsigned short>, COMDAT
; File C:\Program Files\Microsoft Visual Studio\2022\Community\VC\Tools\MSVC\14.33.31629\include\xhash
; Line 144
$LN5:
	mov	QWORD PTR [rsp+24], r8
	mov	QWORD PTR [rsp+16], rdx
	mov	QWORD PTR [rsp+8], rcx
	sub	rsp, 56					; 00000038H
; Line 146
	mov	rax, QWORD PTR this$[rsp]
	mov	rcx, rax
	call	?_Get_first@?$_Compressed_pair@U?$equal_to@G@std@@M$00@std@@QEBAAEBU?$equal_to@G@2@XZ ; std::_Compressed_pair<std::equal_to<unsigned short>,float,1>::_Get_first
	mov	QWORD PTR tv73[rsp], rax
	mov	r8, QWORD PTR _Keyval2$[rsp]
	mov	rdx, QWORD PTR _Keyval1$[rsp]
	mov	rcx, QWORD PTR tv73[rsp]
	call	??R?$equal_to@G@std@@QEBA_NAEBG0@Z	; std::equal_to<unsigned short>::operator()
	movzx	eax, al
	test	eax, eax
	jne	SHORT $LN3@operator
	mov	DWORD PTR tv76[rsp], 1
	jmp	SHORT $LN4@operator
$LN3@operator:
	mov	DWORD PTR tv76[rsp], 0
$LN4@operator:
	movzx	eax, BYTE PTR tv76[rsp]
; Line 147
	add	rsp, 56					; 00000038H
	ret	0
??$?RGG@?$_Uhash_compare@GU?$hash@G@std@@U?$equal_to@G@2@@std@@QEBA_NAEBG0@Z ENDP ; std::_Uhash_compare<unsigned short,std::hash<unsigned short>,std::equal_to<unsigned short> >::operator()<unsigned short,unsigned short>
_TEXT	ENDS
; Function compile flags: /Odtp
;	COMDAT ??1_Clear_guard@?$_Hash@V?$_Umap_traits@G_NV?$_Uhash_compare@GU?$hash@G@std@@U?$equal_to@G@2@@std@@V?$allocator@U?$pair@$$CBG_N@std@@@2@$0A@@std@@@std@@QEAA@XZ
_TEXT	SEGMENT
this$ = 48
??1_Clear_guard@?$_Hash@V?$_Umap_traits@G_NV?$_Uhash_compare@GU?$hash@G@std@@U?$equal_to@G@2@@std@@V?$allocator@U?$pair@$$CBG_N@std@@@2@$0A@@std@@@std@@QEAA@XZ PROC ; std::_Hash<std::_Umap_traits<unsigned short,bool,std::_Uhash_compare<unsigned short,std::hash<unsigned short>,std::equal_to<unsigned short> >,std::allocator<std::pair<unsigned short const ,bool> >,0> >::_Clear_guard::~_Clear_guard, COMDAT
; File C:\Program Files\Microsoft Visual Studio\2022\Community\VC\Tools\MSVC\14.33.31629\include\xhash
; Line 464
$LN4:
	mov	QWORD PTR [rsp+8], rcx
	sub	rsp, 40					; 00000028H
; Line 465
	mov	rax, QWORD PTR this$[rsp]
	cmp	QWORD PTR [rax], 0
	je	SHORT $LN2@Clear_guar
; Line 466
	mov	rax, QWORD PTR this$[rsp]
	mov	rcx, QWORD PTR [rax]
	call	?clear@?$_Hash@V?$_Umap_traits@G_NV?$_Uhash_compare@GU?$hash@G@std@@U?$equal_to@G@2@@std@@V?$allocator@U?$pair@$$CBG_N@std@@@2@$0A@@std@@@std@@QEAAXXZ ; std::_Hash<std::_Umap_traits<unsigned short,bool,std::_Uhash_compare<unsigned short,std::hash<unsigned short>,std::equal_to<unsigned short> >,std::allocator<std::pair<unsigned short const ,bool> >,0> >::clear
$LN2@Clear_guar:
; Line 468
